 SELF

 Timestamp is 4fba04e1 (Mon May 21 17:03:29 2012)

 Preferred load address is 00400000

 Start         Length     Name                   Class
 0001:00000000 0028af9bH .text                   CODE
 0002:00000000 000000d0H .text1                  CODE
 0003:00000000 0000080cH .idata$5                DATA
 0003:0000080c 00000004H .CRT$XCA                DATA
 0003:00000810 00000004H .CRT$XCF                DATA
 0003:00000814 00000004H .CRT$XCZ                DATA
 0003:00000818 00000004H .CRT$XIA                DATA
 0003:0000081c 00000014H .CRT$XIC                DATA
 0003:00000830 00000004H .CRT$XIY                DATA
 0003:00000834 00000004H .CRT$XIZ                DATA
 0003:00000838 00000004H .CRT$XPA                DATA
 0003:0000083c 00000004H .CRT$XPX                DATA
 0003:00000840 00000004H .CRT$XPXA               DATA
 0003:00000844 00000004H .CRT$XPZ                DATA
 0003:00000848 00000004H .CRT$XTA                DATA
 0003:0000084c 00000004H .CRT$XTZ                DATA
 0003:00000860 00045898H .rdata                  DATA
 0003:000460f8 00000062H .rdata$debug            DATA
 0003:00046160 00000010H .rdata$sxdata           DATA
 0003:00046170 00000004H .rtc$IAA                DATA
 0003:00046174 00000004H .rtc$IZZ                DATA
 0003:00046178 00000004H .rtc$TAA                DATA
 0003:0004617c 00000004H .rtc$TZZ                DATA
 0003:00046180 000008b0H .xdata$x                DATA
 0003:00046a30 00000050H .idata$2                DATA
 0003:00046a80 00000014H .idata$3                DATA
 0003:00046a94 0000080cH .idata$4                DATA
 0003:000472a0 000027c6H .idata$6                DATA
 0003:00049a66 00000000H .edata                  DATA
 0004:00000000 0093c4c0H .data                   DATA
 0004:0093c4c0 0004901cH .bss                    DATA
 0005:00000000 00000020H .data1                  DATA
 0006:00000000 0000595cH .trace                  DATA

  Address         Publics by Value              Rva+Base       Lib:Object

 0000:00000000       __except_list              00000000     <absolute>
 0000:00000004       ___safe_se_handler_count   00000004     <absolute>
 0000:00000000       ___ImageBase               00400000     <linker-defined>
 0000:00000010       _mpiprivc_                 00400010     <linker-defined>
 0000:00000010       _mpiprivc__                00400010     <linker-defined>
 0000:00000020       _mpipriv1_                 00400020     <linker-defined>
 0000:00000020       _mpipriv2_                 00400020     <linker-defined>
 0000:00000020       _mpipriv1__                00400020     <linker-defined>
 0000:00000020       _mpipriv2__                00400020     <linker-defined>
 0001:00000000       _PARMETIS_V3_ADAPTIVEREPART 00401000 f   ParMETISLib:frename.obj
 0001:00000010       _parmetis_v3_adaptiverepart 00401010 f   ParMETISLib:frename.obj
 0001:00000020       _parmetis_v3_adaptiverepart_ 00401020 f   ParMETISLib:frename.obj
 0001:00000030       _parmetis_v3_adaptiverepart__ 00401030 f   ParMETISLib:frename.obj
 0001:00000040       _PARMETIS_V3_PARTGEOMKWAY  00401040 f   ParMETISLib:frename.obj
 0001:00000050       _parmetis_v3_partgeomkway  00401050 f   ParMETISLib:frename.obj
 0001:00000060       _parmetis_v3_partgeomkway_ 00401060 f   ParMETISLib:frename.obj
 0001:00000070       _parmetis_v3_partgeomkway__ 00401070 f   ParMETISLib:frename.obj
 0001:00000080       _PARMETIS_V3_PARTGEOM      00401080 f   ParMETISLib:frename.obj
 0001:000000a0       _parmetis_v3_partgeom      004010a0 f   ParMETISLib:frename.obj
 0001:000000c0       _parmetis_v3_partgeom_     004010c0 f   ParMETISLib:frename.obj
 0001:000000e0       _parmetis_v3_partgeom__    004010e0 f   ParMETISLib:frename.obj
 0001:00000100       _PARMETIS_V3_PARTKWAY      00401100 f   ParMETISLib:frename.obj
 0001:00000160       _parmetis_v3_partkway      00401160 f   ParMETISLib:frename.obj
 0001:000001c0       _parmetis_v3_partkway_     004011c0 f   ParMETISLib:frename.obj
 0001:00000220       _parmetis_v3_partkway__    00401220 f   ParMETISLib:frename.obj
 0001:00000280       _PARMETIS_V3_MESH2DUAL     00401280 f   ParMETISLib:frename.obj
 0001:000002b0       _parmetis_v3_mesh2dual     004012b0 f   ParMETISLib:frename.obj
 0001:000002e0       _parmetis_v3_mesh2dual_    004012e0 f   ParMETISLib:frename.obj
 0001:00000310       _parmetis_v3_mesh2dual__   00401310 f   ParMETISLib:frename.obj
 0001:00000340       _PARMETIS_V3_PARTMESHKWAY  00401340 f   ParMETISLib:frename.obj
 0001:00000350       _parmetis_v3_partmeshkway  00401350 f   ParMETISLib:frename.obj
 0001:00000360       _parmetis_v3_partmeshkway_ 00401360 f   ParMETISLib:frename.obj
 0001:00000370       _parmetis_v3_partmeshkway__ 00401370 f   ParMETISLib:frename.obj
 0001:00000380       _PARMETIS_V3_NODEND        00401380 f   ParMETISLib:frename.obj
 0001:000003b0       _parmetis_v3_nodend        004013b0 f   ParMETISLib:frename.obj
 0001:000003e0       _parmetis_v3_nodend_       004013e0 f   ParMETISLib:frename.obj
 0001:00000410       _parmetis_v3_nodend__      00401410 f   ParMETISLib:frename.obj
 0001:00000440       _PARMETIS_V3_REFINEKWAY    00401440 f   ParMETISLib:frename.obj
 0001:00000450       _parmetis_v3_refinekway    00401450 f   ParMETISLib:frename.obj
 0001:00000460       _parmetis_v3_refinekway_   00401460 f   ParMETISLib:frename.obj
 0001:00000470       _parmetis_v3_refinekway__  00401470 f   ParMETISLib:frename.obj
 0001:00000480       _PARMETIS_PARTKWAY         00401480 f   ParMETISLib:frename.obj
 0001:000004c0       _parmetis_partkway         004014c0 f   ParMETISLib:frename.obj
 0001:00000500       _parmetis_partkway_        00401500 f   ParMETISLib:frename.obj
 0001:00000540       _parmetis_partkway__       00401540 f   ParMETISLib:frename.obj
 0001:00000580       _PARMETIS_PARTGEOMKWAY     00401580 f   ParMETISLib:frename.obj
 0001:00000590       _parmetis_partgeomkway     00401590 f   ParMETISLib:frename.obj
 0001:000005a0       _parmetis_partgeomkway_    004015a0 f   ParMETISLib:frename.obj
 0001:000005b0       _parmetis_partgeomkway__   004015b0 f   ParMETISLib:frename.obj
 0001:000005c0       _PARMETIS_PARTGEOM         004015c0 f   ParMETISLib:frename.obj
 0001:000005e0       _parmetis_partgeom         004015e0 f   ParMETISLib:frename.obj
 0001:00000600       _parmetis_partgeom_        00401600 f   ParMETISLib:frename.obj
 0001:00000620       _parmetis_partgeom__       00401620 f   ParMETISLib:frename.obj
 0001:00000640       _PARMETIS_PARTGEOMREFINE   00401640 f   ParMETISLib:frename.obj
 0001:00000650       _parmetis_partgeomrefine   00401650 f   ParMETISLib:frename.obj
 0001:00000660       _parmetis_partgeomrefine_  00401660 f   ParMETISLib:frename.obj
 0001:00000670       _parmetis_partgeomrefine__ 00401670 f   ParMETISLib:frename.obj
 0001:00000680       _PARMETIS_REFINEKWAY       00401680 f   ParMETISLib:frename.obj
 0001:000006c0       _parmetis_refinekway       004016c0 f   ParMETISLib:frename.obj
 0001:00000700       _parmetis_refinekway_      00401700 f   ParMETISLib:frename.obj
 0001:00000740       _parmetis_refinekway__     00401740 f   ParMETISLib:frename.obj
 0001:00000780       _PARMETIS_REPARTLDIFUSSION 00401780 f   ParMETISLib:frename.obj
 0001:000007c0       _parmetis_repartldiffusion 004017c0 f   ParMETISLib:frename.obj
 0001:00000800       _parmetis_repartldiffusion_ 00401800 f   ParMETISLib:frename.obj
 0001:00000840       _parmetis_repartldiffusion__ 00401840 f   ParMETISLib:frename.obj
 0001:00000880       _PARMETIS_REPARTGDIFFUSION 00401880 f   ParMETISLib:frename.obj
 0001:000008c0       _parmetis_repartgdiffusion 004018c0 f   ParMETISLib:frename.obj
 0001:00000900       _parmetis_repartgdiffusion_ 00401900 f   ParMETISLib:frename.obj
 0001:00000940       _parmetis_repartgdiffusion__ 00401940 f   ParMETISLib:frename.obj
 0001:00000980       _PARMETIS_REPARTREMAP      00401980 f   ParMETISLib:frename.obj
 0001:000009c0       _parmetis_repartremap      004019c0 f   ParMETISLib:frename.obj
 0001:00000a00       _parmetis_repartremap_     00401a00 f   ParMETISLib:frename.obj
 0001:00000a40       _parmetis_repartremap__    00401a40 f   ParMETISLib:frename.obj
 0001:00000a80       _PARMETIS_REPARTMLREMAP    00401a80 f   ParMETISLib:frename.obj
 0001:00000ac0       _parmetis_repartmlremap    00401ac0 f   ParMETISLib:frename.obj
 0001:00000b00       _parmetis_repartmlremap_   00401b00 f   ParMETISLib:frename.obj
 0001:00000b40       _parmetis_repartmlremap__  00401b40 f   ParMETISLib:frename.obj
 0001:00000b80       _PARMETIS_NODEND           00401b80 f   ParMETISLib:frename.obj
 0001:00000be0       _parmetis_nodend           00401be0 f   ParMETISLib:frename.obj
 0001:00000c40       _parmetis_nodend_          00401c40 f   ParMETISLib:frename.obj
 0001:00000ca0       _parmetis_nodend__         00401ca0 f   ParMETISLib:frename.obj
 0001:00000d00       _PARMETIS_SERIALNODEND     00401d00 f   ParMETISLib:frename.obj
 0001:00000d30       _parmetis_serialnodend     00401d30 f   ParMETISLib:frename.obj
 0001:00000d60       _parmetis_serialnodend_    00401d60 f   ParMETISLib:frename.obj
 0001:00000d90       _parmetis_serialnodend__   00401d90 f   ParMETISLib:frename.obj
 0001:00000dc0       _PARKMETIS_                00401dc0 f   ParMETISLib:frename.obj
 0001:00000de0       _parkmetis                 00401de0 f   ParMETISLib:frename.obj
 0001:00000e00       _parkmetis_                00401e00 f   ParMETISLib:frename.obj
 0001:00000e20       _parkmetis__               00401e20 f   ParMETISLib:frename.obj
 0001:00000e40       _PARGKMETIS_               00401e40 f   ParMETISLib:frename.obj
 0001:00000e70       _pargkmetis                00401e70 f   ParMETISLib:frename.obj
 0001:00000ea0       _pargkmetis_               00401ea0 f   ParMETISLib:frename.obj
 0001:00000ed0       _pargkmetis__              00401ed0 f   ParMETISLib:frename.obj
 0001:00000f00       _PARGRMETIS_               00401f00 f   ParMETISLib:frename.obj
 0001:00000f30       _pargrmetis                00401f30 f   ParMETISLib:frename.obj
 0001:00000f60       _pargrmetis_               00401f60 f   ParMETISLib:frename.obj
 0001:00000f90       _pargrmetis__              00401f90 f   ParMETISLib:frename.obj
 0001:00000fc0       _PARGMETIS_                00401fc0 f   ParMETISLib:frename.obj
 0001:00001000       _pargmetis                 00402000 f   ParMETISLib:frename.obj
 0001:00001040       _pargmetis_                00402040 f   ParMETISLib:frename.obj
 0001:00001080       _pargmetis__               00402080 f   ParMETISLib:frename.obj
 0001:000010c0       _PARRMETIS_                004020c0 f   ParMETISLib:frename.obj
 0001:000010e0       _parrmetis                 004020e0 f   ParMETISLib:frename.obj
 0001:00001100       _parrmetis_                00402100 f   ParMETISLib:frename.obj
 0001:00001120       _parrmetis__               00402120 f   ParMETISLib:frename.obj
 0001:00001140       _PARUAMETIS_               00402140 f   ParMETISLib:frename.obj
 0001:00001160       _paruametis                00402160 f   ParMETISLib:frename.obj
 0001:00001180       _paruametis_               00402180 f   ParMETISLib:frename.obj
 0001:000011a0       _paruametis__              004021a0 f   ParMETISLib:frename.obj
 0001:000011c0       _PARDAMETIS_               004021c0 f   ParMETISLib:frename.obj
 0001:000011e0       _pardametis                004021e0 f   ParMETISLib:frename.obj
 0001:00001200       _pardametis_               00402200 f   ParMETISLib:frename.obj
 0001:00001220       _pardametis__              00402220 f   ParMETISLib:frename.obj
 0001:00001240       _ParMETIS_PartKway         00402240 f   ParMETISLib:backcompat.obj
 0001:00001360       _PARKMETIS                 00402360 f   ParMETISLib:backcompat.obj
 0001:00001400       _ParMETIS_PartGeomKway     00402400 f   ParMETISLib:backcompat.obj
 0001:00001530       _ParMETIS_PartGeom         00402530 f   ParMETISLib:backcompat.obj
 0001:00001550       _ParMETIS_PartGeomRefine   00402550 f   ParMETISLib:backcompat.obj
 0001:00001690       _PARGKMETIS                00402690 f   ParMETISLib:backcompat.obj
 0001:00001730       _PARGRMETIS                00402730 f   ParMETISLib:backcompat.obj
 0001:000017c0       _PARGMETIS                 004027c0 f   ParMETISLib:backcompat.obj
 0001:000017f0       _ParMETIS_RefineKway       004027f0 f   ParMETISLib:backcompat.obj
 0001:00001920       _PARRMETIS                 00402920 f   ParMETISLib:backcompat.obj
 0001:000019a0       _ParMETIS_RepartLDiffusion 004029a0 f   ParMETISLib:backcompat.obj
 0001:00001ae0       _PARUAMETIS                00402ae0 f   ParMETISLib:backcompat.obj
 0001:00001b60       _ParMETIS_RepartGDiffusion 00402b60 f   ParMETISLib:backcompat.obj
 0001:00001ca0       _PARDAMETIS                00402ca0 f   ParMETISLib:backcompat.obj
 0001:00001d20       _ParMETIS_RepartRemap      00402d20 f   ParMETISLib:backcompat.obj
 0001:00001e60       _ParMETIS_RepartMLRemap    00402e60 f   ParMETISLib:backcompat.obj
 0001:00001fa0       _ParMETIS_NodeND           00402fa0 f   ParMETISLib:backcompat.obj
 0001:00002000       _ParMETIS_SerialNodeND     00403000 f   ParMETISLib:pspases.obj
 0001:00002550       _AssembleEntireGraph__     00403550 f   ParMETISLib:pspases.obj
 0001:00002850       _ParMETIS_V3_NodeND        00403850 f   ParMETISLib:ometis.obj
 0001:00003070       _PAROMETIS                 00404070 f   ParMETISLib:ometis.obj
 0001:000030d0       _ParMETIS_V3_Mesh2Dual     004040d0 f   ParMETISLib:mesh.obj
 0001:000042a0       _ParMETIS_V3_PartKway      004052a0 f   ParMETISLib:kmetis.obj
 0001:000049c0       _Mc_Global_Partition__     004059c0 f   ParMETISLib:kmetis.obj
 0001:00005020       _ParMETIS_V3_PartGeomKway  00406020 f   ParMETISLib:gkmetis.obj
 0001:00005ba0       _ParMETIS_V3_PartGeom      00406ba0 f   ParMETISLib:gkmetis.obj
 0001:00005ec0       _ParMETIS_V3_RefineKway    00406ec0 f   ParMETISLib:rmetis.obj
 0001:00006660       _ParMETIS_V3_AdaptiveRepart 00407660 f   ParMETISLib:ametis.obj
 0001:00006e40       _Adaptive_Partition__      00407e40 f   ParMETISLib:ametis.obj
 0001:000072e0       _ParMETIS_V3_PartMeshKway  004082e0 f   ParMETISLib:mmetis.obj
 0001:000075c0       _errexit__                 004085c0 f   ParMETISLib:util.obj
 0001:00007650       _myprintf__                00408650 f   ParMETISLib:util.obj
 0001:000076e0       _rprintf__                 004086e0 f   ParMETISLib:util.obj
 0001:00007720       _imalloc__                 00408720 f   ParMETISLib:util.obj
 0001:00007760       _idxmalloc__               00408760 f   ParMETISLib:util.obj
 0001:000077a0       _fmalloc__                 004087a0 f   ParMETISLib:util.obj
 0001:000077e0       _ismalloc__                004087e0 f   ParMETISLib:util.obj
 0001:00007830       _idxsmalloc__              00408830 f   ParMETISLib:util.obj
 0001:00007890       _GKmalloc__                00408890 f   ParMETISLib:util.obj
 0001:000078c0       _GKfree__                  004088c0 f   ParMETISLib:util.obj
 0001:00007910       _iset__                    00408910 f   ParMETISLib:util.obj
 0001:00007920       _idxset__                  00408920 f   ParMETISLib:util.obj
 0001:00007930       _idxamax__                 00408930 f   ParMETISLib:util.obj
 0001:00007960       _idxamin__                 00408960 f   ParMETISLib:util.obj
 0001:00007990       _idxsum__                  00408990 f   ParMETISLib:util.obj
 0001:000079d0       _charsum                   004089d0 f   ParMETISLib:util.obj
 0001:00007a20       _isum                      00408a20 f   ParMETISLib:util.obj
 0001:00007a60       _snorm2__                  00408a60 f   ParMETISLib:util.obj
 0001:00007af0       _sdot__                    00408af0 f   ParMETISLib:util.obj
 0001:00007ba0       _saxpy__                   00408ba0 f   ParMETISLib:util.obj
 0001:00007c40       _ikeyvalsort_org__         00408c40 f   ParMETISLib:util.obj
 0001:00007c60       _IncKeyValueCmp__          00408c60 f   ParMETISLib:util.obj
 0001:00007c80       _dkeyvalsort__             00408c80 f   ParMETISLib:util.obj
 0001:00007ca0       _DecKeyValueCmp__          00408ca0 f   ParMETISLib:util.obj
 0001:00007cb0       _BSearch__                 00408cb0 f   ParMETISLib:util.obj
 0001:00007d00       _RandomPermute__           00408d00 f   ParMETISLib:util.obj
 0001:00007d90       _FastRandomPermute__       00408d90 f   ParMETISLib:util.obj
 0001:00007e80       _ispow2__                  00408e80 f   ParMETISLib:util.obj
 0001:00007ec0       _log2Int__                 00408ec0 f   ParMETISLib:util.obj
 0001:00007ee0       _sset__                    00408ee0 f   ParMETISLib:util.obj
 0001:00007f00       _iamax__                   00408f00 f   ParMETISLib:util.obj
 0001:00007f30       _samax_strd__              00408f30 f   ParMETISLib:util.obj
 0001:00007f70       _sfamax__                  00408f70 f   ParMETISLib:util.obj
 0001:00008080       _samin_strd__              00409080 f   ParMETISLib:util.obj
 0001:000080c0       _idxamax_strd__            004090c0 f   ParMETISLib:util.obj
 0001:00008110       _idxamin_strd__            00409110 f   ParMETISLib:util.obj
 0001:00008160       _idxavg__                  00409160 f   ParMETISLib:util.obj
 0001:000081f0       _savg__                    004091f0 f   ParMETISLib:util.obj
 0001:00008280       _samax__                   00409280 f   ParMETISLib:util.obj
 0001:00008380       _sfavg__                   00409380 f   ParMETISLib:util.obj
 0001:00008420       _samax2__                  00409420 f   ParMETISLib:util.obj
 0001:00008620       _samin__                   00409620 f   ParMETISLib:util.obj
 0001:00008720       _idxsum_strd__             00409720 f   ParMETISLib:util.obj
 0001:00008770       _idxadd__                  00409770 f   ParMETISLib:util.obj
 0001:00008790       _ssum__                    00409790 f   ParMETISLib:util.obj
 0001:00008800       _ssum_strd__               00409800 f   ParMETISLib:util.obj
 0001:00008890       _sscale__                  00409890 f   ParMETISLib:util.obj
 0001:000088f0       _saneg__                   004098f0 f   ParMETISLib:util.obj
 0001:00008950       _BetterVBalance__          00409950 f   ParMETISLib:util.obj
 0001:00008c30       _IsHBalanceBetterFT__      00409c30 f   ParMETISLib:util.obj
 0001:00008da0       _IsHBalanceBetterTT__      00409da0 f   ParMETISLib:util.obj
 0001:00009200       _myvalkeycompare__         0040a200 f   ParMETISLib:util.obj
 0001:00009240       _imyvalkeycompare__        0040a240 f   ParMETISLib:util.obj
 0001:00009270       _fsmalloc__                0040a270 f   ParMETISLib:util.obj
 0001:000092c0       _saxpy2__                  0040a2c0 f   ParMETISLib:util.obj
 0001:00009350       _GetThreeMax__             0040a350 f   ParMETISLib:util.obj
 0001:000095e0       _Mc_SetUpGraph__           0040a5e0 f   ParMETISLib:grsetup.obj
 0001:00009960       _SetUpCtrl__               0040a960 f   ParMETISLib:grsetup.obj
 0001:000099b0       _ChangeNumbering__         0040a9b0 f   ParMETISLib:grsetup.obj
 0001:00009a50       _ChangeNumberingMesh__     0040aa50 f   ParMETISLib:grsetup.obj
 0001:00009b10       _GraphRandomPermute__      0040ab10 f   ParMETISLib:grsetup.obj
 0001:00009bb0       _ComputeMoveStatistics__   0040abb0 f   ParMETISLib:grsetup.obj
 0001:00009d80       _AllocateWSpace            0040ad80 f   ParMETISLib:memory.obj
 0001:00009f80       _AdjustWSpace              0040af80 f   ParMETISLib:memory.obj
 0001:00009fd0       _FreeWSpace__              0040afd0 f   ParMETISLib:memory.obj
 0001:0000a000       _FreeCtrl__                0040b000 f   ParMETISLib:memory.obj
 0001:0000a010       _CreateGraph__             0040b010 f   ParMETISLib:memory.obj
 0001:0000a050       _InitGraph__               0040b050 f   ParMETISLib:memory.obj
 0001:0000a100       _FreeGraph__               0040b100 f   ParMETISLib:memory.obj
 0001:0000a1c0       _FreeInitialGraphAndRemap__ 0040b1c0 f   ParMETISLib:memory.obj
 0001:0000a2c0       _InitTimers__              0040b2c0 f   ParMETISLib:timer.obj
 0001:0000a330       _PrintTimingInfo__         0040b330 f   ParMETISLib:timer.obj
 0001:0000a4a0       _PrintTimer__              0040b4a0 f   ParMETISLib:timer.obj
 0001:0000a570       _CommInterfaceData__       0040b570 f   ParMETISLib:comm.obj
 0001:0000a6b0       _CommChangedInterfaceData__ 0040b6b0 f   ParMETISLib:comm.obj
 0001:0000a970       _GlobalSEMax__             0040b970 f   ParMETISLib:comm.obj
 0001:0000a9a0       _GlobalSEMaxDouble__       0040b9a0 f   ParMETISLib:comm.obj
 0001:0000a9d0       _GlobalSEMin__             0040b9d0 f   ParMETISLib:comm.obj
 0001:0000aa00       _GlobalSESum__             0040ba00 f   ParMETISLib:comm.obj
 0001:0000aa30       _GlobalSEMaxFloat__        0040ba30 f   ParMETISLib:comm.obj
 0001:0000aa60       _GlobalSEMinFloat__        0040ba60 f   ParMETISLib:comm.obj
 0001:0000aa90       _GlobalSESumFloat__        0040ba90 f   ParMETISLib:comm.obj
 0001:0000aac0       _MultilevelOrder__         0040bac0 f   ParMETISLib:order.obj
 0001:0000ae40       _LabelSeparators__         0040be40 f   ParMETISLib:order.obj
 0001:0000b080       _CompactGraph__            0040c080 f   ParMETISLib:order.obj
 0001:0000b490       _LocalNDOrder__            0040c490 f   ParMETISLib:order.obj
 0001:0000b530       _Order_Partition__         0040c530 f   ParMETISLib:order.obj
 0001:0000b760       _Mc_MoveGraph__            0040c760 f   ParMETISLib:move.obj
 0001:0000bf60       _ProjectInfoBack__         0040cf60 f   ParMETISLib:move.obj
 0001:0000c200       _FindVtxPerm__             0040d200 f   ParMETISLib:move.obj
 0001:0000c370       _CheckMGraph__             0040d370 f   ParMETISLib:move.obj
 0001:0000c4a0       _ikeysort__                0040d4a0 f   ParMETISLib:ikeysort.obj
 0001:0000c6b0       _ParallelReMapGraph__      0040d6b0 f   ParMETISLib:remap.obj
 0001:0000c7e0       _ParallelTotalVReMap__     0040d7e0 f   ParMETISLib:remap.obj
 0001:0000cb20       _SimilarTpwgts__           0040db20 f   ParMETISLib:remap.obj
 0001:0000cc40       _Mc_KWayBalance__          0040dc40 f   ParMETISLib:kwaybalance.obj
 0001:0000dfe0       _SetUp__                   0040efe0 f   ParMETISLib:setup.obj
 0001:0000e890       _Mc_KWayFM__               0040f890 f   ParMETISLib:kwayfm.obj
 0001:00010950       _Mc_ProjectPartition__     00411950 f   ParMETISLib:kwayrefine.obj
 0001:00010c80       _Mc_ComputePartitionParams__ 00411c80 f   ParMETISLib:kwayrefine.obj
 0001:00011080       _Mc_GlobalMatch_Balance__  00412080 f   ParMETISLib:match.obj
 0001:00011c30       _Mc_Global_CreateCoarseGraph__ 00412c30 f   ParMETISLib:match.obj
 0001:000133b0       _Mc_InitPartition_RB__     004143b0 f   ParMETISLib:initpart.obj
 0001:00013d30       _Mc_KeepPart__             00414d30 f   ParMETISLib:initpart.obj
 0001:00013f60       _PartitionSmallGraph__     00414f60 f   ParMETISLib:weird.obj
 0001:00014440       _CheckInputs__             00415440 f   ParMETISLib:weird.obj
 0001:000148b0       _Mc_ComputeSerialBalance__ 004158b0 f   ParMETISLib:stat.obj
 0001:00014bd0       _Mc_ComputeParallelBalance__ 00415bd0 f   ParMETISLib:stat.obj
 0001:000150f0       _Mc_PrintThrottleMatrix__  004160f0 f   ParMETISLib:stat.obj
 0001:00015190       _Mc_ComputeRefineStats__   00416190 f   ParMETISLib:stat.obj
 0001:00015de0       _Coordinate_Partition__    00416de0 f   ParMETISLib:xyzpart.obj
 0001:000161c0       _PartSort__                004171c0 f   ParMETISLib:xyzpart.obj
 0001:00016820       _SetUpConnectGraph__       00417820 f   ParMETISLib:diffutil.obj
 0001:00016a40       _Mc_ComputeMoveStatistics__ 00417a40 f   ParMETISLib:diffutil.obj
 0001:00016e10       _Mc_ComputeSerialTotalV__  00417e10 f   ParMETISLib:diffutil.obj
 0001:00016e70       _ComputeLoad__             00417e70 f   ParMETISLib:diffutil.obj
 0001:000170b0       _ConjGrad2__               004180b0 f   ParMETISLib:diffutil.obj
 0001:000174a0       _mvMult2__                 004184a0 f   ParMETISLib:diffutil.obj
 0001:00017520       _ComputeTransferVector__   00418520 f   ParMETISLib:diffutil.obj
 0001:000175b0       _Mc_LocalMatch_HEM__       004185b0 f   ParMETISLib:lmatch.obj
 0001:00017b40       _Mc_Local_CreateCoarseGraph__ 00418b40 f   ParMETISLib:lmatch.obj
 0001:000186b0       _Balance_Partition__       004196b0 f   ParMETISLib:initbalance.obj
 0001:000197b0       _Mc_AssembleAdaptiveGraph__ 0041a7b0 f   ParMETISLib:initbalance.obj
 0001:00019ff0       _Mc_KWayAdaptiveRefine__   0041aff0 f   ParMETISLib:akwayfm.obj
 0001:0001c500       _InitMultisection__        0041d500 f   ParMETISLib:initmsection.obj
 0001:0001ca50       _AssembleMultisectedGraph__ 0041da50 f   ParMETISLib:initmsection.obj
 0001:0001d030       _AllocateNodePartitionParams 0041e030 f   ParMETISLib:node_refine.obj
 0001:0001d230       _ComputeNodePartitionParams__ 0041e230 f   ParMETISLib:node_refine.obj
 0001:0001d4a0       _KWayNodeRefine__          0041e4a0 f   ParMETISLib:node_refine.obj
 0001:0001df40       _PrintNodeBalanceInfo__    0041ef40 f   ParMETISLib:node_refine.obj
 0001:0001e000       _iidxsort__                0041f000 f   ParMETISLib:iidxsort.obj
 0001:0001e1a0       _ikeyvalsort__             0041f1a0 f   ParMETISLib:ikeyvalsort.obj
 0001:0001e3f0       _PrintVector__             0041f3f0 f   ParMETISLib:debug.obj
 0001:0001e4a0       _PrintVector2__            0041f4a0 f   ParMETISLib:debug.obj
 0001:0001e570       _PrintPairs__              0041f570 f   ParMETISLib:debug.obj
 0001:0001e620       _PrintGraph__              0041f620 f   ParMETISLib:debug.obj
 0001:0001e720       _PrintGraph2__             0041f720 f   ParMETISLib:debug.obj
 0001:0001e860       _PrintSetUpInfo__          0041f860 f   ParMETISLib:debug.obj
 0001:0001e9a0       _PrintTransferedGraphs__   0041f9a0 f   ParMETISLib:debug.obj
 0001:0001ebe0       _WriteMetisGraph__         0041fbe0 f   ParMETISLib:debug.obj
 0001:0001eca0       _Mc_SerialKWayAdaptRefine__ 0041fca0 f   ParMETISLib:serial.obj
 0001:0001f630       _Mc_ComputeSerialPartitionParams__ 00420630 f   ParMETISLib:serial.obj
 0001:0001f820       _AreAllHVwgtsBelow__       00420820 f   ParMETISLib:serial.obj
 0001:0001f870       _ComputeHKWayLoadImbalance__ 00420870 f   ParMETISLib:serial.obj
 0001:0001f9e0       _SerialRemap__             004209e0 f   ParMETISLib:serial.obj
 0001:0001fe30       _SSMIncKeyCmp__            00420e30 f   ParMETISLib:serial.obj
 0001:0001fe70       _Mc_Serial_FM_2WayRefine__ 00420e70 f   ParMETISLib:serial.obj
 0001:00020b90       _Serial_SelectQueue__      00421b90 f   ParMETISLib:serial.obj
 0001:00021020       _Serial_BetterBalance__    00422020 f   ParMETISLib:serial.obj
 0001:00021120       _Serial_Compute2WayHLoadImbalance__ 00422120 f   ParMETISLib:serial.obj
 0001:000212c0       _Mc_Serial_Balance2Way__   004222c0 f   ParMETISLib:serial.obj
 0001:00021f30       _Mc_Serial_Init2WayBalance__ 00422f30 f   ParMETISLib:serial.obj
 0001:00022510       _Serial_SelectQueueOneWay__ 00423510 f   ParMETISLib:serial.obj
 0001:000226a0       _Mc_Serial_Compute2WayPartitionParams__ 004236a0 f   ParMETISLib:serial.obj
 0001:00022880       _Serial_AreAnyVwgtsBelow__ 00423880 f   ParMETISLib:serial.obj
 0001:000228d0       _ComputeSerialEdgeCut__    004238d0 f   ParMETISLib:serial.obj
 0001:00022950       _ComputeSerialTotalV__     00423950 f   ParMETISLib:serial.obj
 0001:000229a0       _Mc_Diffusion__            004239a0 f   ParMETISLib:mdiffusion.obj
 0001:00023890       _ExtractGraph__            00424890 f   ParMETISLib:mdiffusion.obj
 0001:00023cb0       _WavefrontDiffusion__      00424cb0 f   ParMETISLib:wave.obj
 0001:00024660       _FPQueueInit__             00425660 f   ParMETISLib:fpqueue.obj
 0001:000246b0       _FPQueueReset__            004256b0 f   ParMETISLib:fpqueue.obj
 0001:000246d0       _FPQueueFree__             004256d0 f   ParMETISLib:fpqueue.obj
 0001:000246f0       _FPQueueGetSize__          004256f0 f   ParMETISLib:fpqueue.obj
 0001:00024700       _FPQueueInsert__           00425700 f   ParMETISLib:fpqueue.obj
 0001:00024760       _FPQueueDelete__           00425760 f   ParMETISLib:fpqueue.obj
 0001:00024870       _FPQueueUpdate__           00425870 f   ParMETISLib:fpqueue.obj
 0001:00024990       _FPQueueUpdateUp__         00425990 f   ParMETISLib:fpqueue.obj
 0001:000249f0       _FPQueueGetMax__           004259f0 f   ParMETISLib:fpqueue.obj
 0001:00024ad0       _FPQueueSeeMaxVtx__        00425ad0 f   ParMETISLib:fpqueue.obj
 0001:00024af0       _FPQueueSeeMaxGain__       00425af0 f   ParMETISLib:fpqueue.obj
 0001:00024b00       _FPQueueGetKey__           00425b00 f   ParMETISLib:fpqueue.obj
 0001:00024b30       _FPQueueGetQSize__         00425b30 f   ParMETISLib:fpqueue.obj
 0001:00024b40       _CheckHeapFloat__          00425b40 f   ParMETISLib:fpqueue.obj
 0001:00024b50       _CSR_Match_SHEM__          00425b50 f   ParMETISLib:csrmatch.obj
 0001:00024f00       _RedoMyLink__              00425f00 f   ParMETISLib:redomylink.obj
 0001:00025680       _BalanceMyLink__           00426680 f   ParMETISLib:balancemylink.obj
 0001:00026cd0       _Mc_DynamicSelectQueue__   00427cd0 f   ParMETISLib:selectq.obj
 0001:000279c0       _Mc_HashVwgts__            004289c0 f   ParMETISLib:selectq.obj
 0001:00027af0       _Mc_HashVRank__            00428af0 f   ParMETISLib:selectq.obj
 0001:00027b90       _METIS_PartGraphKway2      00428b90 f   METISLib:parmetis.obj
 0001:00027c40       _METIS_WPartGraphKway2     00428c40 f   METISLib:parmetis.obj
 0001:00027f20       _METIS_NodeNDP             00428f20 f   METISLib:parmetis.obj
 0001:00028580       ___MlevelNestedDissectionP 00429580 f   METISLib:parmetis.obj
 0001:000287e0       _METIS_NodeComputeSeparator 004297e0 f   METISLib:parmetis.obj
 0001:00028b40       _METIS_EdgeComputeSeparator 00429b40 f   METISLib:parmetis.obj
 0001:00028ee0       _METIS_mCPartGraphRecursive2 00429ee0 f   METISLib:parmetis.obj
 0001:00029740       ___MCMlevelRecursiveBisection2 0042a740 f   METISLib:parmetis.obj
 0001:00029990       _METIS_PartGraphKway       0042a990 f   METISLib:kmetis.obj
 0001:00029a40       _METIS_WPartGraphKway      0042aa40 f   METISLib:kmetis.obj
 0001:00029d50       ___MlevelKWayPartitioning  0042ad50 f   METISLib:kmetis.obj
 0001:00029ea0       _METIS_EdgeND              0042aea0 f   METISLib:ometis.obj
 0001:0002a380       _METIS_NodeND              0042b380 f   METISLib:ometis.obj
 0001:0002ab60       _METIS_NodeWND             0042bb60 f   METISLib:ometis.obj
 0001:0002b050       ___MlevelNestedDissection  0042c050 f   METISLib:ometis.obj
 0001:0002b2f0       ___MlevelNestedDissectionCC 0042c2f0 f   METISLib:ometis.obj
 0001:0002b550       ___MlevelNodeBisectionMultiple 0042c550 f   METISLib:ometis.obj
 0001:0002b740       ___MlevelNodeBisection     0042c740 f   METISLib:ometis.obj
 0001:0002b850       ___SplitGraphOrder         0042c850 f   METISLib:ometis.obj
 0001:0002bc60       ___MMDOrder                0042cc60 f   METISLib:ometis.obj
 0001:0002bd90       ___SplitGraphOrderCC       0042cd90 f   METISLib:ometis.obj
 0001:0002c110       ___Change2CNumbering       0042d110 f   METISLib:fortran.obj
 0001:0002c130       ___Change2FNumbering       0042d130 f   METISLib:fortran.obj
 0001:0002c160       ___Change2FNumbering2      0042d160 f   METISLib:fortran.obj
 0001:0002c190       ___Change2FNumberingOrder  0042d190 f   METISLib:fortran.obj
 0001:0002c1d0       ___ChangeMesh2CNumbering   0042d1d0 f   METISLib:fortran.obj
 0001:0002c1e0       ___ChangeMesh2FNumbering   0042d1e0 f   METISLib:fortran.obj
 0001:0002c220       ___ChangeMesh2FNumbering2  0042d220 f   METISLib:fortran.obj
 0001:0002c260       ___SetUpGraph              0042d260 f   METISLib:graph.obj
 0001:0002c780       ___SetUpGraphKway          0042d780 f   METISLib:graph.obj
 0001:0002c870       ___SetUpGraph2             0042d870 f   METISLib:graph.obj
 0001:0002ca60       ___VolSetUpGraph           0042da60 f   METISLib:graph.obj
 0001:0002d0a0       ___RandomizeGraph          0042e0a0 f   METISLib:graph.obj
 0001:0002d170       ___IsConnectedSubdomain    0042e170 f   METISLib:graph.obj
 0001:0002d480       ___IsConnected             0042e480 f   METISLib:graph.obj
 0001:0002d590       ___IsConnected2            0042e590 f   METISLib:graph.obj
 0001:0002d7c0       ___FindComponents          0042e7c0 f   METISLib:graph.obj
 0001:0002d940       ___InitTimers              0042e940 f   METISLib:timing.obj
 0001:0002d9a0       ___PrintTimers             0042e9a0 f   METISLib:timing.obj
 0001:0002dad0       ___seconds                 0042ead0 f   METISLib:timing.obj
 0001:0002daf0       ___errexit                 0042eaf0 f   METISLib:util.obj
 0001:0002db80       ___imalloc                 0042eb80 f   METISLib:util.obj
 0001:0002dbc0       ___idxmalloc               0042ebc0 f   METISLib:util.obj
 0001:0002dc00       ___fmalloc                 0042ec00 f   METISLib:util.obj
 0001:0002dc40       ___ismalloc                0042ec40 f   METISLib:util.obj
 0001:0002dca0       ___idxsmalloc              0042eca0 f   METISLib:util.obj
 0001:0002dd00       ___GKmalloc                0042ed00 f   METISLib:util.obj
 0001:0002dd30       ___GKfree                  0042ed30 f   METISLib:util.obj
 0001:0002dd80       ___iset                    0042ed80 f   METISLib:util.obj
 0001:0002dd90       ___idxset                  0042ed90 f   METISLib:util.obj
 0001:0002dda0       ___sset                    0042eda0 f   METISLib:util.obj
 0001:0002ddc0       ___iamax                   0042edc0 f   METISLib:util.obj
 0001:0002ddf0       ___idxamax                 0042edf0 f   METISLib:util.obj
 0001:0002de20       ___idxamax_strd            0042ee20 f   METISLib:util.obj
 0001:0002de70       ___samax                   0042ee70 f   METISLib:util.obj
 0001:0002df70       ___samax2                  0042ef70 f   METISLib:util.obj
 0001:0002e170       ___idxamin                 0042f170 f   METISLib:util.obj
 0001:0002e1a0       ___samin                   0042f1a0 f   METISLib:util.obj
 0001:0002e2a0       ___idxsum                  0042f2a0 f   METISLib:util.obj
 0001:0002e2e0       ___idxsum_strd             0042f2e0 f   METISLib:util.obj
 0001:0002e330       ___idxadd                  0042f330 f   METISLib:util.obj
 0001:0002e350       ___charsum                 0042f350 f   METISLib:util.obj
 0001:0002e3a0       ___isum                    0042f3a0 f   METISLib:util.obj
 0001:0002e3e0       ___ssum                    0042f3e0 f   METISLib:util.obj
 0001:0002e450       ___ssum_strd               0042f450 f   METISLib:util.obj
 0001:0002e4e0       ___sscale                  0042f4e0 f   METISLib:util.obj
 0001:0002e540       ___snorm2                  0042f540 f   METISLib:util.obj
 0001:0002e5d0       ___sdot                    0042f5d0 f   METISLib:util.obj
 0001:0002e680       ___saxpy                   0042f680 f   METISLib:util.obj
 0001:0002e710       ___RandomPermute           0042f710 f   METISLib:util.obj
 0001:0002e7f0       ___ispow2                  0042f7f0 f   METISLib:util.obj
 0001:0002e830       ___InitRandom              0042f830 f   METISLib:util.obj
 0001:0002e850       ___log2Int                 0042f850 f   METISLib:util.obj
 0001:0002e870       _METIS_mCPartGraphRecursive 0042f870 f   METISLib:mpmetis.obj
 0001:0002f050       _METIS_mCHPartGraphRecursive 00430050 f   METISLib:mpmetis.obj
 0001:0002f890       _METIS_mCPartGraphRecursiveInternal 00430890 f   METISLib:mpmetis.obj
 0001:0002fa50       _METIS_mCHPartGraphRecursiveInternal 00430a50 f   METISLib:mpmetis.obj
 0001:0002fc70       ___MCMlevelRecursiveBisection 00430c70 f   METISLib:mpmetis.obj
 0001:0002fe50       ___MCHMlevelRecursiveBisection 00430e50 f   METISLib:mpmetis.obj
 0001:00030390       ___MCMlevelEdgeBisection   00431390 f   METISLib:mpmetis.obj
 0001:000303c0       ___MCHMlevelEdgeBisection  004313c0 f   METISLib:mpmetis.obj
 0001:00030400       ___CompressGraph           00431400 f   METISLib:compress.obj
 0001:00030b00       ___PruneGraph              00431b00 f   METISLib:compress.obj
 0001:00031100       _METIS_PartGraphRecursive  00432100 f   METISLib:pmetis.obj
 0001:000311b0       _METIS_WPartGraphRecursive 004321b0 f   METISLib:pmetis.obj
 0001:00031770       ___MlevelRecursiveBisection 00432770 f   METISLib:pmetis.obj
 0001:000319f0       ___MlevelEdgeBisection     004329f0 f   METISLib:pmetis.obj
 0001:00031a30       ___SplitGraphPart          00432a30 f   METISLib:pmetis.obj
 0001:00031f90       ___SetUpSplitGraph         00432f90 f   METISLib:pmetis.obj
 0001:000321a0       ___AllocateWorkSpace       004331a0 f   METISLib:memory.obj
 0001:000323c0       ___FreeWorkSpace           004333c0 f   METISLib:memory.obj
 0001:000323e0       ___WspaceAvail             004333e0 f   METISLib:memory.obj
 0001:000323f0       ___idxwspacemalloc         004333f0 f   METISLib:memory.obj
 0001:00032410       ___idxwspacefree           00433410 f   METISLib:memory.obj
 0001:00032430       ___fwspacemalloc           00433430 f   METISLib:memory.obj
 0001:00032450       _fwspacefree               00433450 f   METISLib:memory.obj
 0001:00032470       ___CreateGraph             00433470 f   METISLib:memory.obj
 0001:00032500       ___InitGraph               00433500 f   METISLib:memory.obj
 0001:00032560       ___FreeGraph               00433560 f   METISLib:memory.obj
 0001:00032580       ___ConstructSeparator      00433580 f   METISLib:separator.obj
 0001:00032670       ___ConstructMinCoverSeparator0 00433670 f   METISLib:separator.obj
 0001:00032a40       ___ConstructMinCoverSeparator 00433a40 f   METISLib:separator.obj
 0001:00032df0       ___RefineKWay              00433df0 f   METISLib:kwayrefine.obj
 0001:000332a0       ___AllocateKWayPartitionMemory 004342a0 f   METISLib:kwayrefine.obj
 0001:00033340       ___ComputeKWayPartitionParams 00434340 f   METISLib:kwayrefine.obj
 0001:00033570       ___ProjectKWayPartition    00434570 f   METISLib:kwayrefine.obj
 0001:00033890       ___IsBalanced              00434890 f   METISLib:kwayrefine.obj
 0001:00033920       ___ComputeKWayBoundary     00434920 f   METISLib:kwayrefine.obj
 0001:00033980       ___ComputeKWayBalanceBoundary 00434980 f   METISLib:kwayrefine.obj
 0001:000339e0       ___Coarsen2Way             004349e0 f   METISLib:coarsen.obj
 0001:00033bd0       ___ComputePartitionInfo    00434bd0 f   METISLib:stat.obj
 0001:00034800       _ComputePartitionInfoBipartite 00435800 f   METISLib:stat.obj
 0001:00035400       ___ComputePartitionBalance 00436400 f   METISLib:stat.obj
 0001:00035590       ___ComputeElementBalance   00436590 f   METISLib:stat.obj
 0001:00035690       ___Moc_ComputePartitionBalance 00436690 f   METISLib:stat.obj
 0001:000357b0       ___Init2WayPartition       004367b0 f   METISLib:initpart.obj
 0001:00035880       ___InitSeparator           00436880 f   METISLib:initpart.obj
 0001:00035920       ___GrowBisection           00436920 f   METISLib:initpart.obj
 0001:00035d10       ___GrowBisectionNode       00436d10 f   METISLib:initpart.obj
 0001:00036160       ___RandomBisection         00437160 f   METISLib:initpart.obj
 0001:000363b0       ___genmmd                  004373b0 f   METISLib:mmd.obj
 0001:00036600       ___mmdelm                  00437600 f   METISLib:mmd.obj
 0001:00036860       ___mmdint                  00437860 f   METISLib:mmd.obj
 0001:00036910       ___mmdnum                  00437910 f   METISLib:mmd.obj
 0001:000369e0       ___mmdupd                  004379e0 f   METISLib:mmd.obj
 0001:00036da0       ___Refine2WayNode          00437da0 f   METISLib:srefine.obj
 0001:00036f70       ___Allocate2WayNodePartitionMemory 00437f70 f   METISLib:srefine.obj
 0001:00037000       ___Compute2WayNodePartitionParams 00438000 f   METISLib:srefine.obj
 0001:00037140       ___Project2WayNodePartition 00438140 f   METISLib:srefine.obj
 0001:000371b0       ___Refine2Way              004381b0 f   METISLib:refine.obj
 0001:000372f0       ___Allocate2WayPartitionMemory 004382f0 f   METISLib:refine.obj
 0001:00037370       ___Compute2WayPartitionParams 00438370 f   METISLib:refine.obj
 0001:00037510       ___Project2WayPartition    00438510 f   METISLib:refine.obj
 0001:00037750       ___MCCoarsen2Way           00438750 f   METISLib:mcoarsen.obj
 0001:00037a50       ___MocInit2WayPartition2   00438a50 f   METISLib:minitpart2.obj
 0001:00037b30       ___MocGrowBisection2       00438b30 f   METISLib:minitpart2.obj
 0001:00037cd0       ___MocGrowBisectionNew2    00438cd0 f   METISLib:minitpart2.obj
 0001:00037e50       ___MocInit2WayBalance2     00438e50 f   METISLib:minitpart2.obj
 0001:00038700       ___SelectQueueOneWay2      00439700 f   METISLib:minitpart2.obj
 0001:00038a60       ___MocRefine2Way2          00439a60 f   METISLib:mrefine2.obj
 0001:00038ba0       ___MocRefine2Way           00439ba0 f   METISLib:mrefine.obj
 0001:00038dd0       ___MocAllocate2WayPartitionMemory 00439dd0 f   METISLib:mrefine.obj
 0001:00038e90       ___MocCompute2WayPartitionParams 00439e90 f   METISLib:mrefine.obj
 0001:00039070       ___MocProject2WayPartition 0043a070 f   METISLib:mrefine.obj
 0001:000392b0       ___MocInit2WayPartition    0043a2b0 f   METISLib:minitpart.obj
 0001:00039390       ___MocGrowBisection        0043a390 f   METISLib:minitpart.obj
 0001:00039560       ___MocRandomBisection      0043a560 f   METISLib:minitpart.obj
 0001:000397f0       ___MocInit2WayBalance      0043a7f0 f   METISLib:minitpart.obj
 0001:00039fb0       _SelectQueueOneWay         0043afb0 f   METISLib:minitpart.obj
 0001:0003a100       ___iidxsort                0043b100 f   METISLib:myqsort.obj
 0001:0003a2b0       ___iintsort                0043b2b0 f   METISLib:myqsort.obj
 0001:0003a460       ___ikeysort                0043b460 f   METISLib:myqsort.obj
 0001:0003a680       ___ikeyvalsort             0043b680 f   METISLib:myqsort.obj
 0001:0003a8e0       ___MinCover                0043b8e0 f   METISLib:mincover.obj
 0001:0003ac70       ___MinCover_Augment        0043bc70 f   METISLib:mincover.obj
 0001:0003ad20       ___MinCover_Decompose      0043bd20 f   METISLib:mincover.obj
 0001:0003af90       ___MinCover_ColDFS         0043bf90 f   METISLib:mincover.obj
 0001:0003b010       ___MinCover_RowDFS         0043c010 f   METISLib:mincover.obj
 0001:0003b090       ___FM_2WayNodeRefine       0043c090 f   METISLib:sfm.obj
 0001:0003bbc0       _FM_2WayNodeRefine2        0043cbc0 f   METISLib:sfm.obj
 0001:0003c6e0       ___FM_2WayNodeRefineEqWgt  0043d6e0 f   METISLib:sfm.obj
 0001:0003d180       ___FM_2WayNodeRefine_OneSided 0043e180 f   METISLib:sfm.obj
 0001:0003d9f0       ___FM_2WayNodeBalance      0043e9f0 f   METISLib:sfm.obj
 0001:0003de90       ___ComputeMaxNodeGain      0043ee90 f   METISLib:sfm.obj
 0001:0003df80       ___Random_KWayEdgeRefineMConn 0043ef80 f   METISLib:subdomains.obj
 0001:0003eb00       ___Greedy_KWayEdgeBalanceMConn 0043fb00 f   METISLib:subdomains.obj
 0001:0003f810       ___PrintSubDomainGraph     00440810 f   METISLib:subdomains.obj
 0001:0003f980       ___ComputeSubDomainGraph   00440980 f   METISLib:subdomains.obj
 0001:0003fa60       ___EliminateSubDomainEdges 00440a60 f   METISLib:subdomains.obj
 0001:00040040       ___MoveGroupMConn          00441040 f   METISLib:subdomains.obj
 0001:00040450       ___EliminateComponents     00441450 f   METISLib:subdomains.obj
 0001:00040960       ___MoveGroup               00441960 f   METISLib:subdomains.obj
 0001:00040c90       ___Random_KWayEdgeRefine   00441c90 f   METISLib:kwayfm.obj
 0001:000414a0       ___Greedy_KWayEdgeRefine   004424a0 f   METISLib:kwayfm.obj
 0001:00041e70       ___Greedy_KWayEdgeBalance  00442e70 f   METISLib:kwayfm.obj
 0001:00042820       ___Match_RM                00443820 f   METISLib:match.obj
 0001:000429a0       ___Match_RM_NVW            004439a0 f   METISLib:match.obj
 0001:00042b00       ___Match_HEM               00443b00 f   METISLib:match.obj
 0001:00042ce0       ___Match_SHEM              00443ce0 f   METISLib:match.obj
 0001:00042fd0       ___ComputeCut              00443fd0 f   METISLib:debug.obj
 0001:000430f0       ___CheckBnd                004440f0 f   METISLib:debug.obj
 0001:00043150       ___CheckBnd2               00444150 f   METISLib:debug.obj
 0001:00043160       ___CheckNodeBnd            00444160 f   METISLib:debug.obj
 0001:00043170       ___CheckRInfo              00444170 f   METISLib:debug.obj
 0001:00043180       ___CheckNodePartitionParams 00444180 f   METISLib:debug.obj
 0001:000432c0       ___IsSeparable             004442c0 f   METISLib:debug.obj
 0001:000432d0       ___Random_KWayVolRefine    004442d0 f   METISLib:kwayvolfm.obj
 0001:00043a50       ___Random_KWayVolRefineMConn 00444a50 f   METISLib:kwayvolfm.obj
 0001:000445f0       ___Greedy_KWayVolBalance   004455f0 f   METISLib:kwayvolfm.obj
 0001:00044e20       ___Greedy_KWayVolBalanceMConn 00445e20 f   METISLib:kwayvolfm.obj
 0001:00045a60       ___KWayVolUpdate           00446a60 f   METISLib:kwayvolfm.obj
 0001:00046270       ___ComputeKWayVolume       00447270 f   METISLib:kwayvolfm.obj
 0001:000464b0       ___ComputeVolume           004474b0 f   METISLib:kwayvolfm.obj
 0001:000465e0       ___CheckVolKWayPartitionParams 004475e0 f   METISLib:kwayvolfm.obj
 0001:00046910       ___ComputeVolSubDomainGraph 00447910 f   METISLib:kwayvolfm.obj
 0001:000469e0       ___EliminateVolSubDomainEdges 004479e0 f   METISLib:kwayvolfm.obj
 0001:00047280       _EliminateVolComponents    00448280 f   METISLib:kwayvolfm.obj
 0001:00047880       ___Balance2Way             00448880 f   METISLib:balance.obj
 0001:00047930       ___Bnd2WayBalance          00448930 f   METISLib:balance.obj
 0001:00047e50       ___General2WayBalance      00448e50 f   METISLib:balance.obj
 0001:00048300       ___FM_2WayEdgeRefine       00449300 f   METISLib:fm.obj
 0001:00048cc0       ___MCMatch_RM              00449cc0 f   METISLib:mmatch.obj
 0001:00048ea0       ___MCMatch_HEM             00449ea0 f   METISLib:mmatch.obj
 0001:000490b0       ___MCMatch_SHEM            0044a0b0 f   METISLib:mmatch.obj
 0001:000493e0       ___MCMatch_SHEBM           0044a3e0 f   METISLib:mmatch.obj
 0001:00049770       ___MCMatch_SBHEM           0044a770 f   METISLib:mmatch.obj
 0001:00049b20       ___BetterVBalance          0044ab20 f   METISLib:mmatch.obj
 0001:00049f00       ___AreAllVwgtsBelowFast    0044af00 f   METISLib:mmatch.obj
 0001:00049f40       ___PQueueInit              0044af40 f   METISLib:pqueue.obj
 0001:0004a130       ___PQueueReset             0044b130 f   METISLib:pqueue.obj
 0001:0004a190       ___PQueueFree              0044b190 f   METISLib:pqueue.obj
 0001:0004a260       _PQueueGetSize             0044b260 f   METISLib:pqueue.obj
 0001:0004a270       ___PQueueInsert            0044b270 f   METISLib:pqueue.obj
 0001:0004a300       ___PQueueDelete            0044b300 f   METISLib:pqueue.obj
 0001:0004a470       ___PQueueUpdate            0044b470 f   METISLib:pqueue.obj
 0001:0004a580       ___PQueueUpdateUp          0044b580 f   METISLib:pqueue.obj
 0001:0004a630       ___PQueueGetMax            0044b630 f   METISLib:pqueue.obj
 0001:0004a750       ___PQueueSeeMax            0044b750 f   METISLib:pqueue.obj
 0001:0004a780       _PQueueGetKey              0044b780 f   METISLib:pqueue.obj
 0001:0004a7a0       ___CheckHeap               0044b7a0 f   METISLib:pqueue.obj
 0001:0004a7b0       ___MocFM_2WayEdgeRefine2   0044b7b0 f   METISLib:mfm2.obj
 0001:0004b850       ___SelectQueue2            0044c850 f   METISLib:mfm2.obj
 0001:0004bc60       ___IsBetter2wayBalance     0044cc60 f   METISLib:mfm2.obj
 0001:0004bef0       ___AreAllVwgtsBelow        0044cef0 f   METISLib:mutil.obj
 0001:0004bf40       ___AreAnyVwgtsBelow        0044cf40 f   METISLib:mutil.obj
 0001:0004bf90       ___AreAllVwgtsAbove        0044cf90 f   METISLib:mutil.obj
 0001:0004bfe0       ___ComputeLoadImbalance    0044cfe0 f   METISLib:mutil.obj
 0001:0004c060       ___AreAllBelow             0044d060 f   METISLib:mutil.obj
 0001:0004c0a0       ___MocBalance2Way2         0044d0a0 f   METISLib:mbalance2.obj
 0001:0004c110       ___MocGeneral2WayBalance2  0044d110 f   METISLib:mbalance2.obj
 0001:0004cf60       ___SelectQueue3            0044df60 f   METISLib:mbalance2.obj
 0001:0004d380       ___MocFM_2WayEdgeRefine    0044e380 f   METISLib:mfm.obj
 0001:0004e110       ___SelectQueue             0044f110 f   METISLib:mfm.obj
 0001:0004e450       ___BetterBalance           0044f450 f   METISLib:mfm.obj
 0001:0004e510       ___Compute2WayHLoadImbalance 0044f510 f   METISLib:mfm.obj
 0001:0004e640       ___Compute2WayHLoadImbalanceVec 0044f640 f   METISLib:mfm.obj
 0001:0004e6f0       ___MocBalance2Way          0044f6f0 f   METISLib:mbalance.obj
 0001:0004e730       ___MocGeneral2WayBalance   0044f730 f   METISLib:mbalance.obj
 0001:0004f440       ___BucketSortKeysInc       00450440 f   METISLib:bucketsort.obj
 0001:0004f520       ___CreateCoarseGraph       00450520 f   METISLib:ccgraph.obj
 0001:0004fa70       ___CreateCoarseGraphNoMask 00450a70 f   METISLib:ccgraph.obj
 0001:0004ff40       ___CreateCoarseGraph_NVW   00450f40 f   METISLib:ccgraph.obj
 0001:000502d0       ___SetUpCoarseGraph        004512d0 f   METISLib:ccgraph.obj
 0001:00050560       ___ReAdjustMemory          00451560 f   METISLib:ccgraph.obj
 0001:000506f8       _DSPTRF                    004516f8 f   lap.obj
 0001:00051dbe       _DSPTRI                    00452dbe f   lap.obj
 0001:000530ac       _XERBLA                    004540ac f   lap.obj
 0001:0005315e       _DSPMV                     0045415e f   lap.obj
 0001:00053bae       _DSWAP                     00454bae f   lap.obj
 0001:00053e48       _DSPR                      00454e48 f   lap.obj
 0001:000543aa       _DSCAL                     004553aa f   lap.obj
 0001:000545ec       _LSAME                     004555ec f   lap.obj
 0001:0005479e       _IDAMAX                    0045579e f   lap.obj
 0001:0005493e       _DCOPY                     0045593e f   lap.obj
 0001:00054c32       _DDOT                      00455c32 f   lap.obj
 0001:00054f60       _FUNMAXMODULE.             00455f60 f   funMaxModule.obj
 0001:00054f66       _FUNMAXMODULE_mp_MAX2I     00455f66 f   funMaxModule.obj
 0001:00054f98       _ELFE_GLBL.                00455f98 f   elfe_glbl.obj
 0001:00054f9e       _ELFE_GLBL_mp_RELEASE_GL   00455f9e f   elfe_glbl.obj
 0001:0005506c       _ELFE_GLBL_mp_RELEASE_LLIST 0045606c f   elfe_glbl.obj
 0001:000550cc       _DATA_TYPE_MOD.            004560cc f   data_type_mod.obj
 0001:000550d4       _ELFE_MSGP.                004560d4 f   elfe_msgp.obj
 0001:000550da       _ELFE_MSGP_mp_PARALLEL_FINALIZE 004560da f   elfe_msgp.obj
 0001:00055112       _ELFE_MSGP_mp_PARALLEL_ABORT 00456112 f   elfe_msgp.obj
 0001:0005568c       _ELFE_MSGP_mp_PARALLEL_BARRIER 0045668c f   elfe_msgp.obj
 0001:000556d0       _ELFE_MSGP_mp_PARALLEL_RRSYNC 004566d0 f   elfe_msgp.obj
 0001:00055c6e       _ELFE_MSGP_mp_MSGP_TABLES  00456c6e f   elfe_msgp.obj
 0001:0005da1e       _ELFE_MSGP_mp_MSGP_INIT    0045ea1e f   elfe_msgp.obj
 0001:00070934       _ELFE_MSGP_mp_EXCHANGE_E2D 00471934 f   elfe_msgp.obj
 0001:00070dfe       _ELFE_MSGP_mp_EXCHANGE_E3DW 00471dfe f   elfe_msgp.obj
 0001:000714e4       _ELFE_MSGP_mp_EXCHANGE_P2D 004724e4 f   elfe_msgp.obj
 0001:00071a32       _ELFE_MSGP_mp_EXCHANGE_P3DW 00472a32 f   elfe_msgp.obj
 0001:0007219c       _ELFE_MSGP_mp_EXCHANGE_P2DI 0047319c f   elfe_msgp.obj
 0001:000726d4       _ELFE_MSGP_mp_EXCHANGE_S2D 004736d4 f   elfe_msgp.obj
 0001:00072c22       _ELFE_MSGP_mp_EXCHANGE_S2D_9 00473c22 f   elfe_msgp.obj
 0001:0007338c       _ELFE_MSGP_mp_EXCHANGE_S2DI 0047438c f   elfe_msgp.obj
 0001:000738c4       _ELFE_MSGP_mp_EXCHANGE_S3DW 004748c4 f   elfe_msgp.obj
 0001:0007402e       _ELFE_MSGP_mp_EXCHANGE_S3D_5 0047502e f   elfe_msgp.obj
 0001:00074a16       _ELFE_MSGP_mp_EXCHANGE_S3D_4 00475a16 f   elfe_msgp.obj
 0001:000753fe       _ELFE_MSGP_mp_EXCHANGE_S3D_2 004763fe f   elfe_msgp.obj
 0001:00075de6       _ELFE_MSGP_mp_EXCHANGE_S3D_TR2 00476de6 f   elfe_msgp.obj
 0001:000767d8       _ELFE_MSGP_mp_EXCHANGE_P3D_2 004777d8 f   elfe_msgp.obj
 0001:000771c0       _ELFE_MSGP_mp_EXCHANGE_P3D_3 004781c0 f   elfe_msgp.obj
 0001:00077ba8       _ELFE_MSGP_mp_EXCHANGE_P3D_4 00478ba8 f   elfe_msgp.obj
 0001:00078590       _ELFE_MSGP_mp_EXCHANGE_P3D_TR 00479590 f   elfe_msgp.obj
 0001:00078f82       _ELFE_MSGP_mp_EXCHANGE_E3D_TR 00479f82 f   elfe_msgp.obj
 0001:000798ec       _ELFE_MSGP_mp_EXCHANGE_E3D_TR2 0047a8ec f   elfe_msgp.obj
 0001:0007a260       _ELFE_MSGP_mp_EXCHANGE_E3D_2 0047b260 f   elfe_msgp.obj
 0001:0007abcc       _SURF_FLUXES               0047bbcc f   sflux_9c.obj
 0001:0007c176       _TURB_FLUXES               0047d176 f   sflux_9c.obj
 0001:0007f2b0       _ESAT_FLAT_R               004802b0 f   sflux_9c.obj
 0001:0007f3a6       _PSI_M                     004803a6 f   sflux_9c.obj
 0001:0007f4d4       _PSI_H                     004804d4 f   sflux_9c.obj
 0001:0007f57a       _ROTATE_WINDS              0048057a f   sflux_9c.obj
 0001:0007fba8       _CHECK_ALLOCATION          00480ba8 f   sflux_9c.obj
 0001:0007fcc4       _NETCDF_IO.                00480cc4 f   sflux_9c.obj
 0001:0007fcca       _GET_WIND                  00480cca f   sflux_9c.obj
 0001:00081402       _GET_RAD                   00482402 f   sflux_9c.obj
 0001:0008269e       _GET_PRECIP_FLUX           0048369e f   sflux_9c.obj
 0001:000836bc       _GET_DATASET_INFO          004846bc f   sflux_9c.obj
 0001:00084c96       _CHAR_NUM                  00485c96 f   sflux_9c.obj
 0001:00084e0c       _GET_FILE_NAME             00485e0c f   sflux_9c.obj
 0001:00084f00       _CHECK_ERR                 00485f00 f   sflux_9c.obj
 0001:00084f4e       _JD                        00485f4e f   sflux_9c.obj
 0001:000850aa       _GET_TIMES_ETC             004860aa f   sflux_9c.obj
 0001:00085792       _GET_FILE_TIMES            00486792 f   sflux_9c.obj
 0001:00085d1e       _CHECK_TIMES               00486d1e f   sflux_9c.obj
 0001:00085df6       _GET_DIMS                  00486df6 f   sflux_9c.obj
 0001:00085f42       _HALT_ERROR                00486f42 f   sflux_9c.obj
 0001:00085f74       _READ_COORD                00486f74 f   sflux_9c.obj
 0001:0008617a       _READ_DATA                 0048717a f   sflux_9c.obj
 0001:000863d0       _LIST_NODES                004873d0 f   sflux_9c.obj
 0001:000864c6       _LIST_ELEMS                004874c6 f   sflux_9c.obj
 0001:0008671c       _GET_WEIGHT                0048771c f   sflux_9c.obj
 0001:00087a52       _FIX_COORDS                00488a52 f   sflux_9c.obj
 0001:00087cac       _GET_SFLUX_INPUTS          00488cac f   sflux_9c.obj
 0001:000883dc       _GET_BRACKET               004893dc f   sflux_9c.obj
 0001:000884a6       _GET_SFLUX_DATA            004894a6 f   sflux_9c.obj
 0001:00088c84       _INTERP_TIME               00489c84 f   sflux_9c.obj
 0001:00089004       _INTERP_GRID               0048a004 f   sflux_9c.obj
 0001:000892cc       _COMBINE_SFLUX_DATA        0048a2cc f   sflux_9c.obj
 0001:00089860       _CHECK_ERROR_MOD.          0048a860 f   check_error.obj
 0001:00089866       _CHECK_ERROR_MOD_mp_CHECK_ERROR 0048a866 f   check_error.obj
 0001:0008994e       _CHECK_ERROR_MOD_mp_CHECK_RESULTS 0048a94e f   check_error.obj
 0001:00089ca4       _NSF_CONTAINER_MOD.        0048aca4 f   nsf_container.obj
 0001:00089caa       _NSF_CONTAINER_MOD_mp_INIT_NSF_CONTAINER 0048acaa f   nsf_container.obj
 0001:0008a36e       _NSF_CONTAINER_MOD_mp_NFS_CREATE_FILE 0048b36e f   nsf_container.obj
 0001:0008a628       _NSF_CONTAINER_MOD_mp_NFS_CLOSE_FILE 0048b628 f   nsf_container.obj
 0001:0008a7fe       _NSF_CONTAINER_MOD_mp_NFS_OPEN_FILE 0048b7fe f   nsf_container.obj
 0001:0008af10       _NSF_CONTAINER_MOD_mp_NFS_CREATE_VARIABLE 0048bf10 f   nsf_container.obj
 0001:0008b062       _NSF_CONTAINER_MOD_mp_NSF_SET_ATTRIBUTE_NETCDF 0048c062 f   nsf_container.obj
 0001:0008b494       _NSF_CONTAINER_MOD_mp_NSF_SET_ATTRIBUTE_CHAR 0048c494 f   nsf_container.obj
 0001:0008b53c       _NSF_CONTAINER_MOD_mp_NSF_SET_ATTRIBUTE_INT2 0048c53c f   nsf_container.obj
 0001:0008b55e       _NSF_CONTAINER_MOD_mp_NSF_SET_ATTRIBUTE_INT4 0048c55e f   nsf_container.obj
 0001:0008b57e       _NSF_CONTAINER_MOD_mp_NSF_SET_ATTRIBUTE_REAL4 0048c57e f   nsf_container.obj
 0001:0008b5a2       _NSF_CONTAINER_MOD_mp_NSF_SET_ATTRIBUTE_REAL8 0048c5a2 f   nsf_container.obj
 0001:0008b5c6       _NSF_CONTAINER_MOD_mp_NSF_GET_ATTRIBUTE_NETCDF 0048c5c6 f   nsf_container.obj
 0001:0008ba86       _NSF_CONTAINER_MOD_mp_NSF_GET_VAR_ID 0048ca86 f   nsf_container.obj
 0001:0008bbda       _NSF_CONTAINER_MOD_mp_NSF_GET_ATTRIBUTE_CHAR 0048cbda f   nsf_container.obj
 0001:0008bc26       _NSF_CONTAINER_MOD_mp_NSF_GET_ATTRIBUTE_INT2 0048cc26 f   nsf_container.obj
 0001:0008bc3c       _NSF_CONTAINER_MOD_mp_NSF_GET_ATTRIBUTE_INT4 0048cc3c f   nsf_container.obj
 0001:0008bc50       _NSF_CONTAINER_MOD_mp_NSF_GET_ATTRIBUTE_REAL4 0048cc50 f   nsf_container.obj
 0001:0008bc68       _NSF_CONTAINER_MOD_mp_NSF_GET_ATTRIBUTE_REAL8 0048cc68 f   nsf_container.obj
 0001:0008bc80       _NSF_SELF_VARS_MOD.        0048cc80 f   nsf_self_vars.obj
 0001:0008bc86       _NSF_SELF_VARS_MOD_mp_NFS_SELF_CREATE_FILE 0048cc86 f   nsf_self_vars.obj
 0001:0008be16       _NSF_SELF_VARS_MOD_mp_GET_NFS_SELF_VARS_ID 0048ce16 f   nsf_self_vars.obj
 0001:0008bf38       _NSF_SELF_VARS_MOD_mp_NSF_SELFE_NECTCDF_OUT_INIT 0048cf38 f   nsf_self_vars.obj
 0001:0008d21c       _NSF_SELF_VARS_MOD_mp_NSF_SELFE_NECTCDF_OUT_FREE 0048e21c f   nsf_self_vars.obj
 0001:0008d5aa       _NSF_SELF_VARS_MOD_mp_NFS_COLLECT_RDATA_2D 0048e5aa f   nsf_self_vars.obj
 0001:0008d904       _NSF_SELF_VARS_MOD_mp_NFS_COLLECT_RDATA_3D 0048e904 f   nsf_self_vars.obj
 0001:0008df6e       _NSF_SELF_VARS_MOD_mp_NFS_SELF_SET_GLOBAL_ATTS 0048ef6e f   nsf_self_vars.obj
 0001:0008e6da       _NSF_SELF_VARS_MOD_mp_NFS_SELF_SET_DIMS 0048f6da f   nsf_self_vars.obj
 0001:0008ec54       _NSF_SELF_VARS_MOD_mp_NFS_SELF_SET_VARS 0048fc54 f   nsf_self_vars.obj
 0001:0009c9a8       _NSF_SELF_VARS_MOD_mp_NFS_SELF_EST_NVARS 0049d9a8 f   nsf_self_vars.obj
 0001:0009ca6e       _NSF_SELF_VARS_MOD_mp_NSF_SELFE_OUT_GRID 0049da6e f   nsf_self_vars.obj
 0001:0009f990       _NSF_SELF_VARS_MOD_mp_NSF_SELFE_IN_GRID 004a0990 f   nsf_self_vars.obj
 0001:000a0d70       _NSF_SELF_VARS_MOD_mp_NSF_SELFE_ACQUIRE_DIMS 004a1d70 f   nsf_self_vars.obj
 0001:000a101e       _NSF_SELF_VARS_MOD_mp_NSF_SELF_NETCDF_TIME_DATA_IN_1D 004a201e f   nsf_self_vars.obj
 0001:000a124c       _NSF_SELF_VARS_MOD_mp_NSF_SELF_NETCDF_TIME_TIME 004a224c f   nsf_self_vars.obj
 0001:000a1466       _NSF_SELF_VARS_MOD_mp_NSF_SELF_NETCDF_TIME_DATA_IN_2D 004a2466 f   nsf_self_vars.obj
 0001:000a172c       _NSF_SELF_VARS_MOD_mp_NSF_SELF_NETCDF_TIME_DATA_IN_3D 004a272c f   nsf_self_vars.obj
 0001:000a1aa8       _GET_PARAM                 004a2aa8 f   read_param.obj
 0001:000a24e0       _MAIN__                    004a34e0 f   elfe_main.obj
 0001:00127f24       _JET_MODEL                 00528f24 f   jet.obj
 0001:0012aa06       _AMBIENT                   0052ba06 f   jet.obj
 0001:0012b8f8       _SOLVE_JCG                 0052c8f8 f   solver_subs.obj
 0001:0012d15c       _SOLVE_JCG_QNON            0052e15c f   solver_subs.obj
 0001:00130330       _TRIDAG                    00531330 f   solver_subs.obj
 0001:00130704       _INIT_INTER_BTRACK         00531704 f   bktrk_subs.obj
 0001:00130908       _INTER_BTRACK              00531908 f   bktrk_subs.obj
 0001:00136034       _BTRACK                    00537034 f   bktrk_subs.obj
 0001:0013ee0e       _QUICKSEARCH               0053fe0e f   bktrk_subs.obj
 0001:001428f4       _INTERSECT2                005438f4 f   bktrk_subs.obj
 0001:00142b1c       _AREA_COORD                00543b1c f   bktrk_subs.obj
 0001:00142e18       _LINDEX                    00543e18 f   grid_subs.obj
 0001:00142e80       _SUMS                      00543e80 f   grid_subs.obj
 0001:00142fd0       _SIGNA                     00543fd0 f   grid_subs.obj
 0001:00143040       _CPP                       00544040 f   grid_subs.obj
 0001:001430a8       _DUMP_HGRID                005440a8 f   grid_subs.obj
 0001:001473ec       _PARTITION_HGRID           005483ec f   grid_subs.obj
 0001:0014aadc       _AQUIRE_VGRID              0054badc f   grid_subs.obj
 0001:0014c700       _AQUIRE_HGRID              0054d700 f   grid_subs.obj
 0001:00161424       _LEVELS0                   00562424 f   misc_subs.obj
 0001:00166dca       _NODALVEL                  00567dca f   misc_subs.obj
 0001:0016a2d6       _VINTER                    0056b2d6 f   misc_subs.obj
 0001:0016a956       _EQSTATE                   0056b956 f   misc_subs.obj
 0001:0016afc6       _ASM                       0056bfc6 f   misc_subs.obj
 0001:0016b886       _RINT_LAG                  0056c886 f   misc_subs.obj
 0001:0016d256       _LINDEX_S                  0056e256 f   misc_subs.obj
 0001:0016d2cc       _COVAR                     0056e2cc f   misc_subs.obj
 0001:0016d53e       _EVAL_CUBIC_SPLINE         0056e53e f   misc_subs.obj
 0001:0016d9fc       _CUBIC_SPLINE              0056e9fc f   misc_subs.obj
 0001:0016e23e       _DO_CUBIC_SPLINE           0056f23e f   misc_subs.obj
 0001:0016e356       _MEAN_DENSITY              0056f356 f   misc_subs.obj
 0001:00170c10       _KRONECKER                 00571c10 f   misc_subs.obj
 0001:00170c38       _HGRAD_NODES               00571c38 f   misc_subs.obj
 0001:00175e2c       _DO_TRANSPORT_TVD          00576e2c f   transport.obj
 0001:00184706       _FLUX_LIM                  00585706 f   transport.obj
 0001:00184978       _WRITE_HEADER1             00585978 f   io_subs.obj
 0001:00186f22       _WRITE_HEADER0             00587f22 f   io_subs.obj
 0001:00188bea       _WRITE_OBE                 00589bea f   io_subs.obj
 0001:0018979c       _REPORT_TIMERS             0058a79c f   io_subs.obj
 0001:0018b444       _pmpi_send__               0058c444 f   msmpifec:mpif.obj
 0001:0018b444       _mpi_send                  0058c444 f   msmpifec:mpif.obj
 0001:0018b444       _mpi_send_                 0058c444 f   msmpifec:mpif.obj
 0001:0018b444       _PMPI_SEND                 0058c444 f   msmpifec:mpif.obj
 0001:0018b444       _pmpi_send_                0058c444 f   msmpifec:mpif.obj
 0001:0018b444       _MPI_SEND                  0058c444 f   msmpifec:mpif.obj
 0001:0018b444       _pmpi_send                 0058c444 f   msmpifec:mpif.obj
 0001:0018b444       _mpi_send__                0058c444 f   msmpifec:mpif.obj
 0001:0018b471       _pmpi_recv                 0058c471 f   msmpifec:mpif.obj
 0001:0018b471       _mpi_recv__                0058c471 f   msmpifec:mpif.obj
 0001:0018b471       _pmpi_recv_                0058c471 f   msmpifec:mpif.obj
 0001:0018b471       _pmpi_recv__               0058c471 f   msmpifec:mpif.obj
 0001:0018b471       _PMPI_RECV                 0058c471 f   msmpifec:mpif.obj
 0001:0018b471       _mpi_recv_                 0058c471 f   msmpifec:mpif.obj
 0001:0018b471       _mpi_recv                  0058c471 f   msmpifec:mpif.obj
 0001:0018b471       _MPI_RECV                  0058c471 f   msmpifec:mpif.obj
 0001:0018b4c4       _pmpi_get_count__          0058c4c4 f   msmpifec:mpif.obj
 0001:0018b4c4       _mpi_get_count_            0058c4c4 f   msmpifec:mpif.obj
 0001:0018b4c4       _pmpi_get_count            0058c4c4 f   msmpifec:mpif.obj
 0001:0018b4c4       _pmpi_get_count_           0058c4c4 f   msmpifec:mpif.obj
 0001:0018b4c4       _PMPI_GET_COUNT            0058c4c4 f   msmpifec:mpif.obj
 0001:0018b4c4       _MPI_GET_COUNT             0058c4c4 f   msmpifec:mpif.obj
 0001:0018b4c4       _mpi_get_count             0058c4c4 f   msmpifec:mpif.obj
 0001:0018b4c4       _mpi_get_count__           0058c4c4 f   msmpifec:mpif.obj
 0001:0018b4e0       _mpi_bsend__               0058c4e0 f   msmpifec:mpif.obj
 0001:0018b4e0       _pmpi_bsend_               0058c4e0 f   msmpifec:mpif.obj
 0001:0018b4e0       _mpi_bsend_                0058c4e0 f   msmpifec:mpif.obj
 0001:0018b4e0       _MPI_BSEND                 0058c4e0 f   msmpifec:mpif.obj
 0001:0018b4e0       _pmpi_bsend                0058c4e0 f   msmpifec:mpif.obj
 0001:0018b4e0       _PMPI_BSEND                0058c4e0 f   msmpifec:mpif.obj
 0001:0018b4e0       _mpi_bsend                 0058c4e0 f   msmpifec:mpif.obj
 0001:0018b4e0       _pmpi_bsend__              0058c4e0 f   msmpifec:mpif.obj
 0001:0018b50d       _pmpi_ssend__              0058c50d f   msmpifec:mpif.obj
 0001:0018b50d       _mpi_ssend                 0058c50d f   msmpifec:mpif.obj
 0001:0018b50d       _MPI_SSEND                 0058c50d f   msmpifec:mpif.obj
 0001:0018b50d       _PMPI_SSEND                0058c50d f   msmpifec:mpif.obj
 0001:0018b50d       _mpi_ssend_                0058c50d f   msmpifec:mpif.obj
 0001:0018b50d       _pmpi_ssend_               0058c50d f   msmpifec:mpif.obj
 0001:0018b50d       _pmpi_ssend                0058c50d f   msmpifec:mpif.obj
 0001:0018b50d       _mpi_ssend__               0058c50d f   msmpifec:mpif.obj
 0001:0018b53a       _mpi_rsend__               0058c53a f   msmpifec:mpif.obj
 0001:0018b53a       _pmpi_rsend                0058c53a f   msmpifec:mpif.obj
 0001:0018b53a       _PMPI_RSEND                0058c53a f   msmpifec:mpif.obj
 0001:0018b53a       _mpi_rsend                 0058c53a f   msmpifec:mpif.obj
 0001:0018b53a       _mpi_rsend_                0058c53a f   msmpifec:mpif.obj
 0001:0018b53a       _pmpi_rsend__              0058c53a f   msmpifec:mpif.obj
 0001:0018b53a       _MPI_RSEND                 0058c53a f   msmpifec:mpif.obj
 0001:0018b53a       _pmpi_rsend_               0058c53a f   msmpifec:mpif.obj
 0001:0018b567       _mpi_buffer_attach         0058c567 f   msmpifec:mpif.obj
 0001:0018b567       _MPI_BUFFER_ATTACH         0058c567 f   msmpifec:mpif.obj
 0001:0018b567       _mpi_buffer_attach__       0058c567 f   msmpifec:mpif.obj
 0001:0018b567       _pmpi_buffer_attach__      0058c567 f   msmpifec:mpif.obj
 0001:0018b567       _pmpi_buffer_attach_       0058c567 f   msmpifec:mpif.obj
 0001:0018b567       _pmpi_buffer_attach        0058c567 f   msmpifec:mpif.obj
 0001:0018b567       _PMPI_BUFFER_ATTACH        0058c567 f   msmpifec:mpif.obj
 0001:0018b567       _mpi_buffer_attach_        0058c567 f   msmpifec:mpif.obj
 0001:0018b580       _pmpi_buffer_detach        0058c580 f   msmpifec:mpif.obj
 0001:0018b580       _PMPI_BUFFER_DETACH        0058c580 f   msmpifec:mpif.obj
 0001:0018b580       _MPI_BUFFER_DETACH         0058c580 f   msmpifec:mpif.obj
 0001:0018b580       _pmpi_buffer_detach__      0058c580 f   msmpifec:mpif.obj
 0001:0018b580       _mpi_buffer_detach__       0058c580 f   msmpifec:mpif.obj
 0001:0018b580       _mpi_buffer_detach         0058c580 f   msmpifec:mpif.obj
 0001:0018b580       _mpi_buffer_detach_        0058c580 f   msmpifec:mpif.obj
 0001:0018b580       _pmpi_buffer_detach_       0058c580 f   msmpifec:mpif.obj
 0001:0018b59e       _MPI_ISEND                 0058c59e f   msmpifec:mpif.obj
 0001:0018b59e       _mpi_isend                 0058c59e f   msmpifec:mpif.obj
 0001:0018b59e       _mpi_isend__               0058c59e f   msmpifec:mpif.obj
 0001:0018b59e       _mpi_isend_                0058c59e f   msmpifec:mpif.obj
 0001:0018b59e       _PMPI_ISEND                0058c59e f   msmpifec:mpif.obj
 0001:0018b59e       _pmpi_isend_               0058c59e f   msmpifec:mpif.obj
 0001:0018b59e       _pmpi_isend__              0058c59e f   msmpifec:mpif.obj
 0001:0018b59e       _pmpi_isend                0058c59e f   msmpifec:mpif.obj
 0001:0018b5ce       _mpi_ibsend                0058c5ce f   msmpifec:mpif.obj
 0001:0018b5ce       _pmpi_ibsend               0058c5ce f   msmpifec:mpif.obj
 0001:0018b5ce       _MPI_IBSEND                0058c5ce f   msmpifec:mpif.obj
 0001:0018b5ce       _PMPI_IBSEND               0058c5ce f   msmpifec:mpif.obj
 0001:0018b5ce       _mpi_ibsend__              0058c5ce f   msmpifec:mpif.obj
 0001:0018b5ce       _pmpi_ibsend__             0058c5ce f   msmpifec:mpif.obj
 0001:0018b5ce       _pmpi_ibsend_              0058c5ce f   msmpifec:mpif.obj
 0001:0018b5ce       _mpi_ibsend_               0058c5ce f   msmpifec:mpif.obj
 0001:0018b5fe       _pmpi_issend__             0058c5fe f   msmpifec:mpif.obj
 0001:0018b5fe       _pmpi_issend_              0058c5fe f   msmpifec:mpif.obj
 0001:0018b5fe       _PMPI_ISSEND               0058c5fe f   msmpifec:mpif.obj
 0001:0018b5fe       _mpi_issend__              0058c5fe f   msmpifec:mpif.obj
 0001:0018b5fe       _pmpi_issend               0058c5fe f   msmpifec:mpif.obj
 0001:0018b5fe       _mpi_issend_               0058c5fe f   msmpifec:mpif.obj
 0001:0018b5fe       _MPI_ISSEND                0058c5fe f   msmpifec:mpif.obj
 0001:0018b5fe       _mpi_issend                0058c5fe f   msmpifec:mpif.obj
 0001:0018b62e       _mpi_irsend__              0058c62e f   msmpifec:mpif.obj
 0001:0018b62e       _mpi_irsend_               0058c62e f   msmpifec:mpif.obj
 0001:0018b62e       _pmpi_irsend__             0058c62e f   msmpifec:mpif.obj
 0001:0018b62e       _pmpi_irsend_              0058c62e f   msmpifec:mpif.obj
 0001:0018b62e       _pmpi_irsend               0058c62e f   msmpifec:mpif.obj
 0001:0018b62e       _MPI_IRSEND                0058c62e f   msmpifec:mpif.obj
 0001:0018b62e       _mpi_irsend                0058c62e f   msmpifec:mpif.obj
 0001:0018b62e       _PMPI_IRSEND               0058c62e f   msmpifec:mpif.obj
 0001:0018b65e       _pmpi_irecv__              0058c65e f   msmpifec:mpif.obj
 0001:0018b65e       _pmpi_irecv_               0058c65e f   msmpifec:mpif.obj
 0001:0018b65e       _mpi_irecv                 0058c65e f   msmpifec:mpif.obj
 0001:0018b65e       _PMPI_IRECV                0058c65e f   msmpifec:mpif.obj
 0001:0018b65e       _mpi_irecv_                0058c65e f   msmpifec:mpif.obj
 0001:0018b65e       _mpi_irecv__               0058c65e f   msmpifec:mpif.obj
 0001:0018b65e       _MPI_IRECV                 0058c65e f   msmpifec:mpif.obj
 0001:0018b65e       _pmpi_irecv                0058c65e f   msmpifec:mpif.obj
 0001:0018b68e       _mpi_wait_                 0058c68e f   msmpifec:mpif.obj
 0001:0018b68e       _mpi_wait__                0058c68e f   msmpifec:mpif.obj
 0001:0018b68e       _pmpi_wait                 0058c68e f   msmpifec:mpif.obj
 0001:0018b68e       _pmpi_wait__               0058c68e f   msmpifec:mpif.obj
 0001:0018b68e       _mpi_wait                  0058c68e f   msmpifec:mpif.obj
 0001:0018b68e       _pmpi_wait_                0058c68e f   msmpifec:mpif.obj
 0001:0018b68e       _MPI_WAIT                  0058c68e f   msmpifec:mpif.obj
 0001:0018b68e       _PMPI_WAIT                 0058c68e f   msmpifec:mpif.obj
 0001:0018b6c8       _mpi_test__                0058c6c8 f   msmpifec:mpif.obj
 0001:0018b6c8       _mpi_test                  0058c6c8 f   msmpifec:mpif.obj
 0001:0018b6c8       _pmpi_test_                0058c6c8 f   msmpifec:mpif.obj
 0001:0018b6c8       _PMPI_TEST                 0058c6c8 f   msmpifec:mpif.obj
 0001:0018b6c8       _mpi_test_                 0058c6c8 f   msmpifec:mpif.obj
 0001:0018b6c8       _pmpi_test                 0058c6c8 f   msmpifec:mpif.obj
 0001:0018b6c8       _pmpi_test__               0058c6c8 f   msmpifec:mpif.obj
 0001:0018b6c8       _MPI_TEST                  0058c6c8 f   msmpifec:mpif.obj
 0001:0018b713       _mpi_request_free_         0058c713 f   msmpifec:mpif.obj
 0001:0018b713       _PMPI_REQUEST_FREE         0058c713 f   msmpifec:mpif.obj
 0001:0018b713       _mpi_request_free__        0058c713 f   msmpifec:mpif.obj
 0001:0018b713       _MPI_REQUEST_FREE          0058c713 f   msmpifec:mpif.obj
 0001:0018b713       _pmpi_request_free_        0058c713 f   msmpifec:mpif.obj
 0001:0018b713       _pmpi_request_free__       0058c713 f   msmpifec:mpif.obj
 0001:0018b713       _pmpi_request_free         0058c713 f   msmpifec:mpif.obj
 0001:0018b713       _mpi_request_free          0058c713 f   msmpifec:mpif.obj
 0001:0018b727       _MPI_WAITANY               0058c727 f   msmpifec:mpif.obj
 0001:0018b727       _pmpi_waitany__            0058c727 f   msmpifec:mpif.obj
 0001:0018b727       _pmpi_waitany              0058c727 f   msmpifec:mpif.obj
 0001:0018b727       _mpi_waitany               0058c727 f   msmpifec:mpif.obj
 0001:0018b727       _mpi_waitany_              0058c727 f   msmpifec:mpif.obj
 0001:0018b727       _PMPI_WAITANY              0058c727 f   msmpifec:mpif.obj
 0001:0018b727       _pmpi_waitany_             0058c727 f   msmpifec:mpif.obj
 0001:0018b727       _mpi_waitany__             0058c727 f   msmpifec:mpif.obj
 0001:0018b77a       _PMPI_TESTANY              0058c77a f   msmpifec:mpif.obj
 0001:0018b77a       _mpi_testany               0058c77a f   msmpifec:mpif.obj
 0001:0018b77a       _mpi_testany__             0058c77a f   msmpifec:mpif.obj
 0001:0018b77a       _pmpi_testany_             0058c77a f   msmpifec:mpif.obj
 0001:0018b77a       _mpi_testany_              0058c77a f   msmpifec:mpif.obj
 0001:0018b77a       _pmpi_testany              0058c77a f   msmpifec:mpif.obj
 0001:0018b77a       _pmpi_testany__            0058c77a f   msmpifec:mpif.obj
 0001:0018b77a       _MPI_TESTANY               0058c77a f   msmpifec:mpif.obj
 0001:0018b7de       _mpi_waitall__             0058c7de f   msmpifec:mpif.obj
 0001:0018b7de       _pmpi_waitall_             0058c7de f   msmpifec:mpif.obj
 0001:0018b7de       _mpi_waitall_              0058c7de f   msmpifec:mpif.obj
 0001:0018b7de       _pmpi_waitall__            0058c7de f   msmpifec:mpif.obj
 0001:0018b7de       _MPI_WAITALL               0058c7de f   msmpifec:mpif.obj
 0001:0018b7de       _mpi_waitall               0058c7de f   msmpifec:mpif.obj
 0001:0018b7de       _pmpi_waitall              0058c7de f   msmpifec:mpif.obj
 0001:0018b7de       _PMPI_WAITALL              0058c7de f   msmpifec:mpif.obj
 0001:0018b81d       _pmpi_testall__            0058c81d f   msmpifec:mpif.obj
 0001:0018b81d       _mpi_testall               0058c81d f   msmpifec:mpif.obj
 0001:0018b81d       _PMPI_TESTALL              0058c81d f   msmpifec:mpif.obj
 0001:0018b81d       _pmpi_testall              0058c81d f   msmpifec:mpif.obj
 0001:0018b81d       _pmpi_testall_             0058c81d f   msmpifec:mpif.obj
 0001:0018b81d       _mpi_testall__             0058c81d f   msmpifec:mpif.obj
 0001:0018b81d       _mpi_testall_              0058c81d f   msmpifec:mpif.obj
 0001:0018b81d       _MPI_TESTALL               0058c81d f   msmpifec:mpif.obj
 0001:0018b86d       _pmpi_waitsome             0058c86d f   msmpifec:mpif.obj
 0001:0018b86d       _mpi_waitsome_             0058c86d f   msmpifec:mpif.obj
 0001:0018b86d       _pmpi_waitsome_            0058c86d f   msmpifec:mpif.obj
 0001:0018b86d       _MPI_WAITSOME              0058c86d f   msmpifec:mpif.obj
 0001:0018b86d       _mpi_waitsome__            0058c86d f   msmpifec:mpif.obj
 0001:0018b86d       _PMPI_WAITSOME             0058c86d f   msmpifec:mpif.obj
 0001:0018b86d       _mpi_waitsome              0058c86d f   msmpifec:mpif.obj
 0001:0018b86d       _pmpi_waitsome__           0058c86d f   msmpifec:mpif.obj
 0001:0018b8ce       _pmpi_testsome__           0058c8ce f   msmpifec:mpif.obj
 0001:0018b8ce       _mpi_testsome__            0058c8ce f   msmpifec:mpif.obj
 0001:0018b8ce       _pmpi_testsome             0058c8ce f   msmpifec:mpif.obj
 0001:0018b8ce       _PMPI_TESTSOME             0058c8ce f   msmpifec:mpif.obj
 0001:0018b8ce       _mpi_testsome              0058c8ce f   msmpifec:mpif.obj
 0001:0018b8ce       _mpi_testsome_             0058c8ce f   msmpifec:mpif.obj
 0001:0018b8ce       _MPI_TESTSOME              0058c8ce f   msmpifec:mpif.obj
 0001:0018b8ce       _pmpi_testsome_            0058c8ce f   msmpifec:mpif.obj
 0001:0018b92f       _mpi_iprobe                0058c92f f   msmpifec:mpif.obj
 0001:0018b92f       _pmpi_iprobe_              0058c92f f   msmpifec:mpif.obj
 0001:0018b92f       _pmpi_iprobe               0058c92f f   msmpifec:mpif.obj
 0001:0018b92f       _PMPI_IPROBE               0058c92f f   msmpifec:mpif.obj
 0001:0018b92f       _mpi_iprobe__              0058c92f f   msmpifec:mpif.obj
 0001:0018b92f       _mpi_iprobe_               0058c92f f   msmpifec:mpif.obj
 0001:0018b92f       _MPI_IPROBE                0058c92f f   msmpifec:mpif.obj
 0001:0018b92f       _pmpi_iprobe__             0058c92f f   msmpifec:mpif.obj
 0001:0018b986       _pmpi_probe__              0058c986 f   msmpifec:mpif.obj
 0001:0018b986       _mpi_probe_                0058c986 f   msmpifec:mpif.obj
 0001:0018b986       _mpi_probe                 0058c986 f   msmpifec:mpif.obj
 0001:0018b986       _PMPI_PROBE                0058c986 f   msmpifec:mpif.obj
 0001:0018b986       _pmpi_probe_               0058c986 f   msmpifec:mpif.obj
 0001:0018b986       _mpi_probe__               0058c986 f   msmpifec:mpif.obj
 0001:0018b986       _MPI_PROBE                 0058c986 f   msmpifec:mpif.obj
 0001:0018b986       _pmpi_probe                0058c986 f   msmpifec:mpif.obj
 0001:0018b9cc       _pmpi_cancel               0058c9cc f   msmpifec:mpif.obj
 0001:0018b9cc       _PMPI_CANCEL               0058c9cc f   msmpifec:mpif.obj
 0001:0018b9cc       _mpi_cancel                0058c9cc f   msmpifec:mpif.obj
 0001:0018b9cc       _pmpi_cancel_              0058c9cc f   msmpifec:mpif.obj
 0001:0018b9cc       _mpi_cancel__              0058c9cc f   msmpifec:mpif.obj
 0001:0018b9cc       _mpi_cancel_               0058c9cc f   msmpifec:mpif.obj
 0001:0018b9cc       _pmpi_cancel__             0058c9cc f   msmpifec:mpif.obj
 0001:0018b9cc       _MPI_CANCEL                0058c9cc f   msmpifec:mpif.obj
 0001:0018b9e0       _mpi_test_cancelled        0058c9e0 f   msmpifec:mpif.obj
 0001:0018b9e0       _PMPI_TEST_CANCELLED       0058c9e0 f   msmpifec:mpif.obj
 0001:0018b9e0       _pmpi_test_cancelled       0058c9e0 f   msmpifec:mpif.obj
 0001:0018b9e0       _pmpi_test_cancelled__     0058c9e0 f   msmpifec:mpif.obj
 0001:0018b9e0       _MPI_TEST_CANCELLED        0058c9e0 f   msmpifec:mpif.obj
 0001:0018b9e0       _pmpi_test_cancelled_      0058c9e0 f   msmpifec:mpif.obj
 0001:0018b9e0       _mpi_test_cancelled_       0058c9e0 f   msmpifec:mpif.obj
 0001:0018b9e0       _mpi_test_cancelled__      0058c9e0 f   msmpifec:mpif.obj
 0001:0018ba05       _pmpi_send_init_           0058ca05 f   msmpifec:mpif.obj
 0001:0018ba05       _mpi_send_init_            0058ca05 f   msmpifec:mpif.obj
 0001:0018ba05       _pmpi_send_init__          0058ca05 f   msmpifec:mpif.obj
 0001:0018ba05       _mpi_send_init             0058ca05 f   msmpifec:mpif.obj
 0001:0018ba05       _PMPI_SEND_INIT            0058ca05 f   msmpifec:mpif.obj
 0001:0018ba05       _MPI_SEND_INIT             0058ca05 f   msmpifec:mpif.obj
 0001:0018ba05       _mpi_send_init__           0058ca05 f   msmpifec:mpif.obj
 0001:0018ba05       _pmpi_send_init            0058ca05 f   msmpifec:mpif.obj
 0001:0018ba35       _pmpi_bsend_init           0058ca35 f   msmpifec:mpif.obj
 0001:0018ba35       _pmpi_bsend_init__         0058ca35 f   msmpifec:mpif.obj
 0001:0018ba35       _mpi_bsend_init            0058ca35 f   msmpifec:mpif.obj
 0001:0018ba35       _PMPI_BSEND_INIT           0058ca35 f   msmpifec:mpif.obj
 0001:0018ba35       _mpi_bsend_init__          0058ca35 f   msmpifec:mpif.obj
 0001:0018ba35       _MPI_BSEND_INIT            0058ca35 f   msmpifec:mpif.obj
 0001:0018ba35       _mpi_bsend_init_           0058ca35 f   msmpifec:mpif.obj
 0001:0018ba35       _pmpi_bsend_init_          0058ca35 f   msmpifec:mpif.obj
 0001:0018ba65       _mpi_ssend_init__          0058ca65 f   msmpifec:mpif.obj
 0001:0018ba65       _pmpi_ssend_init           0058ca65 f   msmpifec:mpif.obj
 0001:0018ba65       _PMPI_SSEND_INIT           0058ca65 f   msmpifec:mpif.obj
 0001:0018ba65       _MPI_SSEND_INIT            0058ca65 f   msmpifec:mpif.obj
 0001:0018ba65       _pmpi_ssend_init__         0058ca65 f   msmpifec:mpif.obj
 0001:0018ba65       _pmpi_ssend_init_          0058ca65 f   msmpifec:mpif.obj
 0001:0018ba65       _mpi_ssend_init_           0058ca65 f   msmpifec:mpif.obj
 0001:0018ba65       _mpi_ssend_init            0058ca65 f   msmpifec:mpif.obj
 0001:0018ba95       _MPI_RSEND_INIT            0058ca95 f   msmpifec:mpif.obj
 0001:0018ba95       _pmpi_rsend_init_          0058ca95 f   msmpifec:mpif.obj
 0001:0018ba95       _mpi_rsend_init__          0058ca95 f   msmpifec:mpif.obj
 0001:0018ba95       _mpi_rsend_init_           0058ca95 f   msmpifec:mpif.obj
 0001:0018ba95       _PMPI_RSEND_INIT           0058ca95 f   msmpifec:mpif.obj
 0001:0018ba95       _pmpi_rsend_init           0058ca95 f   msmpifec:mpif.obj
 0001:0018ba95       _pmpi_rsend_init__         0058ca95 f   msmpifec:mpif.obj
 0001:0018ba95       _mpi_rsend_init            0058ca95 f   msmpifec:mpif.obj
 0001:0018bac5       _MPI_RECV_INIT             0058cac5 f   msmpifec:mpif.obj
 0001:0018bac5       _pmpi_recv_init__          0058cac5 f   msmpifec:mpif.obj
 0001:0018bac5       _PMPI_RECV_INIT            0058cac5 f   msmpifec:mpif.obj
 0001:0018bac5       _pmpi_recv_init            0058cac5 f   msmpifec:mpif.obj
 0001:0018bac5       _mpi_recv_init__           0058cac5 f   msmpifec:mpif.obj
 0001:0018bac5       _mpi_recv_init_            0058cac5 f   msmpifec:mpif.obj
 0001:0018bac5       _pmpi_recv_init_           0058cac5 f   msmpifec:mpif.obj
 0001:0018bac5       _mpi_recv_init             0058cac5 f   msmpifec:mpif.obj
 0001:0018baf5       _mpi_start_                0058caf5 f   msmpifec:mpif.obj
 0001:0018baf5       _pmpi_start_               0058caf5 f   msmpifec:mpif.obj
 0001:0018baf5       _mpi_start                 0058caf5 f   msmpifec:mpif.obj
 0001:0018baf5       _pmpi_start                0058caf5 f   msmpifec:mpif.obj
 0001:0018baf5       _MPI_START                 0058caf5 f   msmpifec:mpif.obj
 0001:0018baf5       _mpi_start__               0058caf5 f   msmpifec:mpif.obj
 0001:0018baf5       _pmpi_start__              0058caf5 f   msmpifec:mpif.obj
 0001:0018baf5       _PMPI_START                0058caf5 f   msmpifec:mpif.obj
 0001:0018bb09       _pmpi_startall_            0058cb09 f   msmpifec:mpif.obj
 0001:0018bb09       _mpi_startall              0058cb09 f   msmpifec:mpif.obj
 0001:0018bb09       _pmpi_startall             0058cb09 f   msmpifec:mpif.obj
 0001:0018bb09       _mpi_startall__            0058cb09 f   msmpifec:mpif.obj
 0001:0018bb09       _pmpi_startall__           0058cb09 f   msmpifec:mpif.obj
 0001:0018bb09       _mpi_startall_             0058cb09 f   msmpifec:mpif.obj
 0001:0018bb09       _PMPI_STARTALL             0058cb09 f   msmpifec:mpif.obj
 0001:0018bb09       _MPI_STARTALL              0058cb09 f   msmpifec:mpif.obj
 0001:0018bb22       _mpi_sendrecv__            0058cb22 f   msmpifec:mpif.obj
 0001:0018bb22       _pmpi_sendrecv             0058cb22 f   msmpifec:mpif.obj
 0001:0018bb22       _pmpi_sendrecv_            0058cb22 f   msmpifec:mpif.obj
 0001:0018bb22       _PMPI_SENDRECV             0058cb22 f   msmpifec:mpif.obj
 0001:0018bb22       _pmpi_sendrecv__           0058cb22 f   msmpifec:mpif.obj
 0001:0018bb22       _mpi_sendrecv              0058cb22 f   msmpifec:mpif.obj
 0001:0018bb22       _mpi_sendrecv_             0058cb22 f   msmpifec:mpif.obj
 0001:0018bb22       _MPI_SENDRECV              0058cb22 f   msmpifec:mpif.obj
 0001:0018bb8c       _pmpi_sendrecv_replace_    0058cb8c f   msmpifec:mpif.obj
 0001:0018bb8c       _pmpi_sendrecv_replace__   0058cb8c f   msmpifec:mpif.obj
 0001:0018bb8c       _MPI_SENDRECV_REPLACE      0058cb8c f   msmpifec:mpif.obj
 0001:0018bb8c       _pmpi_sendrecv_replace     0058cb8c f   msmpifec:mpif.obj
 0001:0018bb8c       _mpi_sendrecv_replace_     0058cb8c f   msmpifec:mpif.obj
 0001:0018bb8c       _mpi_sendrecv_replace__    0058cb8c f   msmpifec:mpif.obj
 0001:0018bb8c       _PMPI_SENDRECV_REPLACE     0058cb8c f   msmpifec:mpif.obj
 0001:0018bb8c       _mpi_sendrecv_replace      0058cb8c f   msmpifec:mpif.obj
 0001:0018bbe9       _pmpi_type_contiguous_     0058cbe9 f   msmpifec:mpif.obj
 0001:0018bbe9       _MPI_TYPE_CONTIGUOUS       0058cbe9 f   msmpifec:mpif.obj
 0001:0018bbe9       _mpi_type_contiguous       0058cbe9 f   msmpifec:mpif.obj
 0001:0018bbe9       _pmpi_type_contiguous__    0058cbe9 f   msmpifec:mpif.obj
 0001:0018bbe9       _pmpi_type_contiguous      0058cbe9 f   msmpifec:mpif.obj
 0001:0018bbe9       _PMPI_TYPE_CONTIGUOUS      0058cbe9 f   msmpifec:mpif.obj
 0001:0018bbe9       _mpi_type_contiguous_      0058cbe9 f   msmpifec:mpif.obj
 0001:0018bbe9       _mpi_type_contiguous__     0058cbe9 f   msmpifec:mpif.obj
 0001:0018bc07       _mpi_type_vector__         0058cc07 f   msmpifec:mpif.obj
 0001:0018bc07       _PMPI_TYPE_VECTOR          0058cc07 f   msmpifec:mpif.obj
 0001:0018bc07       _pmpi_type_vector_         0058cc07 f   msmpifec:mpif.obj
 0001:0018bc07       _mpi_type_vector_          0058cc07 f   msmpifec:mpif.obj
 0001:0018bc07       _MPI_TYPE_VECTOR           0058cc07 f   msmpifec:mpif.obj
 0001:0018bc07       _pmpi_type_vector__        0058cc07 f   msmpifec:mpif.obj
 0001:0018bc07       _pmpi_type_vector          0058cc07 f   msmpifec:mpif.obj
 0001:0018bc07       _mpi_type_vector           0058cc07 f   msmpifec:mpif.obj
 0001:0018bc2f       _pmpi_type_hvector         0058cc2f f   msmpifec:mpif.obj
 0001:0018bc2f       _mpi_type_hvector__        0058cc2f f   msmpifec:mpif.obj
 0001:0018bc2f       _pmpi_type_hvector_        0058cc2f f   msmpifec:mpif.obj
 0001:0018bc2f       _mpi_type_hvector_         0058cc2f f   msmpifec:mpif.obj
 0001:0018bc2f       _pmpi_type_hvector__       0058cc2f f   msmpifec:mpif.obj
 0001:0018bc2f       _PMPI_TYPE_HVECTOR         0058cc2f f   msmpifec:mpif.obj
 0001:0018bc2f       _mpi_type_hvector          0058cc2f f   msmpifec:mpif.obj
 0001:0018bc2f       _MPI_TYPE_HVECTOR          0058cc2f f   msmpifec:mpif.obj
 0001:0018bc58       _MPI_TYPE_INDEXED          0058cc58 f   msmpifec:mpif.obj
 0001:0018bc58       _pmpi_type_indexed_        0058cc58 f   msmpifec:mpif.obj
 0001:0018bc58       _mpi_type_indexed          0058cc58 f   msmpifec:mpif.obj
 0001:0018bc58       _pmpi_type_indexed         0058cc58 f   msmpifec:mpif.obj
 0001:0018bc58       _mpi_type_indexed_         0058cc58 f   msmpifec:mpif.obj
 0001:0018bc58       _PMPI_TYPE_INDEXED         0058cc58 f   msmpifec:mpif.obj
 0001:0018bc58       _mpi_type_indexed__        0058cc58 f   msmpifec:mpif.obj
 0001:0018bc58       _pmpi_type_indexed__       0058cc58 f   msmpifec:mpif.obj
 0001:0018bc7c       _mpi_type_hindexed__       0058cc7c f   msmpifec:mpif.obj
 0001:0018bc7c       _MPI_TYPE_HINDEXED         0058cc7c f   msmpifec:mpif.obj
 0001:0018bc7c       _PMPI_TYPE_HINDEXED        0058cc7c f   msmpifec:mpif.obj
 0001:0018bc7c       _pmpi_type_hindexed        0058cc7c f   msmpifec:mpif.obj
 0001:0018bc7c       _mpi_type_hindexed_        0058cc7c f   msmpifec:mpif.obj
 0001:0018bc7c       _pmpi_type_hindexed_       0058cc7c f   msmpifec:mpif.obj
 0001:0018bc7c       _mpi_type_hindexed         0058cc7c f   msmpifec:mpif.obj
 0001:0018bc7c       _pmpi_type_hindexed__      0058cc7c f   msmpifec:mpif.obj
 0001:0018bca0       _pmpi_type_struct          0058cca0 f   msmpifec:mpif.obj
 0001:0018bca0       _mpi_type_struct           0058cca0 f   msmpifec:mpif.obj
 0001:0018bca0       _mpi_type_struct__         0058cca0 f   msmpifec:mpif.obj
 0001:0018bca0       _MPI_TYPE_STRUCT           0058cca0 f   msmpifec:mpif.obj
 0001:0018bca0       _PMPI_TYPE_STRUCT          0058cca0 f   msmpifec:mpif.obj
 0001:0018bca0       _mpi_type_struct_          0058cca0 f   msmpifec:mpif.obj
 0001:0018bca0       _pmpi_type_struct__        0058cca0 f   msmpifec:mpif.obj
 0001:0018bca0       _pmpi_type_struct_         0058cca0 f   msmpifec:mpif.obj
 0001:0018bcc2       _mpi_type_extent           0058ccc2 f   msmpifec:mpif.obj
 0001:0018bcc2       _pmpi_type_extent_         0058ccc2 f   msmpifec:mpif.obj
 0001:0018bcc2       _pmpi_type_extent__        0058ccc2 f   msmpifec:mpif.obj
 0001:0018bcc2       _MPI_TYPE_EXTENT           0058ccc2 f   msmpifec:mpif.obj
 0001:0018bcc2       _pmpi_type_extent          0058ccc2 f   msmpifec:mpif.obj
 0001:0018bcc2       _mpi_type_extent_          0058ccc2 f   msmpifec:mpif.obj
 0001:0018bcc2       _mpi_type_extent__         0058ccc2 f   msmpifec:mpif.obj
 0001:0018bcc2       _PMPI_TYPE_EXTENT          0058ccc2 f   msmpifec:mpif.obj
 0001:0018bce5       _pmpi_type_size            0058cce5 f   msmpifec:mpif.obj
 0001:0018bce5       _PMPI_TYPE_SIZE            0058cce5 f   msmpifec:mpif.obj
 0001:0018bce5       _pmpi_type_size_           0058cce5 f   msmpifec:mpif.obj
 0001:0018bce5       _mpi_type_size             0058cce5 f   msmpifec:mpif.obj
 0001:0018bce5       _mpi_type_size__           0058cce5 f   msmpifec:mpif.obj
 0001:0018bce5       _pmpi_type_size__          0058cce5 f   msmpifec:mpif.obj
 0001:0018bce5       _MPI_TYPE_SIZE             0058cce5 f   msmpifec:mpif.obj
 0001:0018bce5       _mpi_type_size_            0058cce5 f   msmpifec:mpif.obj
 0001:0018bcfe       _mpi_type_lb_              0058ccfe f   msmpifec:mpif.obj
 0001:0018bcfe       _pmpi_type_lb_             0058ccfe f   msmpifec:mpif.obj
 0001:0018bcfe       _mpi_type_lb__             0058ccfe f   msmpifec:mpif.obj
 0001:0018bcfe       _PMPI_TYPE_LB              0058ccfe f   msmpifec:mpif.obj
 0001:0018bcfe       _mpi_type_lb               0058ccfe f   msmpifec:mpif.obj
 0001:0018bcfe       _pmpi_type_lb__            0058ccfe f   msmpifec:mpif.obj
 0001:0018bcfe       _MPI_TYPE_LB               0058ccfe f   msmpifec:mpif.obj
 0001:0018bcfe       _pmpi_type_lb              0058ccfe f   msmpifec:mpif.obj
 0001:0018bd21       _mpi_type_ub_              0058cd21 f   msmpifec:mpif.obj
 0001:0018bd21       _PMPI_TYPE_UB              0058cd21 f   msmpifec:mpif.obj
 0001:0018bd21       _mpi_type_ub               0058cd21 f   msmpifec:mpif.obj
 0001:0018bd21       _pmpi_type_ub              0058cd21 f   msmpifec:mpif.obj
 0001:0018bd21       _mpi_type_ub__             0058cd21 f   msmpifec:mpif.obj
 0001:0018bd21       _pmpi_type_ub__            0058cd21 f   msmpifec:mpif.obj
 0001:0018bd21       _pmpi_type_ub_             0058cd21 f   msmpifec:mpif.obj
 0001:0018bd21       _MPI_TYPE_UB               0058cd21 f   msmpifec:mpif.obj
 0001:0018bd44       _MPI_TYPE_COMMIT           0058cd44 f   msmpifec:mpif.obj
 0001:0018bd44       _pmpi_type_commit          0058cd44 f   msmpifec:mpif.obj
 0001:0018bd44       _mpi_type_commit__         0058cd44 f   msmpifec:mpif.obj
 0001:0018bd44       _pmpi_type_commit__        0058cd44 f   msmpifec:mpif.obj
 0001:0018bd44       _PMPI_TYPE_COMMIT          0058cd44 f   msmpifec:mpif.obj
 0001:0018bd44       _mpi_type_commit_          0058cd44 f   msmpifec:mpif.obj
 0001:0018bd44       _pmpi_type_commit_         0058cd44 f   msmpifec:mpif.obj
 0001:0018bd44       _mpi_type_commit           0058cd44 f   msmpifec:mpif.obj
 0001:0018bd58       _pmpi_type_free__          0058cd58 f   msmpifec:mpif.obj
 0001:0018bd58       _pmpi_type_free_           0058cd58 f   msmpifec:mpif.obj
 0001:0018bd58       _mpi_type_free             0058cd58 f   msmpifec:mpif.obj
 0001:0018bd58       _MPI_TYPE_FREE             0058cd58 f   msmpifec:mpif.obj
 0001:0018bd58       _mpi_type_free__           0058cd58 f   msmpifec:mpif.obj
 0001:0018bd58       _mpi_type_free_            0058cd58 f   msmpifec:mpif.obj
 0001:0018bd58       _pmpi_type_free            0058cd58 f   msmpifec:mpif.obj
 0001:0018bd58       _PMPI_TYPE_FREE            0058cd58 f   msmpifec:mpif.obj
 0001:0018bd6c       _pmpi_get_elements__       0058cd6c f   msmpifec:mpif.obj
 0001:0018bd6c       _pmpi_get_elements_        0058cd6c f   msmpifec:mpif.obj
 0001:0018bd6c       _mpi_get_elements_         0058cd6c f   msmpifec:mpif.obj
 0001:0018bd6c       _MPI_GET_ELEMENTS          0058cd6c f   msmpifec:mpif.obj
 0001:0018bd6c       _mpi_get_elements          0058cd6c f   msmpifec:mpif.obj
 0001:0018bd6c       _mpi_get_elements__        0058cd6c f   msmpifec:mpif.obj
 0001:0018bd6c       _pmpi_get_elements         0058cd6c f   msmpifec:mpif.obj
 0001:0018bd6c       _PMPI_GET_ELEMENTS         0058cd6c f   msmpifec:mpif.obj
 0001:0018bd88       _mpi_pack__                0058cd88 f   msmpifec:mpif.obj
 0001:0018bd88       _pmpi_pack                 0058cd88 f   msmpifec:mpif.obj
 0001:0018bd88       _pmpi_pack_                0058cd88 f   msmpifec:mpif.obj
 0001:0018bd88       _mpi_pack                  0058cd88 f   msmpifec:mpif.obj
 0001:0018bd88       _mpi_pack_                 0058cd88 f   msmpifec:mpif.obj
 0001:0018bd88       _pmpi_pack__               0058cd88 f   msmpifec:mpif.obj
 0001:0018bd88       _MPI_PACK                  0058cd88 f   msmpifec:mpif.obj
 0001:0018bd88       _PMPI_PACK                 0058cd88 f   msmpifec:mpif.obj
 0001:0018bdb6       _mpi_unpack                0058cdb6 f   msmpifec:mpif.obj
 0001:0018bdb6       _mpi_unpack__              0058cdb6 f   msmpifec:mpif.obj
 0001:0018bdb6       _PMPI_UNPACK               0058cdb6 f   msmpifec:mpif.obj
 0001:0018bdb6       _mpi_unpack_               0058cdb6 f   msmpifec:mpif.obj
 0001:0018bdb6       _pmpi_unpack__             0058cdb6 f   msmpifec:mpif.obj
 0001:0018bdb6       _pmpi_unpack               0058cdb6 f   msmpifec:mpif.obj
 0001:0018bdb6       _pmpi_unpack_              0058cdb6 f   msmpifec:mpif.obj
 0001:0018bdb6       _MPI_UNPACK                0058cdb6 f   msmpifec:mpif.obj
 0001:0018bde4       _pmpi_pack_size_           0058cde4 f   msmpifec:mpif.obj
 0001:0018bde4       _PMPI_PACK_SIZE            0058cde4 f   msmpifec:mpif.obj
 0001:0018bde4       _mpi_pack_size_            0058cde4 f   msmpifec:mpif.obj
 0001:0018bde4       _MPI_PACK_SIZE             0058cde4 f   msmpifec:mpif.obj
 0001:0018bde4       _mpi_pack_size__           0058cde4 f   msmpifec:mpif.obj
 0001:0018bde4       _pmpi_pack_size__          0058cde4 f   msmpifec:mpif.obj
 0001:0018bde4       _mpi_pack_size             0058cde4 f   msmpifec:mpif.obj
 0001:0018bde4       _pmpi_pack_size            0058cde4 f   msmpifec:mpif.obj
 0001:0018be07       _PMPI_BARRIER              0058ce07 f   msmpifec:mpif.obj
 0001:0018be07       _pmpi_barrier_             0058ce07 f   msmpifec:mpif.obj
 0001:0018be07       _pmpi_barrier__            0058ce07 f   msmpifec:mpif.obj
 0001:0018be07       _pmpi_barrier              0058ce07 f   msmpifec:mpif.obj
 0001:0018be07       _mpi_barrier_              0058ce07 f   msmpifec:mpif.obj
 0001:0018be07       _MPI_BARRIER               0058ce07 f   msmpifec:mpif.obj
 0001:0018be07       _mpi_barrier__             0058ce07 f   msmpifec:mpif.obj
 0001:0018be07       _mpi_barrier               0058ce07 f   msmpifec:mpif.obj
 0001:0018be1d       _pmpi_bcast_               0058ce1d f   msmpifec:mpif.obj
 0001:0018be1d       _mpi_bcast                 0058ce1d f   msmpifec:mpif.obj
 0001:0018be1d       _PMPI_BCAST                0058ce1d f   msmpifec:mpif.obj
 0001:0018be1d       _MPI_BCAST                 0058ce1d f   msmpifec:mpif.obj
 0001:0018be1d       _mpi_bcast__               0058ce1d f   msmpifec:mpif.obj
 0001:0018be1d       _pmpi_bcast__              0058ce1d f   msmpifec:mpif.obj
 0001:0018be1d       _mpi_bcast_                0058ce1d f   msmpifec:mpif.obj
 0001:0018be1d       _pmpi_bcast                0058ce1d f   msmpifec:mpif.obj
 0001:0018be45       _mpi_gather__              0058ce45 f   msmpifec:mpif.obj
 0001:0018be45       _MPI_GATHER                0058ce45 f   msmpifec:mpif.obj
 0001:0018be45       _PMPI_GATHER               0058ce45 f   msmpifec:mpif.obj
 0001:0018be45       _pmpi_gather__             0058ce45 f   msmpifec:mpif.obj
 0001:0018be45       _mpi_gather                0058ce45 f   msmpifec:mpif.obj
 0001:0018be45       _pmpi_gather               0058ce45 f   msmpifec:mpif.obj
 0001:0018be45       _pmpi_gather_              0058ce45 f   msmpifec:mpif.obj
 0001:0018be45       _mpi_gather_               0058ce45 f   msmpifec:mpif.obj
 0001:0018be9b       _pmpi_gatherv__            0058ce9b f   msmpifec:mpif.obj
 0001:0018be9b       _pmpi_gatherv_             0058ce9b f   msmpifec:mpif.obj
 0001:0018be9b       _MPI_GATHERV               0058ce9b f   msmpifec:mpif.obj
 0001:0018be9b       _mpi_gatherv               0058ce9b f   msmpifec:mpif.obj
 0001:0018be9b       _mpi_gatherv_              0058ce9b f   msmpifec:mpif.obj
 0001:0018be9b       _pmpi_gatherv              0058ce9b f   msmpifec:mpif.obj
 0001:0018be9b       _PMPI_GATHERV              0058ce9b f   msmpifec:mpif.obj
 0001:0018be9b       _mpi_gatherv__             0058ce9b f   msmpifec:mpif.obj
 0001:0018bef2       _PMPI_SCATTER              0058cef2 f   msmpifec:mpif.obj
 0001:0018bef2       _pmpi_scatter              0058cef2 f   msmpifec:mpif.obj
 0001:0018bef2       _pmpi_scatter__            0058cef2 f   msmpifec:mpif.obj
 0001:0018bef2       _mpi_scatter               0058cef2 f   msmpifec:mpif.obj
 0001:0018bef2       _pmpi_scatter_             0058cef2 f   msmpifec:mpif.obj
 0001:0018bef2       _mpi_scatter_              0058cef2 f   msmpifec:mpif.obj
 0001:0018bef2       _mpi_scatter__             0058cef2 f   msmpifec:mpif.obj
 0001:0018bef2       _MPI_SCATTER               0058cef2 f   msmpifec:mpif.obj
 0001:0018bf48       _mpi_scatterv              0058cf48 f   msmpifec:mpif.obj
 0001:0018bf48       _mpi_scatterv_             0058cf48 f   msmpifec:mpif.obj
 0001:0018bf48       _pmpi_scatterv__           0058cf48 f   msmpifec:mpif.obj
 0001:0018bf48       _PMPI_SCATTERV             0058cf48 f   msmpifec:mpif.obj
 0001:0018bf48       _pmpi_scatterv             0058cf48 f   msmpifec:mpif.obj
 0001:0018bf48       _MPI_SCATTERV              0058cf48 f   msmpifec:mpif.obj
 0001:0018bf48       _mpi_scatterv__            0058cf48 f   msmpifec:mpif.obj
 0001:0018bf48       _pmpi_scatterv_            0058cf48 f   msmpifec:mpif.obj
 0001:0018bf9f       _pmpi_allgather_           0058cf9f f   msmpifec:mpif.obj
 0001:0018bf9f       _pmpi_allgather__          0058cf9f f   msmpifec:mpif.obj
 0001:0018bf9f       _mpi_allgather_            0058cf9f f   msmpifec:mpif.obj
 0001:0018bf9f       _mpi_allgather             0058cf9f f   msmpifec:mpif.obj
 0001:0018bf9f       _pmpi_allgather            0058cf9f f   msmpifec:mpif.obj
 0001:0018bf9f       _MPI_ALLGATHER             0058cf9f f   msmpifec:mpif.obj
 0001:0018bf9f       _mpi_allgather__           0058cf9f f   msmpifec:mpif.obj
 0001:0018bf9f       _PMPI_ALLGATHER            0058cf9f f   msmpifec:mpif.obj
 0001:0018bff0       _pmpi_allgatherv__         0058cff0 f   msmpifec:mpif.obj
 0001:0018bff0       _mpi_allgatherv__          0058cff0 f   msmpifec:mpif.obj
 0001:0018bff0       _pmpi_allgatherv_          0058cff0 f   msmpifec:mpif.obj
 0001:0018bff0       _mpi_allgatherv            0058cff0 f   msmpifec:mpif.obj
 0001:0018bff0       _pmpi_allgatherv           0058cff0 f   msmpifec:mpif.obj
 0001:0018bff0       _mpi_allgatherv_           0058cff0 f   msmpifec:mpif.obj
 0001:0018bff0       _MPI_ALLGATHERV            0058cff0 f   msmpifec:mpif.obj
 0001:0018bff0       _PMPI_ALLGATHERV           0058cff0 f   msmpifec:mpif.obj
 0001:0018c042       _PMPI_ALLTOALL             0058d042 f   msmpifec:mpif.obj
 0001:0018c042       _mpi_alltoall_             0058d042 f   msmpifec:mpif.obj
 0001:0018c042       _MPI_ALLTOALL              0058d042 f   msmpifec:mpif.obj
 0001:0018c042       _pmpi_alltoall__           0058d042 f   msmpifec:mpif.obj
 0001:0018c042       _pmpi_alltoall_            0058d042 f   msmpifec:mpif.obj
 0001:0018c042       _mpi_alltoall__            0058d042 f   msmpifec:mpif.obj
 0001:0018c042       _mpi_alltoall              0058d042 f   msmpifec:mpif.obj
 0001:0018c042       _pmpi_alltoall             0058d042 f   msmpifec:mpif.obj
 0001:0018c072       _PMPI_ALLTOALLV            0058d072 f   msmpifec:mpif.obj
 0001:0018c072       _pmpi_alltoallv_           0058d072 f   msmpifec:mpif.obj
 0001:0018c072       _pmpi_alltoallv__          0058d072 f   msmpifec:mpif.obj
 0001:0018c072       _pmpi_alltoallv            0058d072 f   msmpifec:mpif.obj
 0001:0018c072       _mpi_alltoallv             0058d072 f   msmpifec:mpif.obj
 0001:0018c072       _mpi_alltoallv__           0058d072 f   msmpifec:mpif.obj
 0001:0018c072       _mpi_alltoallv_            0058d072 f   msmpifec:mpif.obj
 0001:0018c072       _MPI_ALLTOALLV             0058d072 f   msmpifec:mpif.obj
 0001:0018c0a4       _pmpi_reduce               0058d0a4 f   msmpifec:mpif.obj
 0001:0018c0a4       _PMPI_REDUCE               0058d0a4 f   msmpifec:mpif.obj
 0001:0018c0a4       _MPI_REDUCE                0058d0a4 f   msmpifec:mpif.obj
 0001:0018c0a4       _mpi_reduce                0058d0a4 f   msmpifec:mpif.obj
 0001:0018c0a4       _mpi_reduce_               0058d0a4 f   msmpifec:mpif.obj
 0001:0018c0a4       _mpi_reduce__              0058d0a4 f   msmpifec:mpif.obj
 0001:0018c0a4       _pmpi_reduce_              0058d0a4 f   msmpifec:mpif.obj
 0001:0018c0a4       _pmpi_reduce__             0058d0a4 f   msmpifec:mpif.obj
 0001:0018c110       _PMPI_OP_CREATE            0058d110 f   msmpifec:mpif.obj
 0001:0018c110       _mpi_op_create_            0058d110 f   msmpifec:mpif.obj
 0001:0018c110       _mpi_op_create__           0058d110 f   msmpifec:mpif.obj
 0001:0018c110       _pmpi_op_create            0058d110 f   msmpifec:mpif.obj
 0001:0018c110       _pmpi_op_create_           0058d110 f   msmpifec:mpif.obj
 0001:0018c110       _mpi_op_create             0058d110 f   msmpifec:mpif.obj
 0001:0018c110       _pmpi_op_create__          0058d110 f   msmpifec:mpif.obj
 0001:0018c110       _MPI_OP_CREATE             0058d110 f   msmpifec:mpif.obj
 0001:0018c13f       _mpi_op_free               0058d13f f   msmpifec:mpif.obj
 0001:0018c13f       _mpi_op_free__             0058d13f f   msmpifec:mpif.obj
 0001:0018c13f       _mpi_op_free_              0058d13f f   msmpifec:mpif.obj
 0001:0018c13f       _MPI_OP_FREE               0058d13f f   msmpifec:mpif.obj
 0001:0018c13f       _pmpi_op_free              0058d13f f   msmpifec:mpif.obj
 0001:0018c13f       _pmpi_op_free_             0058d13f f   msmpifec:mpif.obj
 0001:0018c13f       _pmpi_op_free__            0058d13f f   msmpifec:mpif.obj
 0001:0018c13f       _PMPI_OP_FREE              0058d13f f   msmpifec:mpif.obj
 0001:0018c153       _pmpi_allreduce            0058d153 f   msmpifec:mpif.obj
 0001:0018c153       _pmpi_allreduce_           0058d153 f   msmpifec:mpif.obj
 0001:0018c153       _MPI_ALLREDUCE             0058d153 f   msmpifec:mpif.obj
 0001:0018c153       _PMPI_ALLREDUCE            0058d153 f   msmpifec:mpif.obj
 0001:0018c153       _mpi_allreduce             0058d153 f   msmpifec:mpif.obj
 0001:0018c153       _mpi_allreduce_            0058d153 f   msmpifec:mpif.obj
 0001:0018c153       _pmpi_allreduce__          0058d153 f   msmpifec:mpif.obj
 0001:0018c153       _mpi_allreduce__           0058d153 f   msmpifec:mpif.obj
 0001:0018c19f       _pmpi_reduce_scatter       0058d19f f   msmpifec:mpif.obj
 0001:0018c19f       _mpi_reduce_scatter        0058d19f f   msmpifec:mpif.obj
 0001:0018c19f       _mpi_reduce_scatter_       0058d19f f   msmpifec:mpif.obj
 0001:0018c19f       _pmpi_reduce_scatter__     0058d19f f   msmpifec:mpif.obj
 0001:0018c19f       _mpi_reduce_scatter__      0058d19f f   msmpifec:mpif.obj
 0001:0018c19f       _PMPI_REDUCE_SCATTER       0058d19f f   msmpifec:mpif.obj
 0001:0018c19f       _pmpi_reduce_scatter_      0058d19f f   msmpifec:mpif.obj
 0001:0018c19f       _MPI_REDUCE_SCATTER        0058d19f f   msmpifec:mpif.obj
 0001:0018c1e9       _pmpi_scan_                0058d1e9 f   msmpifec:mpif.obj
 0001:0018c1e9       _mpi_scan__                0058d1e9 f   msmpifec:mpif.obj
 0001:0018c1e9       _pmpi_scan__               0058d1e9 f   msmpifec:mpif.obj
 0001:0018c1e9       _MPI_SCAN                  0058d1e9 f   msmpifec:mpif.obj
 0001:0018c1e9       _mpi_scan                  0058d1e9 f   msmpifec:mpif.obj
 0001:0018c1e9       _PMPI_SCAN                 0058d1e9 f   msmpifec:mpif.obj
 0001:0018c1e9       _pmpi_scan                 0058d1e9 f   msmpifec:mpif.obj
 0001:0018c1e9       _mpi_scan_                 0058d1e9 f   msmpifec:mpif.obj
 0001:0018c235       _mpi_group_size_           0058d235 f   msmpifec:mpif.obj
 0001:0018c235       _pmpi_group_size           0058d235 f   msmpifec:mpif.obj
 0001:0018c235       _mpi_group_size            0058d235 f   msmpifec:mpif.obj
 0001:0018c235       _pmpi_group_size_          0058d235 f   msmpifec:mpif.obj
 0001:0018c235       _PMPI_GROUP_SIZE           0058d235 f   msmpifec:mpif.obj
 0001:0018c235       _MPI_GROUP_SIZE            0058d235 f   msmpifec:mpif.obj
 0001:0018c235       _mpi_group_size__          0058d235 f   msmpifec:mpif.obj
 0001:0018c235       _pmpi_group_size__         0058d235 f   msmpifec:mpif.obj
 0001:0018c24e       _pmpi_group_rank_          0058d24e f   msmpifec:mpif.obj
 0001:0018c24e       _mpi_group_rank__          0058d24e f   msmpifec:mpif.obj
 0001:0018c24e       _mpi_group_rank            0058d24e f   msmpifec:mpif.obj
 0001:0018c24e       _PMPI_GROUP_RANK           0058d24e f   msmpifec:mpif.obj
 0001:0018c24e       _MPI_GROUP_RANK            0058d24e f   msmpifec:mpif.obj
 0001:0018c24e       _pmpi_group_rank__         0058d24e f   msmpifec:mpif.obj
 0001:0018c24e       _mpi_group_rank_           0058d24e f   msmpifec:mpif.obj
 0001:0018c24e       _pmpi_group_rank           0058d24e f   msmpifec:mpif.obj
 0001:0018c267       _pmpi_group_translate_ranks_ 0058d267 f   msmpifec:mpif.obj
 0001:0018c267       _pmpi_group_translate_ranks 0058d267 f   msmpifec:mpif.obj
 0001:0018c267       _mpi_group_translate_ranks__ 0058d267 f   msmpifec:mpif.obj
 0001:0018c267       _PMPI_GROUP_TRANSLATE_RANKS 0058d267 f   msmpifec:mpif.obj
 0001:0018c267       _MPI_GROUP_TRANSLATE_RANKS 0058d267 f   msmpifec:mpif.obj
 0001:0018c267       _pmpi_group_translate_ranks__ 0058d267 f   msmpifec:mpif.obj
 0001:0018c267       _mpi_group_translate_ranks 0058d267 f   msmpifec:mpif.obj
 0001:0018c267       _mpi_group_translate_ranks_ 0058d267 f   msmpifec:mpif.obj
 0001:0018c28d       _mpi_group_compare_        0058d28d f   msmpifec:mpif.obj
 0001:0018c28d       _pmpi_group_compare__      0058d28d f   msmpifec:mpif.obj
 0001:0018c28d       _mpi_group_compare__       0058d28d f   msmpifec:mpif.obj
 0001:0018c28d       _mpi_group_compare         0058d28d f   msmpifec:mpif.obj
 0001:0018c28d       _MPI_GROUP_COMPARE         0058d28d f   msmpifec:mpif.obj
 0001:0018c28d       _PMPI_GROUP_COMPARE        0058d28d f   msmpifec:mpif.obj
 0001:0018c28d       _pmpi_group_compare_       0058d28d f   msmpifec:mpif.obj
 0001:0018c28d       _pmpi_group_compare        0058d28d f   msmpifec:mpif.obj
 0001:0018c2ab       _pmpi_comm_group__         0058d2ab f   msmpifec:mpif.obj
 0001:0018c2ab       _PMPI_COMM_GROUP           0058d2ab f   msmpifec:mpif.obj
 0001:0018c2ab       _mpi_comm_group_           0058d2ab f   msmpifec:mpif.obj
 0001:0018c2ab       _mpi_comm_group            0058d2ab f   msmpifec:mpif.obj
 0001:0018c2ab       _mpi_comm_group__          0058d2ab f   msmpifec:mpif.obj
 0001:0018c2ab       _pmpi_comm_group_          0058d2ab f   msmpifec:mpif.obj
 0001:0018c2ab       _MPI_COMM_GROUP            0058d2ab f   msmpifec:mpif.obj
 0001:0018c2ab       _pmpi_comm_group           0058d2ab f   msmpifec:mpif.obj
 0001:0018c2c4       _pmpi_group_union_         0058d2c4 f   msmpifec:mpif.obj
 0001:0018c2c4       _mpi_group_union_          0058d2c4 f   msmpifec:mpif.obj
 0001:0018c2c4       _pmpi_group_union          0058d2c4 f   msmpifec:mpif.obj
 0001:0018c2c4       _MPI_GROUP_UNION           0058d2c4 f   msmpifec:mpif.obj
 0001:0018c2c4       _PMPI_GROUP_UNION          0058d2c4 f   msmpifec:mpif.obj
 0001:0018c2c4       _mpi_group_union__         0058d2c4 f   msmpifec:mpif.obj
 0001:0018c2c4       _pmpi_group_union__        0058d2c4 f   msmpifec:mpif.obj
 0001:0018c2c4       _mpi_group_union           0058d2c4 f   msmpifec:mpif.obj
 0001:0018c2e2       _mpi_group_intersection__  0058d2e2 f   msmpifec:mpif.obj
 0001:0018c2e2       _pmpi_group_intersection   0058d2e2 f   msmpifec:mpif.obj
 0001:0018c2e2       _pmpi_group_intersection_  0058d2e2 f   msmpifec:mpif.obj
 0001:0018c2e2       _MPI_GROUP_INTERSECTION    0058d2e2 f   msmpifec:mpif.obj
 0001:0018c2e2       _mpi_group_intersection    0058d2e2 f   msmpifec:mpif.obj
 0001:0018c2e2       _PMPI_GROUP_INTERSECTION   0058d2e2 f   msmpifec:mpif.obj
 0001:0018c2e2       _mpi_group_intersection_   0058d2e2 f   msmpifec:mpif.obj
 0001:0018c2e2       _pmpi_group_intersection__ 0058d2e2 f   msmpifec:mpif.obj
 0001:0018c300       _mpi_group_difference__    0058d300 f   msmpifec:mpif.obj
 0001:0018c300       _pmpi_group_difference_    0058d300 f   msmpifec:mpif.obj
 0001:0018c300       _pmpi_group_difference     0058d300 f   msmpifec:mpif.obj
 0001:0018c300       _mpi_group_difference_     0058d300 f   msmpifec:mpif.obj
 0001:0018c300       _PMPI_GROUP_DIFFERENCE     0058d300 f   msmpifec:mpif.obj
 0001:0018c300       _MPI_GROUP_DIFFERENCE      0058d300 f   msmpifec:mpif.obj
 0001:0018c300       _pmpi_group_difference__   0058d300 f   msmpifec:mpif.obj
 0001:0018c300       _mpi_group_difference      0058d300 f   msmpifec:mpif.obj
 0001:0018c31e       _mpi_group_incl__          0058d31e f   msmpifec:mpif.obj
 0001:0018c31e       _PMPI_GROUP_INCL           0058d31e f   msmpifec:mpif.obj
 0001:0018c31e       _MPI_GROUP_INCL            0058d31e f   msmpifec:mpif.obj
 0001:0018c31e       _pmpi_group_incl_          0058d31e f   msmpifec:mpif.obj
 0001:0018c31e       _mpi_group_incl            0058d31e f   msmpifec:mpif.obj
 0001:0018c31e       _pmpi_group_incl__         0058d31e f   msmpifec:mpif.obj
 0001:0018c31e       _mpi_group_incl_           0058d31e f   msmpifec:mpif.obj
 0001:0018c31e       _pmpi_group_incl           0058d31e f   msmpifec:mpif.obj
 0001:0018c33f       _MPI_GROUP_EXCL            0058d33f f   msmpifec:mpif.obj
 0001:0018c33f       _pmpi_group_excl_          0058d33f f   msmpifec:mpif.obj
 0001:0018c33f       _mpi_group_excl            0058d33f f   msmpifec:mpif.obj
 0001:0018c33f       _mpi_group_excl__          0058d33f f   msmpifec:mpif.obj
 0001:0018c33f       _mpi_group_excl_           0058d33f f   msmpifec:mpif.obj
 0001:0018c33f       _PMPI_GROUP_EXCL           0058d33f f   msmpifec:mpif.obj
 0001:0018c33f       _pmpi_group_excl__         0058d33f f   msmpifec:mpif.obj
 0001:0018c33f       _pmpi_group_excl           0058d33f f   msmpifec:mpif.obj
 0001:0018c360       _MPI_GROUP_RANGE_INCL      0058d360 f   msmpifec:mpif.obj
 0001:0018c360       _mpi_group_range_incl      0058d360 f   msmpifec:mpif.obj
 0001:0018c360       _mpi_group_range_incl_     0058d360 f   msmpifec:mpif.obj
 0001:0018c360       _mpi_group_range_incl__    0058d360 f   msmpifec:mpif.obj
 0001:0018c360       _pmpi_group_range_incl__   0058d360 f   msmpifec:mpif.obj
 0001:0018c360       _PMPI_GROUP_RANGE_INCL     0058d360 f   msmpifec:mpif.obj
 0001:0018c360       _pmpi_group_range_incl     0058d360 f   msmpifec:mpif.obj
 0001:0018c360       _pmpi_group_range_incl_    0058d360 f   msmpifec:mpif.obj
 0001:0018c381       _mpi_group_range_excl_     0058d381 f   msmpifec:mpif.obj
 0001:0018c381       _pmpi_group_range_excl     0058d381 f   msmpifec:mpif.obj
 0001:0018c381       _PMPI_GROUP_RANGE_EXCL     0058d381 f   msmpifec:mpif.obj
 0001:0018c381       _mpi_group_range_excl      0058d381 f   msmpifec:mpif.obj
 0001:0018c381       _pmpi_group_range_excl__   0058d381 f   msmpifec:mpif.obj
 0001:0018c381       _MPI_GROUP_RANGE_EXCL      0058d381 f   msmpifec:mpif.obj
 0001:0018c381       _mpi_group_range_excl__    0058d381 f   msmpifec:mpif.obj
 0001:0018c381       _pmpi_group_range_excl_    0058d381 f   msmpifec:mpif.obj
 0001:0018c3a2       _pmpi_group_free_          0058d3a2 f   msmpifec:mpif.obj
 0001:0018c3a2       _PMPI_GROUP_FREE           0058d3a2 f   msmpifec:mpif.obj
 0001:0018c3a2       _mpi_group_free__          0058d3a2 f   msmpifec:mpif.obj
 0001:0018c3a2       _pmpi_group_free           0058d3a2 f   msmpifec:mpif.obj
 0001:0018c3a2       _MPI_GROUP_FREE            0058d3a2 f   msmpifec:mpif.obj
 0001:0018c3a2       _mpi_group_free            0058d3a2 f   msmpifec:mpif.obj
 0001:0018c3a2       _mpi_group_free_           0058d3a2 f   msmpifec:mpif.obj
 0001:0018c3a2       _pmpi_group_free__         0058d3a2 f   msmpifec:mpif.obj
 0001:0018c3b6       _MPI_COMM_SIZE             0058d3b6 f   msmpifec:mpif.obj
 0001:0018c3b6       _pmpi_comm_size_           0058d3b6 f   msmpifec:mpif.obj
 0001:0018c3b6       _PMPI_COMM_SIZE            0058d3b6 f   msmpifec:mpif.obj
 0001:0018c3b6       _mpi_comm_size_            0058d3b6 f   msmpifec:mpif.obj
 0001:0018c3b6       _pmpi_comm_size__          0058d3b6 f   msmpifec:mpif.obj
 0001:0018c3b6       _pmpi_comm_size            0058d3b6 f   msmpifec:mpif.obj
 0001:0018c3b6       _mpi_comm_size__           0058d3b6 f   msmpifec:mpif.obj
 0001:0018c3b6       _mpi_comm_size             0058d3b6 f   msmpifec:mpif.obj
 0001:0018c3cf       _PMPI_COMM_RANK            0058d3cf f   msmpifec:mpif.obj
 0001:0018c3cf       _mpi_comm_rank             0058d3cf f   msmpifec:mpif.obj
 0001:0018c3cf       _pmpi_comm_rank_           0058d3cf f   msmpifec:mpif.obj
 0001:0018c3cf       _mpi_comm_rank__           0058d3cf f   msmpifec:mpif.obj
 0001:0018c3cf       _pmpi_comm_rank__          0058d3cf f   msmpifec:mpif.obj
 0001:0018c3cf       _mpi_comm_rank_            0058d3cf f   msmpifec:mpif.obj
 0001:0018c3cf       _MPI_COMM_RANK             0058d3cf f   msmpifec:mpif.obj
 0001:0018c3cf       _pmpi_comm_rank            0058d3cf f   msmpifec:mpif.obj
 0001:0018c3e8       _MPI_COMM_COMPARE          0058d3e8 f   msmpifec:mpif.obj
 0001:0018c3e8       _mpi_comm_compare__        0058d3e8 f   msmpifec:mpif.obj
 0001:0018c3e8       _pmpi_comm_compare_        0058d3e8 f   msmpifec:mpif.obj
 0001:0018c3e8       _mpi_comm_compare          0058d3e8 f   msmpifec:mpif.obj
 0001:0018c3e8       _pmpi_comm_compare__       0058d3e8 f   msmpifec:mpif.obj
 0001:0018c3e8       _pmpi_comm_compare         0058d3e8 f   msmpifec:mpif.obj
 0001:0018c3e8       _PMPI_COMM_COMPARE         0058d3e8 f   msmpifec:mpif.obj
 0001:0018c3e8       _mpi_comm_compare_         0058d3e8 f   msmpifec:mpif.obj
 0001:0018c406       _MPI_COMM_DUP              0058d406 f   msmpifec:mpif.obj
 0001:0018c406       _PMPI_COMM_DUP             0058d406 f   msmpifec:mpif.obj
 0001:0018c406       _pmpi_comm_dup             0058d406 f   msmpifec:mpif.obj
 0001:0018c406       _pmpi_comm_dup__           0058d406 f   msmpifec:mpif.obj
 0001:0018c406       _mpi_comm_dup__            0058d406 f   msmpifec:mpif.obj
 0001:0018c406       _pmpi_comm_dup_            0058d406 f   msmpifec:mpif.obj
 0001:0018c406       _mpi_comm_dup_             0058d406 f   msmpifec:mpif.obj
 0001:0018c406       _mpi_comm_dup              0058d406 f   msmpifec:mpif.obj
 0001:0018c41f       _pmpi_comm_create_         0058d41f f   msmpifec:mpif.obj
 0001:0018c41f       _pmpi_comm_create__        0058d41f f   msmpifec:mpif.obj
 0001:0018c41f       _MPI_COMM_CREATE           0058d41f f   msmpifec:mpif.obj
 0001:0018c41f       _mpi_comm_create_          0058d41f f   msmpifec:mpif.obj
 0001:0018c41f       _PMPI_COMM_CREATE          0058d41f f   msmpifec:mpif.obj
 0001:0018c41f       _mpi_comm_create           0058d41f f   msmpifec:mpif.obj
 0001:0018c41f       _mpi_comm_create__         0058d41f f   msmpifec:mpif.obj
 0001:0018c41f       _pmpi_comm_create          0058d41f f   msmpifec:mpif.obj
 0001:0018c43d       _mpi_comm_split__          0058d43d f   msmpifec:mpif.obj
 0001:0018c43d       _PMPI_COMM_SPLIT           0058d43d f   msmpifec:mpif.obj
 0001:0018c43d       _pmpi_comm_split__         0058d43d f   msmpifec:mpif.obj
 0001:0018c43d       _pmpi_comm_split           0058d43d f   msmpifec:mpif.obj
 0001:0018c43d       _pmpi_comm_split_          0058d43d f   msmpifec:mpif.obj
 0001:0018c43d       _mpi_comm_split            0058d43d f   msmpifec:mpif.obj
 0001:0018c43d       _MPI_COMM_SPLIT            0058d43d f   msmpifec:mpif.obj
 0001:0018c43d       _mpi_comm_split_           0058d43d f   msmpifec:mpif.obj
 0001:0018c460       _MPI_COMM_FREE             0058d460 f   msmpifec:mpif.obj
 0001:0018c460       _pmpi_comm_free_           0058d460 f   msmpifec:mpif.obj
 0001:0018c460       _mpi_comm_free_            0058d460 f   msmpifec:mpif.obj
 0001:0018c460       _pmpi_comm_free__          0058d460 f   msmpifec:mpif.obj
 0001:0018c460       _mpi_comm_free             0058d460 f   msmpifec:mpif.obj
 0001:0018c460       _PMPI_COMM_FREE            0058d460 f   msmpifec:mpif.obj
 0001:0018c460       _mpi_comm_free__           0058d460 f   msmpifec:mpif.obj
 0001:0018c460       _pmpi_comm_free            0058d460 f   msmpifec:mpif.obj
 0001:0018c474       _MPI_COMM_TEST_INTER       0058d474 f   msmpifec:mpif.obj
 0001:0018c474       _mpi_comm_test_inter_      0058d474 f   msmpifec:mpif.obj
 0001:0018c474       _pmpi_comm_test_inter_     0058d474 f   msmpifec:mpif.obj
 0001:0018c474       _PMPI_COMM_TEST_INTER      0058d474 f   msmpifec:mpif.obj
 0001:0018c474       _pmpi_comm_test_inter      0058d474 f   msmpifec:mpif.obj
 0001:0018c474       _mpi_comm_test_inter__     0058d474 f   msmpifec:mpif.obj
 0001:0018c474       _mpi_comm_test_inter       0058d474 f   msmpifec:mpif.obj
 0001:0018c474       _pmpi_comm_test_inter__    0058d474 f   msmpifec:mpif.obj
 0001:0018c49b       _mpi_comm_remote_size      0058d49b f   msmpifec:mpif.obj
 0001:0018c49b       _MPI_COMM_REMOTE_SIZE      0058d49b f   msmpifec:mpif.obj
 0001:0018c49b       _mpi_comm_remote_size_     0058d49b f   msmpifec:mpif.obj
 0001:0018c49b       _mpi_comm_remote_size__    0058d49b f   msmpifec:mpif.obj
 0001:0018c49b       _pmpi_comm_remote_size_    0058d49b f   msmpifec:mpif.obj
 0001:0018c49b       _PMPI_COMM_REMOTE_SIZE     0058d49b f   msmpifec:mpif.obj
 0001:0018c49b       _pmpi_comm_remote_size__   0058d49b f   msmpifec:mpif.obj
 0001:0018c49b       _pmpi_comm_remote_size     0058d49b f   msmpifec:mpif.obj
 0001:0018c4b4       _pmpi_comm_remote_group_   0058d4b4 f   msmpifec:mpif.obj
 0001:0018c4b4       _pmpi_comm_remote_group    0058d4b4 f   msmpifec:mpif.obj
 0001:0018c4b4       _MPI_COMM_REMOTE_GROUP     0058d4b4 f   msmpifec:mpif.obj
 0001:0018c4b4       _mpi_comm_remote_group     0058d4b4 f   msmpifec:mpif.obj
 0001:0018c4b4       _PMPI_COMM_REMOTE_GROUP    0058d4b4 f   msmpifec:mpif.obj
 0001:0018c4b4       _mpi_comm_remote_group__   0058d4b4 f   msmpifec:mpif.obj
 0001:0018c4b4       _pmpi_comm_remote_group__  0058d4b4 f   msmpifec:mpif.obj
 0001:0018c4b4       _mpi_comm_remote_group_    0058d4b4 f   msmpifec:mpif.obj
 0001:0018c4cd       _pmpi_intercomm_create__   0058d4cd f   msmpifec:mpif.obj
 0001:0018c4cd       _MPI_INTERCOMM_CREATE      0058d4cd f   msmpifec:mpif.obj
 0001:0018c4cd       _mpi_intercomm_create      0058d4cd f   msmpifec:mpif.obj
 0001:0018c4cd       _mpi_intercomm_create_     0058d4cd f   msmpifec:mpif.obj
 0001:0018c4cd       _pmpi_intercomm_create_    0058d4cd f   msmpifec:mpif.obj
 0001:0018c4cd       _mpi_intercomm_create__    0058d4cd f   msmpifec:mpif.obj
 0001:0018c4cd       _pmpi_intercomm_create     0058d4cd f   msmpifec:mpif.obj
 0001:0018c4cd       _PMPI_INTERCOMM_CREATE     0058d4cd f   msmpifec:mpif.obj
 0001:0018c4fa       _mpi_intercomm_merge__     0058d4fa f   msmpifec:mpif.obj
 0001:0018c4fa       _pmpi_intercomm_merge__    0058d4fa f   msmpifec:mpif.obj
 0001:0018c4fa       _pmpi_intercomm_merge      0058d4fa f   msmpifec:mpif.obj
 0001:0018c4fa       _mpi_intercomm_merge_      0058d4fa f   msmpifec:mpif.obj
 0001:0018c4fa       _MPI_INTERCOMM_MERGE       0058d4fa f   msmpifec:mpif.obj
 0001:0018c4fa       _pmpi_intercomm_merge_     0058d4fa f   msmpifec:mpif.obj
 0001:0018c4fa       _mpi_intercomm_merge       0058d4fa f   msmpifec:mpif.obj
 0001:0018c4fa       _PMPI_INTERCOMM_MERGE      0058d4fa f   msmpifec:mpif.obj
 0001:0018c51e       _MPI_KEYVAL_FREE           0058d51e f   msmpifec:mpif.obj
 0001:0018c51e       _mpi_keyval_free           0058d51e f   msmpifec:mpif.obj
 0001:0018c51e       _mpi_keyval_free_          0058d51e f   msmpifec:mpif.obj
 0001:0018c51e       _mpi_keyval_free__         0058d51e f   msmpifec:mpif.obj
 0001:0018c51e       _PMPI_KEYVAL_FREE          0058d51e f   msmpifec:mpif.obj
 0001:0018c51e       _pmpi_keyval_free_         0058d51e f   msmpifec:mpif.obj
 0001:0018c51e       _pmpi_keyval_free__        0058d51e f   msmpifec:mpif.obj
 0001:0018c51e       _pmpi_keyval_free          0058d51e f   msmpifec:mpif.obj
 0001:0018c532       _mpi_attr_put              0058d532 f   msmpifec:mpif.obj
 0001:0018c532       _pmpi_attr_put             0058d532 f   msmpifec:mpif.obj
 0001:0018c532       _MPI_ATTR_PUT              0058d532 f   msmpifec:mpif.obj
 0001:0018c532       _mpi_attr_put_             0058d532 f   msmpifec:mpif.obj
 0001:0018c532       _pmpi_attr_put_            0058d532 f   msmpifec:mpif.obj
 0001:0018c532       _PMPI_ATTR_PUT             0058d532 f   msmpifec:mpif.obj
 0001:0018c532       _pmpi_attr_put__           0058d532 f   msmpifec:mpif.obj
 0001:0018c532       _mpi_attr_put__            0058d532 f   msmpifec:mpif.obj
 0001:0018c552       _MPI_ATTR_GET              0058d552 f   msmpifec:mpif.obj
 0001:0018c552       _pmpi_attr_get             0058d552 f   msmpifec:mpif.obj
 0001:0018c552       _pmpi_attr_get__           0058d552 f   msmpifec:mpif.obj
 0001:0018c552       _mpi_attr_get              0058d552 f   msmpifec:mpif.obj
 0001:0018c552       _mpi_attr_get__            0058d552 f   msmpifec:mpif.obj
 0001:0018c552       _PMPI_ATTR_GET             0058d552 f   msmpifec:mpif.obj
 0001:0018c552       _pmpi_attr_get_            0058d552 f   msmpifec:mpif.obj
 0001:0018c552       _mpi_attr_get_             0058d552 f   msmpifec:mpif.obj
 0001:0018c59b       _mpi_attr_delete_          0058d59b f   msmpifec:mpif.obj
 0001:0018c59b       _PMPI_ATTR_DELETE          0058d59b f   msmpifec:mpif.obj
 0001:0018c59b       _MPI_ATTR_DELETE           0058d59b f   msmpifec:mpif.obj
 0001:0018c59b       _pmpi_attr_delete_         0058d59b f   msmpifec:mpif.obj
 0001:0018c59b       _mpi_attr_delete           0058d59b f   msmpifec:mpif.obj
 0001:0018c59b       _mpi_attr_delete__         0058d59b f   msmpifec:mpif.obj
 0001:0018c59b       _pmpi_attr_delete__        0058d59b f   msmpifec:mpif.obj
 0001:0018c59b       _pmpi_attr_delete          0058d59b f   msmpifec:mpif.obj
 0001:0018c5b6       _pmpi_topo_test_           0058d5b6 f   msmpifec:mpif.obj
 0001:0018c5b6       _pmpi_topo_test            0058d5b6 f   msmpifec:mpif.obj
 0001:0018c5b6       _pmpi_topo_test__          0058d5b6 f   msmpifec:mpif.obj
 0001:0018c5b6       _mpi_topo_test__           0058d5b6 f   msmpifec:mpif.obj
 0001:0018c5b6       _mpi_topo_test             0058d5b6 f   msmpifec:mpif.obj
 0001:0018c5b6       _MPI_TOPO_TEST             0058d5b6 f   msmpifec:mpif.obj
 0001:0018c5b6       _mpi_topo_test_            0058d5b6 f   msmpifec:mpif.obj
 0001:0018c5b6       _PMPI_TOPO_TEST            0058d5b6 f   msmpifec:mpif.obj
 0001:0018c5cf       _pmpi_cart_create_         0058d5cf f   msmpifec:mpif.obj
 0001:0018c5cf       _mpi_cart_create           0058d5cf f   msmpifec:mpif.obj
 0001:0018c5cf       _pmpi_cart_create          0058d5cf f   msmpifec:mpif.obj
 0001:0018c5cf       _mpi_cart_create_          0058d5cf f   msmpifec:mpif.obj
 0001:0018c5cf       _pmpi_cart_create__        0058d5cf f   msmpifec:mpif.obj
 0001:0018c5cf       _PMPI_CART_CREATE          0058d5cf f   msmpifec:mpif.obj
 0001:0018c5cf       _MPI_CART_CREATE           0058d5cf f   msmpifec:mpif.obj
 0001:0018c5cf       _mpi_cart_create__         0058d5cf f   msmpifec:mpif.obj
 0001:0018c649       _MPI_DIMS_CREATE           0058d649 f   msmpifec:mpif.obj
 0001:0018c649       _pmpi_dims_create__        0058d649 f   msmpifec:mpif.obj
 0001:0018c649       _PMPI_DIMS_CREATE          0058d649 f   msmpifec:mpif.obj
 0001:0018c649       _pmpi_dims_create          0058d649 f   msmpifec:mpif.obj
 0001:0018c649       _mpi_dims_create           0058d649 f   msmpifec:mpif.obj
 0001:0018c649       _pmpi_dims_create_         0058d649 f   msmpifec:mpif.obj
 0001:0018c649       _mpi_dims_create__         0058d649 f   msmpifec:mpif.obj
 0001:0018c649       _mpi_dims_create_          0058d649 f   msmpifec:mpif.obj
 0001:0018c667       _mpi_graph_create__        0058d667 f   msmpifec:mpif.obj
 0001:0018c667       _mpi_graph_create          0058d667 f   msmpifec:mpif.obj
 0001:0018c667       _pmpi_graph_create__       0058d667 f   msmpifec:mpif.obj
 0001:0018c667       _MPI_GRAPH_CREATE          0058d667 f   msmpifec:mpif.obj
 0001:0018c667       _PMPI_GRAPH_CREATE         0058d667 f   msmpifec:mpif.obj
 0001:0018c667       _mpi_graph_create_         0058d667 f   msmpifec:mpif.obj
 0001:0018c667       _pmpi_graph_create         0058d667 f   msmpifec:mpif.obj
 0001:0018c667       _pmpi_graph_create_        0058d667 f   msmpifec:mpif.obj
 0001:0018c690       _mpi_graphdims_get_        0058d690 f   msmpifec:mpif.obj
 0001:0018c690       _PMPI_GRAPHDIMS_GET        0058d690 f   msmpifec:mpif.obj
 0001:0018c690       _mpi_graphdims_get__       0058d690 f   msmpifec:mpif.obj
 0001:0018c690       _pmpi_graphdims_get_       0058d690 f   msmpifec:mpif.obj
 0001:0018c690       _pmpi_graphdims_get__      0058d690 f   msmpifec:mpif.obj
 0001:0018c690       _pmpi_graphdims_get        0058d690 f   msmpifec:mpif.obj
 0001:0018c690       _mpi_graphdims_get         0058d690 f   msmpifec:mpif.obj
 0001:0018c690       _MPI_GRAPHDIMS_GET         0058d690 f   msmpifec:mpif.obj
 0001:0018c6ac       _pmpi_graph_get_           0058d6ac f   msmpifec:mpif.obj
 0001:0018c6ac       _mpi_graph_get__           0058d6ac f   msmpifec:mpif.obj
 0001:0018c6ac       _MPI_GRAPH_GET             0058d6ac f   msmpifec:mpif.obj
 0001:0018c6ac       _mpi_graph_get             0058d6ac f   msmpifec:mpif.obj
 0001:0018c6ac       _mpi_graph_get_            0058d6ac f   msmpifec:mpif.obj
 0001:0018c6ac       _PMPI_GRAPH_GET            0058d6ac f   msmpifec:mpif.obj
 0001:0018c6ac       _pmpi_graph_get            0058d6ac f   msmpifec:mpif.obj
 0001:0018c6ac       _pmpi_graph_get__          0058d6ac f   msmpifec:mpif.obj
 0001:0018c6d2       _mpi_cartdim_get__         0058d6d2 f   msmpifec:mpif.obj
 0001:0018c6d2       _pmpi_cartdim_get          0058d6d2 f   msmpifec:mpif.obj
 0001:0018c6d2       _pmpi_cartdim_get__        0058d6d2 f   msmpifec:mpif.obj
 0001:0018c6d2       _PMPI_CARTDIM_GET          0058d6d2 f   msmpifec:mpif.obj
 0001:0018c6d2       _mpi_cartdim_get           0058d6d2 f   msmpifec:mpif.obj
 0001:0018c6d2       _pmpi_cartdim_get_         0058d6d2 f   msmpifec:mpif.obj
 0001:0018c6d2       _mpi_cartdim_get_          0058d6d2 f   msmpifec:mpif.obj
 0001:0018c6d2       _MPI_CARTDIM_GET           0058d6d2 f   msmpifec:mpif.obj
 0001:0018c6eb       _mpi_cart_get__            0058d6eb f   msmpifec:mpif.obj
 0001:0018c6eb       _mpi_cart_get_             0058d6eb f   msmpifec:mpif.obj
 0001:0018c6eb       _MPI_CART_GET              0058d6eb f   msmpifec:mpif.obj
 0001:0018c6eb       _mpi_cart_get              0058d6eb f   msmpifec:mpif.obj
 0001:0018c6eb       _pmpi_cart_get             0058d6eb f   msmpifec:mpif.obj
 0001:0018c6eb       _pmpi_cart_get_            0058d6eb f   msmpifec:mpif.obj
 0001:0018c6eb       _pmpi_cart_get__           0058d6eb f   msmpifec:mpif.obj
 0001:0018c6eb       _PMPI_CART_GET             0058d6eb f   msmpifec:mpif.obj
 0001:0018c729       _mpi_cart_rank             0058d729 f   msmpifec:mpif.obj
 0001:0018c729       _MPI_CART_RANK             0058d729 f   msmpifec:mpif.obj
 0001:0018c729       _mpi_cart_rank__           0058d729 f   msmpifec:mpif.obj
 0001:0018c729       _PMPI_CART_RANK            0058d729 f   msmpifec:mpif.obj
 0001:0018c729       _mpi_cart_rank_            0058d729 f   msmpifec:mpif.obj
 0001:0018c729       _pmpi_cart_rank            0058d729 f   msmpifec:mpif.obj
 0001:0018c729       _pmpi_cart_rank__          0058d729 f   msmpifec:mpif.obj
 0001:0018c729       _pmpi_cart_rank_           0058d729 f   msmpifec:mpif.obj
 0001:0018c745       _MPI_CART_COORDS           0058d745 f   msmpifec:mpif.obj
 0001:0018c745       _pmpi_cart_coords          0058d745 f   msmpifec:mpif.obj
 0001:0018c745       _mpi_cart_coords__         0058d745 f   msmpifec:mpif.obj
 0001:0018c745       _pmpi_cart_coords_         0058d745 f   msmpifec:mpif.obj
 0001:0018c745       _pmpi_cart_coords__        0058d745 f   msmpifec:mpif.obj
 0001:0018c745       _mpi_cart_coords           0058d745 f   msmpifec:mpif.obj
 0001:0018c745       _mpi_cart_coords_          0058d745 f   msmpifec:mpif.obj
 0001:0018c745       _PMPI_CART_COORDS          0058d745 f   msmpifec:mpif.obj
 0001:0018c768       _MPI_GRAPH_NEIGHBORS_COUNT 0058d768 f   msmpifec:mpif.obj
 0001:0018c768       _mpi_graph_neighbors_count_ 0058d768 f   msmpifec:mpif.obj
 0001:0018c768       _pmpi_graph_neighbors_count 0058d768 f   msmpifec:mpif.obj
 0001:0018c768       _mpi_graph_neighbors_count__ 0058d768 f   msmpifec:mpif.obj
 0001:0018c768       _mpi_graph_neighbors_count 0058d768 f   msmpifec:mpif.obj
 0001:0018c768       _pmpi_graph_neighbors_count__ 0058d768 f   msmpifec:mpif.obj
 0001:0018c768       _pmpi_graph_neighbors_count_ 0058d768 f   msmpifec:mpif.obj
 0001:0018c768       _PMPI_GRAPH_NEIGHBORS_COUNT 0058d768 f   msmpifec:mpif.obj
 0001:0018c786       _PMPI_GRAPH_NEIGHBORS      0058d786 f   msmpifec:mpif.obj
 0001:0018c786       _pmpi_graph_neighbors__    0058d786 f   msmpifec:mpif.obj
 0001:0018c786       _mpi_graph_neighbors_      0058d786 f   msmpifec:mpif.obj
 0001:0018c786       _pmpi_graph_neighbors      0058d786 f   msmpifec:mpif.obj
 0001:0018c786       _pmpi_graph_neighbors_     0058d786 f   msmpifec:mpif.obj
 0001:0018c786       _mpi_graph_neighbors       0058d786 f   msmpifec:mpif.obj
 0001:0018c786       _mpi_graph_neighbors__     0058d786 f   msmpifec:mpif.obj
 0001:0018c786       _MPI_GRAPH_NEIGHBORS       0058d786 f   msmpifec:mpif.obj
 0001:0018c7a9       _pmpi_cart_shift__         0058d7a9 f   msmpifec:mpif.obj
 0001:0018c7a9       _mpi_cart_shift            0058d7a9 f   msmpifec:mpif.obj
 0001:0018c7a9       _PMPI_CART_SHIFT           0058d7a9 f   msmpifec:mpif.obj
 0001:0018c7a9       _pmpi_cart_shift_          0058d7a9 f   msmpifec:mpif.obj
 0001:0018c7a9       _MPI_CART_SHIFT            0058d7a9 f   msmpifec:mpif.obj
 0001:0018c7a9       _mpi_cart_shift_           0058d7a9 f   msmpifec:mpif.obj
 0001:0018c7a9       _mpi_cart_shift__          0058d7a9 f   msmpifec:mpif.obj
 0001:0018c7a9       _pmpi_cart_shift           0058d7a9 f   msmpifec:mpif.obj
 0001:0018c7cf       _pmpi_cart_sub_            0058d7cf f   msmpifec:mpif.obj
 0001:0018c7cf       _mpi_cart_sub__            0058d7cf f   msmpifec:mpif.obj
 0001:0018c7cf       _MPI_CART_SUB              0058d7cf f   msmpifec:mpif.obj
 0001:0018c7cf       _pmpi_cart_sub__           0058d7cf f   msmpifec:mpif.obj
 0001:0018c7cf       _mpi_cart_sub              0058d7cf f   msmpifec:mpif.obj
 0001:0018c7cf       _mpi_cart_sub_             0058d7cf f   msmpifec:mpif.obj
 0001:0018c7cf       _PMPI_CART_SUB             0058d7cf f   msmpifec:mpif.obj
 0001:0018c7cf       _pmpi_cart_sub             0058d7cf f   msmpifec:mpif.obj
 0001:0018c7eb       _pmpi_cart_map_            0058d7eb f   msmpifec:mpif.obj
 0001:0018c7eb       _pmpi_cart_map             0058d7eb f   msmpifec:mpif.obj
 0001:0018c7eb       _mpi_cart_map_             0058d7eb f   msmpifec:mpif.obj
 0001:0018c7eb       _mpi_cart_map              0058d7eb f   msmpifec:mpif.obj
 0001:0018c7eb       _pmpi_cart_map__           0058d7eb f   msmpifec:mpif.obj
 0001:0018c7eb       _mpi_cart_map__            0058d7eb f   msmpifec:mpif.obj
 0001:0018c7eb       _MPI_CART_MAP              0058d7eb f   msmpifec:mpif.obj
 0001:0018c7eb       _PMPI_CART_MAP             0058d7eb f   msmpifec:mpif.obj
 0001:0018c80f       _mpi_graph_map_            0058d80f f   msmpifec:mpif.obj
 0001:0018c80f       _pmpi_graph_map__          0058d80f f   msmpifec:mpif.obj
 0001:0018c80f       _mpi_graph_map             0058d80f f   msmpifec:mpif.obj
 0001:0018c80f       _PMPI_GRAPH_MAP            0058d80f f   msmpifec:mpif.obj
 0001:0018c80f       _pmpi_graph_map_           0058d80f f   msmpifec:mpif.obj
 0001:0018c80f       _mpi_graph_map__           0058d80f f   msmpifec:mpif.obj
 0001:0018c80f       _pmpi_graph_map            0058d80f f   msmpifec:mpif.obj
 0001:0018c80f       _MPI_GRAPH_MAP             0058d80f f   msmpifec:mpif.obj
 0001:0018c833       _pmpi_get_processor_name__ 0058d833 f   msmpifec:mpif.obj
 0001:0018c833       _pmpi_get_processor_name_  0058d833 f   msmpifec:mpif.obj
 0001:0018c833       _MPI_GET_PROCESSOR_NAME    0058d833 f   msmpifec:mpif.obj
 0001:0018c833       _pmpi_get_processor_name   0058d833 f   msmpifec:mpif.obj
 0001:0018c833       _mpi_get_processor_name    0058d833 f   msmpifec:mpif.obj
 0001:0018c833       _PMPI_GET_PROCESSOR_NAME   0058d833 f   msmpifec:mpif.obj
 0001:0018c833       _mpi_get_processor_name__  0058d833 f   msmpifec:mpif.obj
 0001:0018c833       _mpi_get_processor_name_   0058d833 f   msmpifec:mpif.obj
 0001:0018c8a1       _mpi_get_version__         0058d8a1 f   msmpifec:mpif.obj
 0001:0018c8a1       _MPI_GET_VERSION           0058d8a1 f   msmpifec:mpif.obj
 0001:0018c8a1       _pmpi_get_version_         0058d8a1 f   msmpifec:mpif.obj
 0001:0018c8a1       _mpi_get_version           0058d8a1 f   msmpifec:mpif.obj
 0001:0018c8a1       _PMPI_GET_VERSION          0058d8a1 f   msmpifec:mpif.obj
 0001:0018c8a1       _mpi_get_version_          0058d8a1 f   msmpifec:mpif.obj
 0001:0018c8a1       _pmpi_get_version__        0058d8a1 f   msmpifec:mpif.obj
 0001:0018c8a1       _pmpi_get_version          0058d8a1 f   msmpifec:mpif.obj
 0001:0018c8b8       _mpi_errhandler_set        0058d8b8 f   msmpifec:mpif.obj
 0001:0018c8b8       _pmpi_errhandler_set__     0058d8b8 f   msmpifec:mpif.obj
 0001:0018c8b8       _pmpi_errhandler_set       0058d8b8 f   msmpifec:mpif.obj
 0001:0018c8b8       _pmpi_errhandler_set_      0058d8b8 f   msmpifec:mpif.obj
 0001:0018c8b8       _MPI_ERRHANDLER_SET        0058d8b8 f   msmpifec:mpif.obj
 0001:0018c8b8       _PMPI_ERRHANDLER_SET       0058d8b8 f   msmpifec:mpif.obj
 0001:0018c8b8       _mpi_errhandler_set_       0058d8b8 f   msmpifec:mpif.obj
 0001:0018c8b8       _mpi_errhandler_set__      0058d8b8 f   msmpifec:mpif.obj
 0001:0018c8d3       _MPI_ERRHANDLER_GET        0058d8d3 f   msmpifec:mpif.obj
 0001:0018c8d3       _pmpi_errhandler_get_      0058d8d3 f   msmpifec:mpif.obj
 0001:0018c8d3       _mpi_errhandler_get        0058d8d3 f   msmpifec:mpif.obj
 0001:0018c8d3       _mpi_errhandler_get_       0058d8d3 f   msmpifec:mpif.obj
 0001:0018c8d3       _pmpi_errhandler_get__     0058d8d3 f   msmpifec:mpif.obj
 0001:0018c8d3       _PMPI_ERRHANDLER_GET       0058d8d3 f   msmpifec:mpif.obj
 0001:0018c8d3       _mpi_errhandler_get__      0058d8d3 f   msmpifec:mpif.obj
 0001:0018c8d3       _pmpi_errhandler_get       0058d8d3 f   msmpifec:mpif.obj
 0001:0018c8ec       _pmpi_errhandler_free_     0058d8ec f   msmpifec:mpif.obj
 0001:0018c8ec       _mpi_errhandler_free       0058d8ec f   msmpifec:mpif.obj
 0001:0018c8ec       _PMPI_ERRHANDLER_FREE      0058d8ec f   msmpifec:mpif.obj
 0001:0018c8ec       _pmpi_errhandler_free      0058d8ec f   msmpifec:mpif.obj
 0001:0018c8ec       _mpi_errhandler_free_      0058d8ec f   msmpifec:mpif.obj
 0001:0018c8ec       _mpi_errhandler_free__     0058d8ec f   msmpifec:mpif.obj
 0001:0018c8ec       _MPI_ERRHANDLER_FREE       0058d8ec f   msmpifec:mpif.obj
 0001:0018c8ec       _pmpi_errhandler_free__    0058d8ec f   msmpifec:mpif.obj
 0001:0018c900       _MPI_ERROR_STRING          0058d900 f   msmpifec:mpif.obj
 0001:0018c900       _mpi_error_string          0058d900 f   msmpifec:mpif.obj
 0001:0018c900       _mpi_error_string_         0058d900 f   msmpifec:mpif.obj
 0001:0018c900       _pmpi_error_string_        0058d900 f   msmpifec:mpif.obj
 0001:0018c900       _pmpi_error_string__       0058d900 f   msmpifec:mpif.obj
 0001:0018c900       _mpi_error_string__        0058d900 f   msmpifec:mpif.obj
 0001:0018c900       _PMPI_ERROR_STRING         0058d900 f   msmpifec:mpif.obj
 0001:0018c900       _pmpi_error_string         0058d900 f   msmpifec:mpif.obj
 0001:0018c973       _pmpi_error_class__        0058d973 f   msmpifec:mpif.obj
 0001:0018c973       _mpi_error_class__         0058d973 f   msmpifec:mpif.obj
 0001:0018c973       _mpi_error_class           0058d973 f   msmpifec:mpif.obj
 0001:0018c973       _pmpi_error_class          0058d973 f   msmpifec:mpif.obj
 0001:0018c973       _MPI_ERROR_CLASS           0058d973 f   msmpifec:mpif.obj
 0001:0018c973       _pmpi_error_class_         0058d973 f   msmpifec:mpif.obj
 0001:0018c973       _mpi_error_class_          0058d973 f   msmpifec:mpif.obj
 0001:0018c973       _PMPI_ERROR_CLASS          0058d973 f   msmpifec:mpif.obj
 0001:0018c98c       _MPI_FINALIZE              0058d98c f   msmpifec:mpif.obj
 0001:0018c98c       _mpi_finalize_             0058d98c f   msmpifec:mpif.obj
 0001:0018c98c       _pmpi_finalize__           0058d98c f   msmpifec:mpif.obj
 0001:0018c98c       _pmpi_finalize             0058d98c f   msmpifec:mpif.obj
 0001:0018c98c       _pmpi_finalize_            0058d98c f   msmpifec:mpif.obj
 0001:0018c98c       _mpi_finalize              0058d98c f   msmpifec:mpif.obj
 0001:0018c98c       _mpi_finalize__            0058d98c f   msmpifec:mpif.obj
 0001:0018c98c       _PMPI_FINALIZE             0058d98c f   msmpifec:mpif.obj
 0001:0018c99d       _pmpi_initialized          0058d99d f   msmpifec:mpif.obj
 0001:0018c99d       _pmpi_initialized_         0058d99d f   msmpifec:mpif.obj
 0001:0018c99d       _mpi_initialized_          0058d99d f   msmpifec:mpif.obj
 0001:0018c99d       _PMPI_INITIALIZED          0058d99d f   msmpifec:mpif.obj
 0001:0018c99d       _pmpi_initialized__        0058d99d f   msmpifec:mpif.obj
 0001:0018c99d       _mpi_initialized__         0058d99d f   msmpifec:mpif.obj
 0001:0018c99d       _MPI_INITIALIZED           0058d99d f   msmpifec:mpif.obj
 0001:0018c99d       _mpi_initialized           0058d99d f   msmpifec:mpif.obj
 0001:0018c9bf       _mpi_abort_                0058d9bf f   msmpifec:mpif.obj
 0001:0018c9bf       _pmpi_abort_               0058d9bf f   msmpifec:mpif.obj
 0001:0018c9bf       _mpi_abort__               0058d9bf f   msmpifec:mpif.obj
 0001:0018c9bf       _pmpi_abort__              0058d9bf f   msmpifec:mpif.obj
 0001:0018c9bf       _mpi_abort                 0058d9bf f   msmpifec:mpif.obj
 0001:0018c9bf       _MPI_ABORT                 0058d9bf f   msmpifec:mpif.obj
 0001:0018c9bf       _PMPI_ABORT                0058d9bf f   msmpifec:mpif.obj
 0001:0018c9bf       _pmpi_abort                0058d9bf f   msmpifec:mpif.obj
 0001:0018c9da       _mpi_close_port__          0058d9da f   msmpifec:mpif.obj
 0001:0018c9da       _pmpi_close_port           0058d9da f   msmpifec:mpif.obj
 0001:0018c9da       _mpi_close_port_           0058d9da f   msmpifec:mpif.obj
 0001:0018c9da       _pmpi_close_port__         0058d9da f   msmpifec:mpif.obj
 0001:0018c9da       _pmpi_close_port_          0058d9da f   msmpifec:mpif.obj
 0001:0018c9da       _PMPI_CLOSE_PORT           0058d9da f   msmpifec:mpif.obj
 0001:0018c9da       _mpi_close_port            0058d9da f   msmpifec:mpif.obj
 0001:0018c9da       _MPI_CLOSE_PORT            0058d9da f   msmpifec:mpif.obj
 0001:0018ca50       _PMPI_COMM_ACCEPT          0058da50 f   msmpifec:mpif.obj
 0001:0018ca50       _mpi_comm_accept__         0058da50 f   msmpifec:mpif.obj
 0001:0018ca50       _mpi_comm_accept           0058da50 f   msmpifec:mpif.obj
 0001:0018ca50       _mpi_comm_accept_          0058da50 f   msmpifec:mpif.obj
 0001:0018ca50       _pmpi_comm_accept__        0058da50 f   msmpifec:mpif.obj
 0001:0018ca50       _MPI_COMM_ACCEPT           0058da50 f   msmpifec:mpif.obj
 0001:0018ca50       _pmpi_comm_accept_         0058da50 f   msmpifec:mpif.obj
 0001:0018ca50       _pmpi_comm_accept          0058da50 f   msmpifec:mpif.obj
 0001:0018cad8       _mpi_comm_connect_         0058dad8 f   msmpifec:mpif.obj
 0001:0018cad8       _PMPI_COMM_CONNECT         0058dad8 f   msmpifec:mpif.obj
 0001:0018cad8       _pmpi_comm_connect_        0058dad8 f   msmpifec:mpif.obj
 0001:0018cad8       _pmpi_comm_connect__       0058dad8 f   msmpifec:mpif.obj
 0001:0018cad8       _MPI_COMM_CONNECT          0058dad8 f   msmpifec:mpif.obj
 0001:0018cad8       _pmpi_comm_connect         0058dad8 f   msmpifec:mpif.obj
 0001:0018cad8       _mpi_comm_connect          0058dad8 f   msmpifec:mpif.obj
 0001:0018cad8       _mpi_comm_connect__        0058dad8 f   msmpifec:mpif.obj
 0001:0018cb60       _mpi_comm_disconnect       0058db60 f   msmpifec:mpif.obj
 0001:0018cb60       _pmpi_comm_disconnect__    0058db60 f   msmpifec:mpif.obj
 0001:0018cb60       _MPI_COMM_DISCONNECT       0058db60 f   msmpifec:mpif.obj
 0001:0018cb60       _pmpi_comm_disconnect      0058db60 f   msmpifec:mpif.obj
 0001:0018cb60       _PMPI_COMM_DISCONNECT      0058db60 f   msmpifec:mpif.obj
 0001:0018cb60       _mpi_comm_disconnect_      0058db60 f   msmpifec:mpif.obj
 0001:0018cb60       _pmpi_comm_disconnect_     0058db60 f   msmpifec:mpif.obj
 0001:0018cb60       _mpi_comm_disconnect__     0058db60 f   msmpifec:mpif.obj
 0001:0018cb74       _mpi_comm_get_parent__     0058db74 f   msmpifec:mpif.obj
 0001:0018cb74       _PMPI_COMM_GET_PARENT      0058db74 f   msmpifec:mpif.obj
 0001:0018cb74       _mpi_comm_get_parent_      0058db74 f   msmpifec:mpif.obj
 0001:0018cb74       _pmpi_comm_get_parent      0058db74 f   msmpifec:mpif.obj
 0001:0018cb74       _pmpi_comm_get_parent_     0058db74 f   msmpifec:mpif.obj
 0001:0018cb74       _mpi_comm_get_parent       0058db74 f   msmpifec:mpif.obj
 0001:0018cb74       _MPI_COMM_GET_PARENT       0058db74 f   msmpifec:mpif.obj
 0001:0018cb74       _pmpi_comm_get_parent__    0058db74 f   msmpifec:mpif.obj
 0001:0018cb88       _mpi_comm_join__           0058db88 f   msmpifec:mpif.obj
 0001:0018cb88       _mpi_comm_join             0058db88 f   msmpifec:mpif.obj
 0001:0018cb88       _pmpi_comm_join            0058db88 f   msmpifec:mpif.obj
 0001:0018cb88       _MPI_COMM_JOIN             0058db88 f   msmpifec:mpif.obj
 0001:0018cb88       _mpi_comm_join_            0058db88 f   msmpifec:mpif.obj
 0001:0018cb88       _pmpi_comm_join__          0058db88 f   msmpifec:mpif.obj
 0001:0018cb88       _PMPI_COMM_JOIN            0058db88 f   msmpifec:mpif.obj
 0001:0018cb88       _pmpi_comm_join_           0058db88 f   msmpifec:mpif.obj
 0001:0018cba1       _MPI_COMM_SPAWN            0058dba1 f   msmpifec:mpif.obj
 0001:0018cba1       _pmpi_comm_spawn__         0058dba1 f   msmpifec:mpif.obj
 0001:0018cba1       _PMPI_COMM_SPAWN           0058dba1 f   msmpifec:mpif.obj
 0001:0018cba1       _mpi_comm_spawn__          0058dba1 f   msmpifec:mpif.obj
 0001:0018cba1       _pmpi_comm_spawn           0058dba1 f   msmpifec:mpif.obj
 0001:0018cba1       _pmpi_comm_spawn_          0058dba1 f   msmpifec:mpif.obj
 0001:0018cba1       _mpi_comm_spawn            0058dba1 f   msmpifec:mpif.obj
 0001:0018cba1       _mpi_comm_spawn_           0058dba1 f   msmpifec:mpif.obj
 0001:0018cd68       _pmpi_comm_spawn_multiple__ 0058dd68 f   msmpifec:mpif.obj
 0001:0018cd68       _PMPI_COMM_SPAWN_MULTIPLE  0058dd68 f   msmpifec:mpif.obj
 0001:0018cd68       _mpi_comm_spawn_multiple_  0058dd68 f   msmpifec:mpif.obj
 0001:0018cd68       _pmpi_comm_spawn_multiple_ 0058dd68 f   msmpifec:mpif.obj
 0001:0018cd68       _pmpi_comm_spawn_multiple  0058dd68 f   msmpifec:mpif.obj
 0001:0018cd68       _MPI_COMM_SPAWN_MULTIPLE   0058dd68 f   msmpifec:mpif.obj
 0001:0018cd68       _mpi_comm_spawn_multiple   0058dd68 f   msmpifec:mpif.obj
 0001:0018cd68       _mpi_comm_spawn_multiple__ 0058dd68 f   msmpifec:mpif.obj
 0001:0018d019       _MPI_LOOKUP_NAME           0058e019 f   msmpifec:mpif.obj
 0001:0018d019       _mpi_lookup_name__         0058e019 f   msmpifec:mpif.obj
 0001:0018d019       _mpi_lookup_name           0058e019 f   msmpifec:mpif.obj
 0001:0018d019       _pmpi_lookup_name_         0058e019 f   msmpifec:mpif.obj
 0001:0018d019       _pmpi_lookup_name          0058e019 f   msmpifec:mpif.obj
 0001:0018d019       _pmpi_lookup_name__        0058e019 f   msmpifec:mpif.obj
 0001:0018d019       _PMPI_LOOKUP_NAME          0058e019 f   msmpifec:mpif.obj
 0001:0018d019       _mpi_lookup_name_          0058e019 f   msmpifec:mpif.obj
 0001:0018d0f4       _mpi_open_port             0058e0f4 f   msmpifec:mpif.obj
 0001:0018d0f4       _pmpi_open_port            0058e0f4 f   msmpifec:mpif.obj
 0001:0018d0f4       _mpi_open_port_            0058e0f4 f   msmpifec:mpif.obj
 0001:0018d0f4       _PMPI_OPEN_PORT            0058e0f4 f   msmpifec:mpif.obj
 0001:0018d0f4       _MPI_OPEN_PORT             0058e0f4 f   msmpifec:mpif.obj
 0001:0018d0f4       _mpi_open_port__           0058e0f4 f   msmpifec:mpif.obj
 0001:0018d0f4       _pmpi_open_port_           0058e0f4 f   msmpifec:mpif.obj
 0001:0018d0f4       _pmpi_open_port__          0058e0f4 f   msmpifec:mpif.obj
 0001:0018d164       _mpi_publish_name_         0058e164 f   msmpifec:mpif.obj
 0001:0018d164       _MPI_PUBLISH_NAME          0058e164 f   msmpifec:mpif.obj
 0001:0018d164       _pmpi_publish_name         0058e164 f   msmpifec:mpif.obj
 0001:0018d164       _mpi_publish_name          0058e164 f   msmpifec:mpif.obj
 0001:0018d164       _pmpi_publish_name_        0058e164 f   msmpifec:mpif.obj
 0001:0018d164       _pmpi_publish_name__       0058e164 f   msmpifec:mpif.obj
 0001:0018d164       _mpi_publish_name__        0058e164 f   msmpifec:mpif.obj
 0001:0018d164       _PMPI_PUBLISH_NAME         0058e164 f   msmpifec:mpif.obj
 0001:0018d244       _MPI_UNPUBLISH_NAME        0058e244 f   msmpifec:mpif.obj
 0001:0018d244       _pmpi_unpublish_name       0058e244 f   msmpifec:mpif.obj
 0001:0018d244       _PMPI_UNPUBLISH_NAME       0058e244 f   msmpifec:mpif.obj
 0001:0018d244       _mpi_unpublish_name        0058e244 f   msmpifec:mpif.obj
 0001:0018d244       _mpi_unpublish_name_       0058e244 f   msmpifec:mpif.obj
 0001:0018d244       _mpi_unpublish_name__      0058e244 f   msmpifec:mpif.obj
 0001:0018d244       _pmpi_unpublish_name__     0058e244 f   msmpifec:mpif.obj
 0001:0018d244       _pmpi_unpublish_name_      0058e244 f   msmpifec:mpif.obj
 0001:0018d324       _pmpi_accumulate           0058e324 f   msmpifec:mpif.obj
 0001:0018d324       _pmpi_accumulate__         0058e324 f   msmpifec:mpif.obj
 0001:0018d324       _mpi_accumulate__          0058e324 f   msmpifec:mpif.obj
 0001:0018d324       _pmpi_accumulate_          0058e324 f   msmpifec:mpif.obj
 0001:0018d324       _mpi_accumulate            0058e324 f   msmpifec:mpif.obj
 0001:0018d324       _PMPI_ACCUMULATE           0058e324 f   msmpifec:mpif.obj
 0001:0018d324       _MPI_ACCUMULATE            0058e324 f   msmpifec:mpif.obj
 0001:0018d324       _mpi_accumulate_           0058e324 f   msmpifec:mpif.obj
 0001:0018d360       _PMPI_GET                  0058e360 f   msmpifec:mpif.obj
 0001:0018d360       _mpi_get                   0058e360 f   msmpifec:mpif.obj
 0001:0018d360       _mpi_get__                 0058e360 f   msmpifec:mpif.obj
 0001:0018d360       _mpi_get_                  0058e360 f   msmpifec:mpif.obj
 0001:0018d360       _pmpi_get                  0058e360 f   msmpifec:mpif.obj
 0001:0018d360       _pmpi_get__                0058e360 f   msmpifec:mpif.obj
 0001:0018d360       _MPI_GET                   0058e360 f   msmpifec:mpif.obj
 0001:0018d360       _pmpi_get_                 0058e360 f   msmpifec:mpif.obj
 0001:0018d397       _mpi_put                   0058e397 f   msmpifec:mpif.obj
 0001:0018d397       _mpi_put__                 0058e397 f   msmpifec:mpif.obj
 0001:0018d397       _mpi_put_                  0058e397 f   msmpifec:mpif.obj
 0001:0018d397       _pmpi_put                  0058e397 f   msmpifec:mpif.obj
 0001:0018d397       _PMPI_PUT                  0058e397 f   msmpifec:mpif.obj
 0001:0018d397       _pmpi_put__                0058e397 f   msmpifec:mpif.obj
 0001:0018d397       _MPI_PUT                   0058e397 f   msmpifec:mpif.obj
 0001:0018d397       _pmpi_put_                 0058e397 f   msmpifec:mpif.obj
 0001:0018d3ce       _mpi_win_complete          0058e3ce f   msmpifec:mpif.obj
 0001:0018d3ce       _mpi_win_complete_         0058e3ce f   msmpifec:mpif.obj
 0001:0018d3ce       _pmpi_win_complete         0058e3ce f   msmpifec:mpif.obj
 0001:0018d3ce       _PMPI_WIN_COMPLETE         0058e3ce f   msmpifec:mpif.obj
 0001:0018d3ce       _MPI_WIN_COMPLETE          0058e3ce f   msmpifec:mpif.obj
 0001:0018d3ce       _pmpi_win_complete__       0058e3ce f   msmpifec:mpif.obj
 0001:0018d3ce       _pmpi_win_complete_        0058e3ce f   msmpifec:mpif.obj
 0001:0018d3ce       _mpi_win_complete__        0058e3ce f   msmpifec:mpif.obj
 0001:0018d3e4       _PMPI_WIN_CREATE           0058e3e4 f   msmpifec:mpif.obj
 0001:0018d3e4       _mpi_win_create            0058e3e4 f   msmpifec:mpif.obj
 0001:0018d3e4       _pmpi_win_create__         0058e3e4 f   msmpifec:mpif.obj
 0001:0018d3e4       _mpi_win_create__          0058e3e4 f   msmpifec:mpif.obj
 0001:0018d3e4       _pmpi_win_create           0058e3e4 f   msmpifec:mpif.obj
 0001:0018d3e4       _MPI_WIN_CREATE            0058e3e4 f   msmpifec:mpif.obj
 0001:0018d3e4       _pmpi_win_create_          0058e3e4 f   msmpifec:mpif.obj
 0001:0018d3e4       _mpi_win_create_           0058e3e4 f   msmpifec:mpif.obj
 0001:0018d40f       _pmpi_win_fence_           0058e40f f   msmpifec:mpif.obj
 0001:0018d40f       _pmpi_win_fence            0058e40f f   msmpifec:mpif.obj
 0001:0018d40f       _mpi_win_fence__           0058e40f f   msmpifec:mpif.obj
 0001:0018d40f       _MPI_WIN_FENCE             0058e40f f   msmpifec:mpif.obj
 0001:0018d40f       _mpi_win_fence             0058e40f f   msmpifec:mpif.obj
 0001:0018d40f       _mpi_win_fence_            0058e40f f   msmpifec:mpif.obj
 0001:0018d40f       _PMPI_WIN_FENCE            0058e40f f   msmpifec:mpif.obj
 0001:0018d40f       _pmpi_win_fence__          0058e40f f   msmpifec:mpif.obj
 0001:0018d42a       _pmpi_win_free_            0058e42a f   msmpifec:mpif.obj
 0001:0018d42a       _pmpi_win_free__           0058e42a f   msmpifec:mpif.obj
 0001:0018d42a       _pmpi_win_free             0058e42a f   msmpifec:mpif.obj
 0001:0018d42a       _mpi_win_free__            0058e42a f   msmpifec:mpif.obj
 0001:0018d42a       _PMPI_WIN_FREE             0058e42a f   msmpifec:mpif.obj
 0001:0018d42a       _mpi_win_free              0058e42a f   msmpifec:mpif.obj
 0001:0018d42a       _MPI_WIN_FREE              0058e42a f   msmpifec:mpif.obj
 0001:0018d42a       _mpi_win_free_             0058e42a f   msmpifec:mpif.obj
 0001:0018d43e       _pmpi_win_get_group_       0058e43e f   msmpifec:mpif.obj
 0001:0018d43e       _MPI_WIN_GET_GROUP         0058e43e f   msmpifec:mpif.obj
 0001:0018d43e       _pmpi_win_get_group        0058e43e f   msmpifec:mpif.obj
 0001:0018d43e       _mpi_win_get_group__       0058e43e f   msmpifec:mpif.obj
 0001:0018d43e       _PMPI_WIN_GET_GROUP        0058e43e f   msmpifec:mpif.obj
 0001:0018d43e       _mpi_win_get_group_        0058e43e f   msmpifec:mpif.obj
 0001:0018d43e       _mpi_win_get_group         0058e43e f   msmpifec:mpif.obj
 0001:0018d43e       _pmpi_win_get_group__      0058e43e f   msmpifec:mpif.obj
 0001:0018d457       _mpi_win_lock              0058e457 f   msmpifec:mpif.obj
 0001:0018d457       _mpi_win_lock_             0058e457 f   msmpifec:mpif.obj
 0001:0018d457       _pmpi_win_lock__           0058e457 f   msmpifec:mpif.obj
 0001:0018d457       _PMPI_WIN_LOCK             0058e457 f   msmpifec:mpif.obj
 0001:0018d457       _mpi_win_lock__            0058e457 f   msmpifec:mpif.obj
 0001:0018d457       _MPI_WIN_LOCK              0058e457 f   msmpifec:mpif.obj
 0001:0018d457       _pmpi_win_lock             0058e457 f   msmpifec:mpif.obj
 0001:0018d457       _pmpi_win_lock_            0058e457 f   msmpifec:mpif.obj
 0001:0018d47c       _mpi_win_post__            0058e47c f   msmpifec:mpif.obj
 0001:0018d47c       _mpi_win_post              0058e47c f   msmpifec:mpif.obj
 0001:0018d47c       _pmpi_win_post             0058e47c f   msmpifec:mpif.obj
 0001:0018d47c       _mpi_win_post_             0058e47c f   msmpifec:mpif.obj
 0001:0018d47c       _PMPI_WIN_POST             0058e47c f   msmpifec:mpif.obj
 0001:0018d47c       _pmpi_win_post_            0058e47c f   msmpifec:mpif.obj
 0001:0018d47c       _pmpi_win_post__           0058e47c f   msmpifec:mpif.obj
 0001:0018d47c       _MPI_WIN_POST              0058e47c f   msmpifec:mpif.obj
 0001:0018d49c       _mpi_win_start__           0058e49c f   msmpifec:mpif.obj
 0001:0018d49c       _mpi_win_start_            0058e49c f   msmpifec:mpif.obj
 0001:0018d49c       _PMPI_WIN_START            0058e49c f   msmpifec:mpif.obj
 0001:0018d49c       _MPI_WIN_START             0058e49c f   msmpifec:mpif.obj
 0001:0018d49c       _pmpi_win_start_           0058e49c f   msmpifec:mpif.obj
 0001:0018d49c       _mpi_win_start             0058e49c f   msmpifec:mpif.obj
 0001:0018d49c       _pmpi_win_start__          0058e49c f   msmpifec:mpif.obj
 0001:0018d49c       _pmpi_win_start            0058e49c f   msmpifec:mpif.obj
 0001:0018d4bc       _PMPI_WIN_TEST             0058e4bc f   msmpifec:mpif.obj
 0001:0018d4bc       _mpi_win_test_             0058e4bc f   msmpifec:mpif.obj
 0001:0018d4bc       _pmpi_win_test__           0058e4bc f   msmpifec:mpif.obj
 0001:0018d4bc       _MPI_WIN_TEST              0058e4bc f   msmpifec:mpif.obj
 0001:0018d4bc       _mpi_win_test__            0058e4bc f   msmpifec:mpif.obj
 0001:0018d4bc       _pmpi_win_test_            0058e4bc f   msmpifec:mpif.obj
 0001:0018d4bc       _pmpi_win_test             0058e4bc f   msmpifec:mpif.obj
 0001:0018d4bc       _mpi_win_test              0058e4bc f   msmpifec:mpif.obj
 0001:0018d4d5       _PMPI_WIN_UNLOCK           0058e4d5 f   msmpifec:mpif.obj
 0001:0018d4d5       _MPI_WIN_UNLOCK            0058e4d5 f   msmpifec:mpif.obj
 0001:0018d4d5       _mpi_win_unlock            0058e4d5 f   msmpifec:mpif.obj
 0001:0018d4d5       _mpi_win_unlock__          0058e4d5 f   msmpifec:mpif.obj
 0001:0018d4d5       _mpi_win_unlock_           0058e4d5 f   msmpifec:mpif.obj
 0001:0018d4d5       _pmpi_win_unlock_          0058e4d5 f   msmpifec:mpif.obj
 0001:0018d4d5       _pmpi_win_unlock           0058e4d5 f   msmpifec:mpif.obj
 0001:0018d4d5       _pmpi_win_unlock__         0058e4d5 f   msmpifec:mpif.obj
 0001:0018d4f0       _PMPI_WIN_WAIT             0058e4f0 f   msmpifec:mpif.obj
 0001:0018d4f0       _pmpi_win_wait_            0058e4f0 f   msmpifec:mpif.obj
 0001:0018d4f0       _mpi_win_wait              0058e4f0 f   msmpifec:mpif.obj
 0001:0018d4f0       _pmpi_win_wait__           0058e4f0 f   msmpifec:mpif.obj
 0001:0018d4f0       _pmpi_win_wait             0058e4f0 f   msmpifec:mpif.obj
 0001:0018d4f0       _MPI_WIN_WAIT              0058e4f0 f   msmpifec:mpif.obj
 0001:0018d4f0       _mpi_win_wait_             0058e4f0 f   msmpifec:mpif.obj
 0001:0018d4f0       _mpi_win_wait__            0058e4f0 f   msmpifec:mpif.obj
 0001:0018d506       _PMPI_ALLTOALLW            0058e506 f   msmpifec:mpif.obj
 0001:0018d506       _MPI_ALLTOALLW             0058e506 f   msmpifec:mpif.obj
 0001:0018d506       _pmpi_alltoallw_           0058e506 f   msmpifec:mpif.obj
 0001:0018d506       _mpi_alltoallw__           0058e506 f   msmpifec:mpif.obj
 0001:0018d506       _pmpi_alltoallw            0058e506 f   msmpifec:mpif.obj
 0001:0018d506       _mpi_alltoallw_            0058e506 f   msmpifec:mpif.obj
 0001:0018d506       _pmpi_alltoallw__          0058e506 f   msmpifec:mpif.obj
 0001:0018d506       _mpi_alltoallw             0058e506 f   msmpifec:mpif.obj
 0001:0018d534       _pmpi_exscan               0058e534 f   msmpifec:mpif.obj
 0001:0018d534       _pmpi_exscan__             0058e534 f   msmpifec:mpif.obj
 0001:0018d534       _mpi_exscan_               0058e534 f   msmpifec:mpif.obj
 0001:0018d534       _mpi_exscan__              0058e534 f   msmpifec:mpif.obj
 0001:0018d534       _MPI_EXSCAN                0058e534 f   msmpifec:mpif.obj
 0001:0018d534       _mpi_exscan                0058e534 f   msmpifec:mpif.obj
 0001:0018d534       _pmpi_exscan_              0058e534 f   msmpifec:mpif.obj
 0001:0018d534       _PMPI_EXSCAN               0058e534 f   msmpifec:mpif.obj
 0001:0018d55f       _PMPI_ADD_ERROR_CLASS      0058e55f f   msmpifec:mpif.obj
 0001:0018d55f       _mpi_add_error_class_      0058e55f f   msmpifec:mpif.obj
 0001:0018d55f       _pmpi_add_error_class      0058e55f f   msmpifec:mpif.obj
 0001:0018d55f       _pmpi_add_error_class__    0058e55f f   msmpifec:mpif.obj
 0001:0018d55f       _mpi_add_error_class__     0058e55f f   msmpifec:mpif.obj
 0001:0018d55f       _pmpi_add_error_class_     0058e55f f   msmpifec:mpif.obj
 0001:0018d55f       _MPI_ADD_ERROR_CLASS       0058e55f f   msmpifec:mpif.obj
 0001:0018d55f       _mpi_add_error_class       0058e55f f   msmpifec:mpif.obj
 0001:0018d573       _pmpi_add_error_code__     0058e573 f   msmpifec:mpif.obj
 0001:0018d573       _pmpi_add_error_code_      0058e573 f   msmpifec:mpif.obj
 0001:0018d573       _MPI_ADD_ERROR_CODE        0058e573 f   msmpifec:mpif.obj
 0001:0018d573       _mpi_add_error_code        0058e573 f   msmpifec:mpif.obj
 0001:0018d573       _mpi_add_error_code_       0058e573 f   msmpifec:mpif.obj
 0001:0018d573       _PMPI_ADD_ERROR_CODE       0058e573 f   msmpifec:mpif.obj
 0001:0018d573       _mpi_add_error_code__      0058e573 f   msmpifec:mpif.obj
 0001:0018d573       _pmpi_add_error_code       0058e573 f   msmpifec:mpif.obj
 0001:0018d58c       _pmpi_add_error_string     0058e58c f   msmpifec:mpif.obj
 0001:0018d58c       _mpi_add_error_string_     0058e58c f   msmpifec:mpif.obj
 0001:0018d58c       _mpi_add_error_string      0058e58c f   msmpifec:mpif.obj
 0001:0018d58c       _pmpi_add_error_string__   0058e58c f   msmpifec:mpif.obj
 0001:0018d58c       _PMPI_ADD_ERROR_STRING     0058e58c f   msmpifec:mpif.obj
 0001:0018d58c       _MPI_ADD_ERROR_STRING      0058e58c f   msmpifec:mpif.obj
 0001:0018d58c       _mpi_add_error_string__    0058e58c f   msmpifec:mpif.obj
 0001:0018d58c       _pmpi_add_error_string_    0058e58c f   msmpifec:mpif.obj
 0001:0018d607       _MPI_COMM_CALL_ERRHANDLER  0058e607 f   msmpifec:mpif.obj
 0001:0018d607       _pmpi_comm_call_errhandler__ 0058e607 f   msmpifec:mpif.obj
 0001:0018d607       _pmpi_comm_call_errhandler 0058e607 f   msmpifec:mpif.obj
 0001:0018d607       _mpi_comm_call_errhandler__ 0058e607 f   msmpifec:mpif.obj
 0001:0018d607       _pmpi_comm_call_errhandler_ 0058e607 f   msmpifec:mpif.obj
 0001:0018d607       _mpi_comm_call_errhandler  0058e607 f   msmpifec:mpif.obj
 0001:0018d607       _PMPI_COMM_CALL_ERRHANDLER 0058e607 f   msmpifec:mpif.obj
 0001:0018d607       _mpi_comm_call_errhandler_ 0058e607 f   msmpifec:mpif.obj
 0001:0018d6bc       _MPI_COMM_CREATE_KEYVAL    0058e6bc f   msmpifec:mpif.obj
 0001:0018d6bc       _pmpi_comm_create_keyval__ 0058e6bc f   msmpifec:mpif.obj
 0001:0018d6bc       _PMPI_COMM_CREATE_KEYVAL   0058e6bc f   msmpifec:mpif.obj
 0001:0018d6bc       _pmpi_comm_create_keyval_  0058e6bc f   msmpifec:mpif.obj
 0001:0018d6bc       _pmpi_comm_create_keyval   0058e6bc f   msmpifec:mpif.obj
 0001:0018d6bc       _mpi_comm_create_keyval__  0058e6bc f   msmpifec:mpif.obj
 0001:0018d6bc       _mpi_comm_create_keyval_   0058e6bc f   msmpifec:mpif.obj
 0001:0018d6bc       _mpi_comm_create_keyval    0058e6bc f   msmpifec:mpif.obj
 0001:0018d6f1       _pmpi_comm_delete_attr__   0058e6f1 f   msmpifec:mpif.obj
 0001:0018d6f1       _MPI_COMM_DELETE_ATTR      0058e6f1 f   msmpifec:mpif.obj
 0001:0018d6f1       _pmpi_comm_delete_attr_    0058e6f1 f   msmpifec:mpif.obj
 0001:0018d6f1       _pmpi_comm_delete_attr     0058e6f1 f   msmpifec:mpif.obj
 0001:0018d6f1       _PMPI_COMM_DELETE_ATTR     0058e6f1 f   msmpifec:mpif.obj
 0001:0018d6f1       _mpi_comm_delete_attr__    0058e6f1 f   msmpifec:mpif.obj
 0001:0018d6f1       _mpi_comm_delete_attr_     0058e6f1 f   msmpifec:mpif.obj
 0001:0018d6f1       _mpi_comm_delete_attr      0058e6f1 f   msmpifec:mpif.obj
 0001:0018d70c       _pmpi_comm_free_keyval__   0058e70c f   msmpifec:mpif.obj
 0001:0018d70c       _pmpi_comm_free_keyval     0058e70c f   msmpifec:mpif.obj
 0001:0018d70c       _MPI_COMM_FREE_KEYVAL      0058e70c f   msmpifec:mpif.obj
 0001:0018d70c       _mpi_comm_free_keyval_     0058e70c f   msmpifec:mpif.obj
 0001:0018d70c       _PMPI_COMM_FREE_KEYVAL     0058e70c f   msmpifec:mpif.obj
 0001:0018d70c       _mpi_comm_free_keyval__    0058e70c f   msmpifec:mpif.obj
 0001:0018d70c       _pmpi_comm_free_keyval_    0058e70c f   msmpifec:mpif.obj
 0001:0018d70c       _mpi_comm_free_keyval      0058e70c f   msmpifec:mpif.obj
 0001:0018d720       _mpi_comm_get_attr         0058e720 f   msmpifec:mpif.obj
 0001:0018d720       _MPI_COMM_GET_ATTR         0058e720 f   msmpifec:mpif.obj
 0001:0018d720       _pmpi_comm_get_attr        0058e720 f   msmpifec:mpif.obj
 0001:0018d720       _pmpi_comm_get_attr_       0058e720 f   msmpifec:mpif.obj
 0001:0018d720       _PMPI_COMM_GET_ATTR        0058e720 f   msmpifec:mpif.obj
 0001:0018d720       _mpi_comm_get_attr_        0058e720 f   msmpifec:mpif.obj
 0001:0018d720       _mpi_comm_get_attr__       0058e720 f   msmpifec:mpif.obj
 0001:0018d720       _pmpi_comm_get_attr__      0058e720 f   msmpifec:mpif.obj
 0001:0018d769       _mpi_comm_get_name_        0058e769 f   msmpifec:mpif.obj
 0001:0018d769       _pmpi_comm_get_name_       0058e769 f   msmpifec:mpif.obj
 0001:0018d769       _MPI_COMM_GET_NAME         0058e769 f   msmpifec:mpif.obj
 0001:0018d769       _pmpi_comm_get_name        0058e769 f   msmpifec:mpif.obj
 0001:0018d769       _mpi_comm_get_name         0058e769 f   msmpifec:mpif.obj
 0001:0018d769       _PMPI_COMM_GET_NAME        0058e769 f   msmpifec:mpif.obj
 0001:0018d769       _pmpi_comm_get_name__      0058e769 f   msmpifec:mpif.obj
 0001:0018d769       _mpi_comm_get_name__       0058e769 f   msmpifec:mpif.obj
 0001:0018d7dc       _mpi_comm_set_attr         0058e7dc f   msmpifec:mpif.obj
 0001:0018d7dc       _mpi_comm_set_attr__       0058e7dc f   msmpifec:mpif.obj
 0001:0018d7dc       _MPI_COMM_SET_ATTR         0058e7dc f   msmpifec:mpif.obj
 0001:0018d7dc       _pmpi_comm_set_attr_       0058e7dc f   msmpifec:mpif.obj
 0001:0018d7dc       _mpi_comm_set_attr_        0058e7dc f   msmpifec:mpif.obj
 0001:0018d7dc       _pmpi_comm_set_attr__      0058e7dc f   msmpifec:mpif.obj
 0001:0018d7dc       _pmpi_comm_set_attr        0058e7dc f   msmpifec:mpif.obj
 0001:0018d7dc       _PMPI_COMM_SET_ATTR        0058e7dc f   msmpifec:mpif.obj
 0001:0018d7fc       _mpi_comm_set_name_        0058e7fc f   msmpifec:mpif.obj
 0001:0018d7fc       _pmpi_comm_set_name        0058e7fc f   msmpifec:mpif.obj
 0001:0018d7fc       _mpi_comm_set_name__       0058e7fc f   msmpifec:mpif.obj
 0001:0018d7fc       _pmpi_comm_set_name__      0058e7fc f   msmpifec:mpif.obj
 0001:0018d7fc       _MPI_COMM_SET_NAME         0058e7fc f   msmpifec:mpif.obj
 0001:0018d7fc       _pmpi_comm_set_name_       0058e7fc f   msmpifec:mpif.obj
 0001:0018d7fc       _mpi_comm_set_name         0058e7fc f   msmpifec:mpif.obj
 0001:0018d7fc       _PMPI_COMM_SET_NAME        0058e7fc f   msmpifec:mpif.obj
 0001:0018d877       _mpi_file_call_errhandler__ 0058e877 f   msmpifec:mpif.obj
 0001:0018d877       _pmpi_file_call_errhandler 0058e877 f   msmpifec:mpif.obj
 0001:0018d877       _PMPI_FILE_CALL_ERRHANDLER 0058e877 f   msmpifec:mpif.obj
 0001:0018d877       _pmpi_file_call_errhandler__ 0058e877 f   msmpifec:mpif.obj
 0001:0018d877       _MPI_FILE_CALL_ERRHANDLER  0058e877 f   msmpifec:mpif.obj
 0001:0018d877       _mpi_file_call_errhandler  0058e877 f   msmpifec:mpif.obj
 0001:0018d877       _mpi_file_call_errhandler_ 0058e877 f   msmpifec:mpif.obj
 0001:0018d877       _pmpi_file_call_errhandler_ 0058e877 f   msmpifec:mpif.obj
 0001:0018d898       _mpi_grequest_complete__   0058e898 f   msmpifec:mpif.obj
 0001:0018d898       _pmpi_grequest_complete    0058e898 f   msmpifec:mpif.obj
 0001:0018d898       _mpi_grequest_complete     0058e898 f   msmpifec:mpif.obj
 0001:0018d898       _mpi_grequest_complete_    0058e898 f   msmpifec:mpif.obj
 0001:0018d898       _pmpi_grequest_complete_   0058e898 f   msmpifec:mpif.obj
 0001:0018d898       _PMPI_GREQUEST_COMPLETE    0058e898 f   msmpifec:mpif.obj
 0001:0018d898       _MPI_GREQUEST_COMPLETE     0058e898 f   msmpifec:mpif.obj
 0001:0018d898       _pmpi_grequest_complete__  0058e898 f   msmpifec:mpif.obj
 0001:0018d905       _pmpi_grequest_start_      0058e905 f   msmpifec:mpif.obj
 0001:0018d905       _PMPI_GREQUEST_START       0058e905 f   msmpifec:mpif.obj
 0001:0018d905       _pmpi_grequest_start       0058e905 f   msmpifec:mpif.obj
 0001:0018d905       _MPI_GREQUEST_START        0058e905 f   msmpifec:mpif.obj
 0001:0018d905       _mpi_grequest_start__      0058e905 f   msmpifec:mpif.obj
 0001:0018d905       _mpi_grequest_start        0058e905 f   msmpifec:mpif.obj
 0001:0018d905       _pmpi_grequest_start__     0058e905 f   msmpifec:mpif.obj
 0001:0018d905       _mpi_grequest_start_       0058e905 f   msmpifec:mpif.obj
 0001:0018d942       _MPI_IS_THREAD_MAIN        0058e942 f   msmpifec:mpif.obj
 0001:0018d942       _mpi_is_thread_main__      0058e942 f   msmpifec:mpif.obj
 0001:0018d942       _mpi_is_thread_main        0058e942 f   msmpifec:mpif.obj
 0001:0018d942       _pmpi_is_thread_main_      0058e942 f   msmpifec:mpif.obj
 0001:0018d942       _PMPI_IS_THREAD_MAIN       0058e942 f   msmpifec:mpif.obj
 0001:0018d942       _mpi_is_thread_main_       0058e942 f   msmpifec:mpif.obj
 0001:0018d942       _pmpi_is_thread_main       0058e942 f   msmpifec:mpif.obj
 0001:0018d942       _pmpi_is_thread_main__     0058e942 f   msmpifec:mpif.obj
 0001:0018d956       _mpi_query_thread          0058e956 f   msmpifec:mpif.obj
 0001:0018d956       _pmpi_query_thread         0058e956 f   msmpifec:mpif.obj
 0001:0018d956       _pmpi_query_thread__       0058e956 f   msmpifec:mpif.obj
 0001:0018d956       _mpi_query_thread__        0058e956 f   msmpifec:mpif.obj
 0001:0018d956       _pmpi_query_thread_        0058e956 f   msmpifec:mpif.obj
 0001:0018d956       _MPI_QUERY_THREAD          0058e956 f   msmpifec:mpif.obj
 0001:0018d956       _PMPI_QUERY_THREAD         0058e956 f   msmpifec:mpif.obj
 0001:0018d956       _mpi_query_thread_         0058e956 f   msmpifec:mpif.obj
 0001:0018d96a       _pmpi_status_set_cancelled 0058e96a f   msmpifec:mpif.obj
 0001:0018d96a       _mpi_status_set_cancelled_ 0058e96a f   msmpifec:mpif.obj
 0001:0018d96a       _MPI_STATUS_SET_CANCELLED  0058e96a f   msmpifec:mpif.obj
 0001:0018d96a       _mpi_status_set_cancelled__ 0058e96a f   msmpifec:mpif.obj
 0001:0018d96a       _mpi_status_set_cancelled  0058e96a f   msmpifec:mpif.obj
 0001:0018d96a       _pmpi_status_set_cancelled__ 0058e96a f   msmpifec:mpif.obj
 0001:0018d96a       _PMPI_STATUS_SET_CANCELLED 0058e96a f   msmpifec:mpif.obj
 0001:0018d96a       _pmpi_status_set_cancelled_ 0058e96a f   msmpifec:mpif.obj
 0001:0018d983       _mpi_status_set_elements__ 0058e983 f   msmpifec:mpif.obj
 0001:0018d983       _pmpi_status_set_elements__ 0058e983 f   msmpifec:mpif.obj
 0001:0018d983       _mpi_status_set_elements   0058e983 f   msmpifec:mpif.obj
 0001:0018d983       _pmpi_status_set_elements_ 0058e983 f   msmpifec:mpif.obj
 0001:0018d983       _pmpi_status_set_elements  0058e983 f   msmpifec:mpif.obj
 0001:0018d983       _MPI_STATUS_SET_ELEMENTS   0058e983 f   msmpifec:mpif.obj
 0001:0018d983       _PMPI_STATUS_SET_ELEMENTS  0058e983 f   msmpifec:mpif.obj
 0001:0018d983       _mpi_status_set_elements_  0058e983 f   msmpifec:mpif.obj
 0001:0018da3b       _mpi_type_create_keyval_   0058ea3b f   msmpifec:mpif.obj
 0001:0018da3b       _pmpi_type_create_keyval_  0058ea3b f   msmpifec:mpif.obj
 0001:0018da3b       _PMPI_TYPE_CREATE_KEYVAL   0058ea3b f   msmpifec:mpif.obj
 0001:0018da3b       _mpi_type_create_keyval    0058ea3b f   msmpifec:mpif.obj
 0001:0018da3b       _pmpi_type_create_keyval__ 0058ea3b f   msmpifec:mpif.obj
 0001:0018da3b       _pmpi_type_create_keyval   0058ea3b f   msmpifec:mpif.obj
 0001:0018da3b       _MPI_TYPE_CREATE_KEYVAL    0058ea3b f   msmpifec:mpif.obj
 0001:0018da3b       _mpi_type_create_keyval__  0058ea3b f   msmpifec:mpif.obj
 0001:0018da70       _PMPI_TYPE_DELETE_ATTR     0058ea70 f   msmpifec:mpif.obj
 0001:0018da70       _mpi_type_delete_attr__    0058ea70 f   msmpifec:mpif.obj
 0001:0018da70       _mpi_type_delete_attr_     0058ea70 f   msmpifec:mpif.obj
 0001:0018da70       _mpi_type_delete_attr      0058ea70 f   msmpifec:mpif.obj
 0001:0018da70       _pmpi_type_delete_attr__   0058ea70 f   msmpifec:mpif.obj
 0001:0018da70       _pmpi_type_delete_attr     0058ea70 f   msmpifec:mpif.obj
 0001:0018da70       _pmpi_type_delete_attr_    0058ea70 f   msmpifec:mpif.obj
 0001:0018da70       _MPI_TYPE_DELETE_ATTR      0058ea70 f   msmpifec:mpif.obj
 0001:0018da8b       _MPI_TYPE_DUP              0058ea8b f   msmpifec:mpif.obj
 0001:0018da8b       _mpi_type_dup__            0058ea8b f   msmpifec:mpif.obj
 0001:0018da8b       _mpi_type_dup              0058ea8b f   msmpifec:mpif.obj
 0001:0018da8b       _PMPI_TYPE_DUP             0058ea8b f   msmpifec:mpif.obj
 0001:0018da8b       _pmpi_type_dup             0058ea8b f   msmpifec:mpif.obj
 0001:0018da8b       _pmpi_type_dup__           0058ea8b f   msmpifec:mpif.obj
 0001:0018da8b       _mpi_type_dup_             0058ea8b f   msmpifec:mpif.obj
 0001:0018da8b       _pmpi_type_dup_            0058ea8b f   msmpifec:mpif.obj
 0001:0018daa4       _MPI_TYPE_FREE_KEYVAL      0058eaa4 f   msmpifec:mpif.obj
 0001:0018daa4       _mpi_type_free_keyval      0058eaa4 f   msmpifec:mpif.obj
 0001:0018daa4       _PMPI_TYPE_FREE_KEYVAL     0058eaa4 f   msmpifec:mpif.obj
 0001:0018daa4       _mpi_type_free_keyval_     0058eaa4 f   msmpifec:mpif.obj
 0001:0018daa4       _pmpi_type_free_keyval     0058eaa4 f   msmpifec:mpif.obj
 0001:0018daa4       _mpi_type_free_keyval__    0058eaa4 f   msmpifec:mpif.obj
 0001:0018daa4       _pmpi_type_free_keyval__   0058eaa4 f   msmpifec:mpif.obj
 0001:0018daa4       _pmpi_type_free_keyval_    0058eaa4 f   msmpifec:mpif.obj
 0001:0018dab8       _mpi_type_get_attr__       0058eab8 f   msmpifec:mpif.obj
 0001:0018dab8       _pmpi_type_get_attr        0058eab8 f   msmpifec:mpif.obj
 0001:0018dab8       _mpi_type_get_attr_        0058eab8 f   msmpifec:mpif.obj
 0001:0018dab8       _PMPI_TYPE_GET_ATTR        0058eab8 f   msmpifec:mpif.obj
 0001:0018dab8       _pmpi_type_get_attr__      0058eab8 f   msmpifec:mpif.obj
 0001:0018dab8       _MPI_TYPE_GET_ATTR         0058eab8 f   msmpifec:mpif.obj
 0001:0018dab8       _pmpi_type_get_attr_       0058eab8 f   msmpifec:mpif.obj
 0001:0018dab8       _mpi_type_get_attr         0058eab8 f   msmpifec:mpif.obj
 0001:0018db01       _mpi_type_get_contents__   0058eb01 f   msmpifec:mpif.obj
 0001:0018db01       _pmpi_type_get_contents__  0058eb01 f   msmpifec:mpif.obj
 0001:0018db01       _PMPI_TYPE_GET_CONTENTS    0058eb01 f   msmpifec:mpif.obj
 0001:0018db01       _mpi_type_get_contents_    0058eb01 f   msmpifec:mpif.obj
 0001:0018db01       _MPI_TYPE_GET_CONTENTS     0058eb01 f   msmpifec:mpif.obj
 0001:0018db01       _pmpi_type_get_contents    0058eb01 f   msmpifec:mpif.obj
 0001:0018db01       _pmpi_type_get_contents_   0058eb01 f   msmpifec:mpif.obj
 0001:0018db01       _mpi_type_get_contents     0058eb01 f   msmpifec:mpif.obj
 0001:0018db2f       _mpi_type_get_envelope     0058eb2f f   msmpifec:mpif.obj
 0001:0018db2f       _pmpi_type_get_envelope_   0058eb2f f   msmpifec:mpif.obj
 0001:0018db2f       _mpi_type_get_envelope_    0058eb2f f   msmpifec:mpif.obj
 0001:0018db2f       _pmpi_type_get_envelope__  0058eb2f f   msmpifec:mpif.obj
 0001:0018db2f       _mpi_type_get_envelope__   0058eb2f f   msmpifec:mpif.obj
 0001:0018db2f       _MPI_TYPE_GET_ENVELOPE     0058eb2f f   msmpifec:mpif.obj
 0001:0018db2f       _PMPI_TYPE_GET_ENVELOPE    0058eb2f f   msmpifec:mpif.obj
 0001:0018db2f       _pmpi_type_get_envelope    0058eb2f f   msmpifec:mpif.obj
 0001:0018db51       _MPI_TYPE_GET_NAME         0058eb51 f   msmpifec:mpif.obj
 0001:0018db51       _mpi_type_get_name__       0058eb51 f   msmpifec:mpif.obj
 0001:0018db51       _pmpi_type_get_name        0058eb51 f   msmpifec:mpif.obj
 0001:0018db51       _PMPI_TYPE_GET_NAME        0058eb51 f   msmpifec:mpif.obj
 0001:0018db51       _mpi_type_get_name         0058eb51 f   msmpifec:mpif.obj
 0001:0018db51       _pmpi_type_get_name__      0058eb51 f   msmpifec:mpif.obj
 0001:0018db51       _mpi_type_get_name_        0058eb51 f   msmpifec:mpif.obj
 0001:0018db51       _pmpi_type_get_name_       0058eb51 f   msmpifec:mpif.obj
 0001:0018dbc4       _mpi_type_set_attr__       0058ebc4 f   msmpifec:mpif.obj
 0001:0018dbc4       _MPI_TYPE_SET_ATTR         0058ebc4 f   msmpifec:mpif.obj
 0001:0018dbc4       _pmpi_type_set_attr_       0058ebc4 f   msmpifec:mpif.obj
 0001:0018dbc4       _mpi_type_set_attr_        0058ebc4 f   msmpifec:mpif.obj
 0001:0018dbc4       _PMPI_TYPE_SET_ATTR        0058ebc4 f   msmpifec:mpif.obj
 0001:0018dbc4       _pmpi_type_set_attr        0058ebc4 f   msmpifec:mpif.obj
 0001:0018dbc4       _mpi_type_set_attr         0058ebc4 f   msmpifec:mpif.obj
 0001:0018dbc4       _pmpi_type_set_attr__      0058ebc4 f   msmpifec:mpif.obj
 0001:0018dbe4       _mpi_type_set_name__       0058ebe4 f   msmpifec:mpif.obj
 0001:0018dbe4       _pmpi_type_set_name_       0058ebe4 f   msmpifec:mpif.obj
 0001:0018dbe4       _MPI_TYPE_SET_NAME         0058ebe4 f   msmpifec:mpif.obj
 0001:0018dbe4       _pmpi_type_set_name__      0058ebe4 f   msmpifec:mpif.obj
 0001:0018dbe4       _pmpi_type_set_name        0058ebe4 f   msmpifec:mpif.obj
 0001:0018dbe4       _PMPI_TYPE_SET_NAME        0058ebe4 f   msmpifec:mpif.obj
 0001:0018dbe4       _mpi_type_set_name_        0058ebe4 f   msmpifec:mpif.obj
 0001:0018dbe4       _mpi_type_set_name         0058ebe4 f   msmpifec:mpif.obj
 0001:0018dc5f       _pmpi_type_match_size_     0058ec5f f   msmpifec:mpif.obj
 0001:0018dc5f       _MPI_TYPE_MATCH_SIZE       0058ec5f f   msmpifec:mpif.obj
 0001:0018dc5f       _mpi_type_match_size__     0058ec5f f   msmpifec:mpif.obj
 0001:0018dc5f       _pmpi_type_match_size      0058ec5f f   msmpifec:mpif.obj
 0001:0018dc5f       _pmpi_type_match_size__    0058ec5f f   msmpifec:mpif.obj
 0001:0018dc5f       _PMPI_TYPE_MATCH_SIZE      0058ec5f f   msmpifec:mpif.obj
 0001:0018dc5f       _mpi_type_match_size_      0058ec5f f   msmpifec:mpif.obj
 0001:0018dc5f       _mpi_type_match_size       0058ec5f f   msmpifec:mpif.obj
 0001:0018dc7d       _PMPI_WIN_CALL_ERRHANDLER  0058ec7d f   msmpifec:mpif.obj
 0001:0018dc7d       _pmpi_win_call_errhandler_ 0058ec7d f   msmpifec:mpif.obj
 0001:0018dc7d       _pmpi_win_call_errhandler  0058ec7d f   msmpifec:mpif.obj
 0001:0018dc7d       _mpi_win_call_errhandler_  0058ec7d f   msmpifec:mpif.obj
 0001:0018dc7d       _mpi_win_call_errhandler   0058ec7d f   msmpifec:mpif.obj
 0001:0018dc7d       _pmpi_win_call_errhandler__ 0058ec7d f   msmpifec:mpif.obj
 0001:0018dc7d       _MPI_WIN_CALL_ERRHANDLER   0058ec7d f   msmpifec:mpif.obj
 0001:0018dc7d       _mpi_win_call_errhandler__ 0058ec7d f   msmpifec:mpif.obj
 0001:0018dd32       _pmpi_win_create_keyval    0058ed32 f   msmpifec:mpif.obj
 0001:0018dd32       _pmpi_win_create_keyval__  0058ed32 f   msmpifec:mpif.obj
 0001:0018dd32       _PMPI_WIN_CREATE_KEYVAL    0058ed32 f   msmpifec:mpif.obj
 0001:0018dd32       _pmpi_win_create_keyval_   0058ed32 f   msmpifec:mpif.obj
 0001:0018dd32       _mpi_win_create_keyval__   0058ed32 f   msmpifec:mpif.obj
 0001:0018dd32       _mpi_win_create_keyval_    0058ed32 f   msmpifec:mpif.obj
 0001:0018dd32       _MPI_WIN_CREATE_KEYVAL     0058ed32 f   msmpifec:mpif.obj
 0001:0018dd32       _mpi_win_create_keyval     0058ed32 f   msmpifec:mpif.obj
 0001:0018dd67       _mpi_win_delete_attr       0058ed67 f   msmpifec:mpif.obj
 0001:0018dd67       _mpi_win_delete_attr_      0058ed67 f   msmpifec:mpif.obj
 0001:0018dd67       _MPI_WIN_DELETE_ATTR       0058ed67 f   msmpifec:mpif.obj
 0001:0018dd67       _PMPI_WIN_DELETE_ATTR      0058ed67 f   msmpifec:mpif.obj
 0001:0018dd67       _mpi_win_delete_attr__     0058ed67 f   msmpifec:mpif.obj
 0001:0018dd67       _pmpi_win_delete_attr__    0058ed67 f   msmpifec:mpif.obj
 0001:0018dd67       _pmpi_win_delete_attr_     0058ed67 f   msmpifec:mpif.obj
 0001:0018dd67       _pmpi_win_delete_attr      0058ed67 f   msmpifec:mpif.obj
 0001:0018dd82       _mpi_win_free_keyval__     0058ed82 f   msmpifec:mpif.obj
 0001:0018dd82       _MPI_WIN_FREE_KEYVAL       0058ed82 f   msmpifec:mpif.obj
 0001:0018dd82       _pmpi_win_free_keyval__    0058ed82 f   msmpifec:mpif.obj
 0001:0018dd82       _PMPI_WIN_FREE_KEYVAL      0058ed82 f   msmpifec:mpif.obj
 0001:0018dd82       _mpi_win_free_keyval       0058ed82 f   msmpifec:mpif.obj
 0001:0018dd82       _pmpi_win_free_keyval_     0058ed82 f   msmpifec:mpif.obj
 0001:0018dd82       _pmpi_win_free_keyval      0058ed82 f   msmpifec:mpif.obj
 0001:0018dd82       _mpi_win_free_keyval_      0058ed82 f   msmpifec:mpif.obj
 0001:0018dd96       _pmpi_win_get_attr__       0058ed96 f   msmpifec:mpif.obj
 0001:0018dd96       _pmpi_win_get_attr_        0058ed96 f   msmpifec:mpif.obj
 0001:0018dd96       _PMPI_WIN_GET_ATTR         0058ed96 f   msmpifec:mpif.obj
 0001:0018dd96       _MPI_WIN_GET_ATTR          0058ed96 f   msmpifec:mpif.obj
 0001:0018dd96       _mpi_win_get_attr_         0058ed96 f   msmpifec:mpif.obj
 0001:0018dd96       _mpi_win_get_attr          0058ed96 f   msmpifec:mpif.obj
 0001:0018dd96       _pmpi_win_get_attr         0058ed96 f   msmpifec:mpif.obj
 0001:0018dd96       _mpi_win_get_attr__        0058ed96 f   msmpifec:mpif.obj
 0001:0018dddf       _pmpi_win_get_name         0058eddf f   msmpifec:mpif.obj
 0001:0018dddf       _pmpi_win_get_name_        0058eddf f   msmpifec:mpif.obj
 0001:0018dddf       _PMPI_WIN_GET_NAME         0058eddf f   msmpifec:mpif.obj
 0001:0018dddf       _mpi_win_get_name_         0058eddf f   msmpifec:mpif.obj
 0001:0018dddf       _pmpi_win_get_name__       0058eddf f   msmpifec:mpif.obj
 0001:0018dddf       _mpi_win_get_name          0058eddf f   msmpifec:mpif.obj
 0001:0018dddf       _MPI_WIN_GET_NAME          0058eddf f   msmpifec:mpif.obj
 0001:0018dddf       _mpi_win_get_name__        0058eddf f   msmpifec:mpif.obj
 0001:0018de52       _mpi_win_set_attr_         0058ee52 f   msmpifec:mpif.obj
 0001:0018de52       _pmpi_win_set_attr_        0058ee52 f   msmpifec:mpif.obj
 0001:0018de52       _MPI_WIN_SET_ATTR          0058ee52 f   msmpifec:mpif.obj
 0001:0018de52       _mpi_win_set_attr__        0058ee52 f   msmpifec:mpif.obj
 0001:0018de52       _pmpi_win_set_attr__       0058ee52 f   msmpifec:mpif.obj
 0001:0018de52       _mpi_win_set_attr          0058ee52 f   msmpifec:mpif.obj
 0001:0018de52       _pmpi_win_set_attr         0058ee52 f   msmpifec:mpif.obj
 0001:0018de52       _PMPI_WIN_SET_ATTR         0058ee52 f   msmpifec:mpif.obj
 0001:0018de72       _pmpi_win_set_name         0058ee72 f   msmpifec:mpif.obj
 0001:0018de72       _pmpi_win_set_name__       0058ee72 f   msmpifec:mpif.obj
 0001:0018de72       _PMPI_WIN_SET_NAME         0058ee72 f   msmpifec:mpif.obj
 0001:0018de72       _mpi_win_set_name          0058ee72 f   msmpifec:mpif.obj
 0001:0018de72       _mpi_win_set_name_         0058ee72 f   msmpifec:mpif.obj
 0001:0018de72       _pmpi_win_set_name_        0058ee72 f   msmpifec:mpif.obj
 0001:0018de72       _MPI_WIN_SET_NAME          0058ee72 f   msmpifec:mpif.obj
 0001:0018de72       _mpi_win_set_name__        0058ee72 f   msmpifec:mpif.obj
 0001:0018deed       _PMPI_ALLOC_MEM            0058eeed f   msmpifec:mpif.obj
 0001:0018deed       _pmpi_alloc_mem__          0058eeed f   msmpifec:mpif.obj
 0001:0018deed       _MPI_ALLOC_MEM             0058eeed f   msmpifec:mpif.obj
 0001:0018deed       _mpi_alloc_mem             0058eeed f   msmpifec:mpif.obj
 0001:0018deed       _mpi_alloc_mem_            0058eeed f   msmpifec:mpif.obj
 0001:0018deed       _pmpi_alloc_mem            0058eeed f   msmpifec:mpif.obj
 0001:0018deed       _pmpi_alloc_mem_           0058eeed f   msmpifec:mpif.obj
 0001:0018deed       _mpi_alloc_mem__           0058eeed f   msmpifec:mpif.obj
 0001:0018df1d       _mpi_comm_create_errhandler__ 0058ef1d f   msmpifec:mpif.obj
 0001:0018df1d       _mpi_comm_create_errhandler_ 0058ef1d f   msmpifec:mpif.obj
 0001:0018df1d       _pmpi_comm_create_errhandler__ 0058ef1d f   msmpifec:mpif.obj
 0001:0018df1d       _MPI_COMM_CREATE_ERRHANDLER 0058ef1d f   msmpifec:mpif.obj
 0001:0018df1d       _pmpi_comm_create_errhandler 0058ef1d f   msmpifec:mpif.obj
 0001:0018df1d       _mpi_comm_create_errhandler 0058ef1d f   msmpifec:mpif.obj
 0001:0018df1d       _PMPI_COMM_CREATE_ERRHANDLER 0058ef1d f   msmpifec:mpif.obj
 0001:0018df1d       _pmpi_comm_create_errhandler_ 0058ef1d f   msmpifec:mpif.obj
 0001:0018df47       _mpi_comm_get_errhandler_  0058ef47 f   msmpifec:mpif.obj
 0001:0018df47       _pmpi_comm_get_errhandler  0058ef47 f   msmpifec:mpif.obj
 0001:0018df47       _pmpi_comm_get_errhandler_ 0058ef47 f   msmpifec:mpif.obj
 0001:0018df47       _MPI_COMM_GET_ERRHANDLER   0058ef47 f   msmpifec:mpif.obj
 0001:0018df47       _PMPI_COMM_GET_ERRHANDLER  0058ef47 f   msmpifec:mpif.obj
 0001:0018df47       _mpi_comm_get_errhandler   0058ef47 f   msmpifec:mpif.obj
 0001:0018df47       _mpi_comm_get_errhandler__ 0058ef47 f   msmpifec:mpif.obj
 0001:0018df47       _pmpi_comm_get_errhandler__ 0058ef47 f   msmpifec:mpif.obj
 0001:0018df60       _pmpi_comm_set_errhandler_ 0058ef60 f   msmpifec:mpif.obj
 0001:0018df60       _PMPI_COMM_SET_ERRHANDLER  0058ef60 f   msmpifec:mpif.obj
 0001:0018df60       _mpi_comm_set_errhandler__ 0058ef60 f   msmpifec:mpif.obj
 0001:0018df60       _pmpi_comm_set_errhandler  0058ef60 f   msmpifec:mpif.obj
 0001:0018df60       _mpi_comm_set_errhandler   0058ef60 f   msmpifec:mpif.obj
 0001:0018df60       _pmpi_comm_set_errhandler__ 0058ef60 f   msmpifec:mpif.obj
 0001:0018df60       _mpi_comm_set_errhandler_  0058ef60 f   msmpifec:mpif.obj
 0001:0018df60       _MPI_COMM_SET_ERRHANDLER   0058ef60 f   msmpifec:mpif.obj
 0001:0018df8d       _pmpi_file_create_errhandler_ 0058ef8d f   msmpifec:mpif.obj
 0001:0018df8d       _PMPI_FILE_CREATE_ERRHANDLER 0058ef8d f   msmpifec:mpif.obj
 0001:0018df8d       _pmpi_file_create_errhandler 0058ef8d f   msmpifec:mpif.obj
 0001:0018df8d       _pmpi_file_create_errhandler__ 0058ef8d f   msmpifec:mpif.obj
 0001:0018df8d       _MPI_FILE_CREATE_ERRHANDLER 0058ef8d f   msmpifec:mpif.obj
 0001:0018df8d       _mpi_file_create_errhandler 0058ef8d f   msmpifec:mpif.obj
 0001:0018df8d       _mpi_file_create_errhandler__ 0058ef8d f   msmpifec:mpif.obj
 0001:0018df8d       _mpi_file_create_errhandler_ 0058ef8d f   msmpifec:mpif.obj
 0001:0018dfb7       _mpi_file_get_errhandler_  0058efb7 f   msmpifec:mpif.obj
 0001:0018dfb7       _pmpi_file_get_errhandler_ 0058efb7 f   msmpifec:mpif.obj
 0001:0018dfb7       _MPI_FILE_GET_ERRHANDLER   0058efb7 f   msmpifec:mpif.obj
 0001:0018dfb7       _mpi_file_get_errhandler__ 0058efb7 f   msmpifec:mpif.obj
 0001:0018dfb7       _pmpi_file_get_errhandler__ 0058efb7 f   msmpifec:mpif.obj
 0001:0018dfb7       _PMPI_FILE_GET_ERRHANDLER  0058efb7 f   msmpifec:mpif.obj
 0001:0018dfb7       _pmpi_file_get_errhandler  0058efb7 f   msmpifec:mpif.obj
 0001:0018dfb7       _mpi_file_get_errhandler   0058efb7 f   msmpifec:mpif.obj
 0001:0018dfd6       _mpi_file_set_errhandler   0058efd6 f   msmpifec:mpif.obj
 0001:0018dfd6       _PMPI_FILE_SET_ERRHANDLER  0058efd6 f   msmpifec:mpif.obj
 0001:0018dfd6       _mpi_file_set_errhandler__ 0058efd6 f   msmpifec:mpif.obj
 0001:0018dfd6       _MPI_FILE_SET_ERRHANDLER   0058efd6 f   msmpifec:mpif.obj
 0001:0018dfd6       _pmpi_file_set_errhandler__ 0058efd6 f   msmpifec:mpif.obj
 0001:0018dfd6       _mpi_file_set_errhandler_  0058efd6 f   msmpifec:mpif.obj
 0001:0018dfd6       _pmpi_file_set_errhandler  0058efd6 f   msmpifec:mpif.obj
 0001:0018dfd6       _pmpi_file_set_errhandler_ 0058efd6 f   msmpifec:mpif.obj
 0001:0018dff7       _mpi_finalized             0058eff7 f   msmpifec:mpif.obj
 0001:0018dff7       _PMPI_FINALIZED            0058eff7 f   msmpifec:mpif.obj
 0001:0018dff7       _pmpi_finalized_           0058eff7 f   msmpifec:mpif.obj
 0001:0018dff7       _mpi_finalized__           0058eff7 f   msmpifec:mpif.obj
 0001:0018dff7       _mpi_finalized_            0058eff7 f   msmpifec:mpif.obj
 0001:0018dff7       _pmpi_finalized__          0058eff7 f   msmpifec:mpif.obj
 0001:0018dff7       _MPI_FINALIZED             0058eff7 f   msmpifec:mpif.obj
 0001:0018dff7       _pmpi_finalized            0058eff7 f   msmpifec:mpif.obj
 0001:0018e00b       _pmpi_free_mem_            0058f00b f   msmpifec:mpif.obj
 0001:0018e00b       _MPI_FREE_MEM              0058f00b f   msmpifec:mpif.obj
 0001:0018e00b       _mpi_free_mem              0058f00b f   msmpifec:mpif.obj
 0001:0018e00b       _mpi_free_mem_             0058f00b f   msmpifec:mpif.obj
 0001:0018e00b       _pmpi_free_mem             0058f00b f   msmpifec:mpif.obj
 0001:0018e00b       _PMPI_FREE_MEM             0058f00b f   msmpifec:mpif.obj
 0001:0018e00b       _mpi_free_mem__            0058f00b f   msmpifec:mpif.obj
 0001:0018e00b       _pmpi_free_mem__           0058f00b f   msmpifec:mpif.obj
 0001:0018e01f       _pmpi_info_create__        0058f01f f   msmpifec:mpif.obj
 0001:0018e01f       _PMPI_INFO_CREATE          0058f01f f   msmpifec:mpif.obj
 0001:0018e01f       _mpi_info_create           0058f01f f   msmpifec:mpif.obj
 0001:0018e01f       _pmpi_info_create_         0058f01f f   msmpifec:mpif.obj
 0001:0018e01f       _pmpi_info_create          0058f01f f   msmpifec:mpif.obj
 0001:0018e01f       _mpi_info_create_          0058f01f f   msmpifec:mpif.obj
 0001:0018e01f       _mpi_info_create__         0058f01f f   msmpifec:mpif.obj
 0001:0018e01f       _MPI_INFO_CREATE           0058f01f f   msmpifec:mpif.obj
 0001:0018e033       _mpi_info_delete__         0058f033 f   msmpifec:mpif.obj
 0001:0018e033       _pmpi_info_delete          0058f033 f   msmpifec:mpif.obj
 0001:0018e033       _PMPI_INFO_DELETE          0058f033 f   msmpifec:mpif.obj
 0001:0018e033       _MPI_INFO_DELETE           0058f033 f   msmpifec:mpif.obj
 0001:0018e033       _pmpi_info_delete_         0058f033 f   msmpifec:mpif.obj
 0001:0018e033       _pmpi_info_delete__        0058f033 f   msmpifec:mpif.obj
 0001:0018e033       _mpi_info_delete           0058f033 f   msmpifec:mpif.obj
 0001:0018e033       _mpi_info_delete_          0058f033 f   msmpifec:mpif.obj
 0001:0018e0ae       _MPI_INFO_DUP              0058f0ae f   msmpifec:mpif.obj
 0001:0018e0ae       _pmpi_info_dup             0058f0ae f   msmpifec:mpif.obj
 0001:0018e0ae       _mpi_info_dup__            0058f0ae f   msmpifec:mpif.obj
 0001:0018e0ae       _mpi_info_dup_             0058f0ae f   msmpifec:mpif.obj
 0001:0018e0ae       _pmpi_info_dup__           0058f0ae f   msmpifec:mpif.obj
 0001:0018e0ae       _pmpi_info_dup_            0058f0ae f   msmpifec:mpif.obj
 0001:0018e0ae       _mpi_info_dup              0058f0ae f   msmpifec:mpif.obj
 0001:0018e0ae       _PMPI_INFO_DUP             0058f0ae f   msmpifec:mpif.obj
 0001:0018e0c7       _mpi_info_free__           0058f0c7 f   msmpifec:mpif.obj
 0001:0018e0c7       _pmpi_info_free__          0058f0c7 f   msmpifec:mpif.obj
 0001:0018e0c7       _pmpi_info_free_           0058f0c7 f   msmpifec:mpif.obj
 0001:0018e0c7       _mpi_info_free_            0058f0c7 f   msmpifec:mpif.obj
 0001:0018e0c7       _pmpi_info_free            0058f0c7 f   msmpifec:mpif.obj
 0001:0018e0c7       _MPI_INFO_FREE             0058f0c7 f   msmpifec:mpif.obj
 0001:0018e0c7       _PMPI_INFO_FREE            0058f0c7 f   msmpifec:mpif.obj
 0001:0018e0c7       _mpi_info_free             0058f0c7 f   msmpifec:mpif.obj
 0001:0018e0db       _mpi_info_get_             0058f0db f   msmpifec:mpif.obj
 0001:0018e0db       _mpi_info_get__            0058f0db f   msmpifec:mpif.obj
 0001:0018e0db       _MPI_INFO_GET              0058f0db f   msmpifec:mpif.obj
 0001:0018e0db       _pmpi_info_get_            0058f0db f   msmpifec:mpif.obj
 0001:0018e0db       _PMPI_INFO_GET             0058f0db f   msmpifec:mpif.obj
 0001:0018e0db       _pmpi_info_get             0058f0db f   msmpifec:mpif.obj
 0001:0018e0db       _mpi_info_get              0058f0db f   msmpifec:mpif.obj
 0001:0018e0db       _pmpi_info_get__           0058f0db f   msmpifec:mpif.obj
 0001:0018e1cb       _mpi_info_get_nkeys        0058f1cb f   msmpifec:mpif.obj
 0001:0018e1cb       _mpi_info_get_nkeys__      0058f1cb f   msmpifec:mpif.obj
 0001:0018e1cb       _pmpi_info_get_nkeys_      0058f1cb f   msmpifec:mpif.obj
 0001:0018e1cb       _PMPI_INFO_GET_NKEYS       0058f1cb f   msmpifec:mpif.obj
 0001:0018e1cb       _MPI_INFO_GET_NKEYS        0058f1cb f   msmpifec:mpif.obj
 0001:0018e1cb       _pmpi_info_get_nkeys__     0058f1cb f   msmpifec:mpif.obj
 0001:0018e1cb       _pmpi_info_get_nkeys       0058f1cb f   msmpifec:mpif.obj
 0001:0018e1cb       _mpi_info_get_nkeys_       0058f1cb f   msmpifec:mpif.obj
 0001:0018e1e4       _mpi_info_get_nthkey__     0058f1e4 f   msmpifec:mpif.obj
 0001:0018e1e4       _pmpi_info_get_nthkey      0058f1e4 f   msmpifec:mpif.obj
 0001:0018e1e4       _PMPI_INFO_GET_NTHKEY      0058f1e4 f   msmpifec:mpif.obj
 0001:0018e1e4       _MPI_INFO_GET_NTHKEY       0058f1e4 f   msmpifec:mpif.obj
 0001:0018e1e4       _mpi_info_get_nthkey       0058f1e4 f   msmpifec:mpif.obj
 0001:0018e1e4       _pmpi_info_get_nthkey_     0058f1e4 f   msmpifec:mpif.obj
 0001:0018e1e4       _mpi_info_get_nthkey_      0058f1e4 f   msmpifec:mpif.obj
 0001:0018e1e4       _pmpi_info_get_nthkey__    0058f1e4 f   msmpifec:mpif.obj
 0001:0018e259       _pmpi_info_get_valuelen__  0058f259 f   msmpifec:mpif.obj
 0001:0018e259       _mpi_info_get_valuelen     0058f259 f   msmpifec:mpif.obj
 0001:0018e259       _mpi_info_get_valuelen_    0058f259 f   msmpifec:mpif.obj
 0001:0018e259       _PMPI_INFO_GET_VALUELEN    0058f259 f   msmpifec:mpif.obj
 0001:0018e259       _pmpi_info_get_valuelen_   0058f259 f   msmpifec:mpif.obj
 0001:0018e259       _mpi_info_get_valuelen__   0058f259 f   msmpifec:mpif.obj
 0001:0018e259       _MPI_INFO_GET_VALUELEN     0058f259 f   msmpifec:mpif.obj
 0001:0018e259       _pmpi_info_get_valuelen    0058f259 f   msmpifec:mpif.obj
 0001:0018e2e7       _pmpi_info_set_            0058f2e7 f   msmpifec:mpif.obj
 0001:0018e2e7       _pmpi_info_set             0058f2e7 f   msmpifec:mpif.obj
 0001:0018e2e7       _pmpi_info_set__           0058f2e7 f   msmpifec:mpif.obj
 0001:0018e2e7       _mpi_info_set__            0058f2e7 f   msmpifec:mpif.obj
 0001:0018e2e7       _mpi_info_set_             0058f2e7 f   msmpifec:mpif.obj
 0001:0018e2e7       _PMPI_INFO_SET             0058f2e7 f   msmpifec:mpif.obj
 0001:0018e2e7       _MPI_INFO_SET              0058f2e7 f   msmpifec:mpif.obj
 0001:0018e2e7       _mpi_info_set              0058f2e7 f   msmpifec:mpif.obj
 0001:0018e3eb       _pmpi_pack_external_       0058f3eb f   msmpifec:mpif.obj
 0001:0018e3eb       _mpi_pack_external         0058f3eb f   msmpifec:mpif.obj
 0001:0018e3eb       _mpi_pack_external__       0058f3eb f   msmpifec:mpif.obj
 0001:0018e3eb       _PMPI_PACK_EXTERNAL        0058f3eb f   msmpifec:mpif.obj
 0001:0018e3eb       _MPI_PACK_EXTERNAL         0058f3eb f   msmpifec:mpif.obj
 0001:0018e3eb       _pmpi_pack_external        0058f3eb f   msmpifec:mpif.obj
 0001:0018e3eb       _pmpi_pack_external__      0058f3eb f   msmpifec:mpif.obj
 0001:0018e3eb       _mpi_pack_external_        0058f3eb f   msmpifec:mpif.obj
 0001:0018e479       _MPI_PACK_EXTERNAL_SIZE    0058f479 f   msmpifec:mpif.obj
 0001:0018e479       _mpi_pack_external_size    0058f479 f   msmpifec:mpif.obj
 0001:0018e479       _pmpi_pack_external_size   0058f479 f   msmpifec:mpif.obj
 0001:0018e479       _pmpi_pack_external_size__ 0058f479 f   msmpifec:mpif.obj
 0001:0018e479       _pmpi_pack_external_size_  0058f479 f   msmpifec:mpif.obj
 0001:0018e479       _PMPI_PACK_EXTERNAL_SIZE   0058f479 f   msmpifec:mpif.obj
 0001:0018e479       _mpi_pack_external_size_   0058f479 f   msmpifec:mpif.obj
 0001:0018e479       _mpi_pack_external_size__  0058f479 f   msmpifec:mpif.obj
 0001:0018e4fc       _pmpi_request_get_status_  0058f4fc f   msmpifec:mpif.obj
 0001:0018e4fc       _mpi_request_get_status    0058f4fc f   msmpifec:mpif.obj
 0001:0018e4fc       _MPI_REQUEST_GET_STATUS    0058f4fc f   msmpifec:mpif.obj
 0001:0018e4fc       _mpi_request_get_status_   0058f4fc f   msmpifec:mpif.obj
 0001:0018e4fc       _mpi_request_get_status__  0058f4fc f   msmpifec:mpif.obj
 0001:0018e4fc       _pmpi_request_get_status   0058f4fc f   msmpifec:mpif.obj
 0001:0018e4fc       _pmpi_request_get_status__ 0058f4fc f   msmpifec:mpif.obj
 0001:0018e4fc       _PMPI_REQUEST_GET_STATUS   0058f4fc f   msmpifec:mpif.obj
 0001:0018e518       _MPI_STATUS_C2F            0058f518 f   msmpifec:mpif.obj
 0001:0018e518       _mpi_status_c2f            0058f518 f   msmpifec:mpif.obj
 0001:0018e518       _PMPI_STATUS_C2F           0058f518 f   msmpifec:mpif.obj
 0001:0018e518       _pmpi_status_c2f__         0058f518 f   msmpifec:mpif.obj
 0001:0018e518       _pmpi_status_c2f           0058f518 f   msmpifec:mpif.obj
 0001:0018e518       _pmpi_status_c2f_          0058f518 f   msmpifec:mpif.obj
 0001:0018e518       _mpi_status_c2f__          0058f518 f   msmpifec:mpif.obj
 0001:0018e518       _mpi_status_c2f_           0058f518 f   msmpifec:mpif.obj
 0001:0018e52f       _mpi_status_f2c__          0058f52f f   msmpifec:mpif.obj
 0001:0018e52f       _PMPI_STATUS_F2C           0058f52f f   msmpifec:mpif.obj
 0001:0018e52f       _pmpi_status_f2c_          0058f52f f   msmpifec:mpif.obj
 0001:0018e52f       _MPI_STATUS_F2C            0058f52f f   msmpifec:mpif.obj
 0001:0018e52f       _pmpi_status_f2c           0058f52f f   msmpifec:mpif.obj
 0001:0018e52f       _mpi_status_f2c_           0058f52f f   msmpifec:mpif.obj
 0001:0018e52f       _mpi_status_f2c            0058f52f f   msmpifec:mpif.obj
 0001:0018e52f       _pmpi_status_f2c__         0058f52f f   msmpifec:mpif.obj
 0001:0018e546       _mpi_type_create_darray    0058f546 f   msmpifec:mpif.obj
 0001:0018e546       _pmpi_type_create_darray   0058f546 f   msmpifec:mpif.obj
 0001:0018e546       _mpi_type_create_darray__  0058f546 f   msmpifec:mpif.obj
 0001:0018e546       _mpi_type_create_darray_   0058f546 f   msmpifec:mpif.obj
 0001:0018e546       _PMPI_TYPE_CREATE_DARRAY   0058f546 f   msmpifec:mpif.obj
 0001:0018e546       _pmpi_type_create_darray_  0058f546 f   msmpifec:mpif.obj
 0001:0018e546       _MPI_TYPE_CREATE_DARRAY    0058f546 f   msmpifec:mpif.obj
 0001:0018e546       _pmpi_type_create_darray__ 0058f546 f   msmpifec:mpif.obj
 0001:0018e57f       _mpi_type_create_hindexed__ 0058f57f f   msmpifec:mpif.obj
 0001:0018e57f       _mpi_type_create_hindexed  0058f57f f   msmpifec:mpif.obj
 0001:0018e57f       _PMPI_TYPE_CREATE_HINDEXED 0058f57f f   msmpifec:mpif.obj
 0001:0018e57f       _mpi_type_create_hindexed_ 0058f57f f   msmpifec:mpif.obj
 0001:0018e57f       _pmpi_type_create_hindexed_ 0058f57f f   msmpifec:mpif.obj
 0001:0018e57f       _MPI_TYPE_CREATE_HINDEXED  0058f57f f   msmpifec:mpif.obj
 0001:0018e57f       _pmpi_type_create_hindexed__ 0058f57f f   msmpifec:mpif.obj
 0001:0018e57f       _pmpi_type_create_hindexed 0058f57f f   msmpifec:mpif.obj
 0001:0018e5a3       _MPI_TYPE_CREATE_HVECTOR   0058f5a3 f   msmpifec:mpif.obj
 0001:0018e5a3       _pmpi_type_create_hvector__ 0058f5a3 f   msmpifec:mpif.obj
 0001:0018e5a3       _pmpi_type_create_hvector  0058f5a3 f   msmpifec:mpif.obj
 0001:0018e5a3       _pmpi_type_create_hvector_ 0058f5a3 f   msmpifec:mpif.obj
 0001:0018e5a3       _mpi_type_create_hvector_  0058f5a3 f   msmpifec:mpif.obj
 0001:0018e5a3       _PMPI_TYPE_CREATE_HVECTOR  0058f5a3 f   msmpifec:mpif.obj
 0001:0018e5a3       _mpi_type_create_hvector   0058f5a3 f   msmpifec:mpif.obj
 0001:0018e5a3       _mpi_type_create_hvector__ 0058f5a3 f   msmpifec:mpif.obj
 0001:0018e5cb       _mpi_type_create_indexed_block__ 0058f5cb f   msmpifec:mpif.obj
 0001:0018e5cb       _mpi_type_create_indexed_block 0058f5cb f   msmpifec:mpif.obj
 0001:0018e5cb       _pmpi_type_create_indexed_block_ 0058f5cb f   msmpifec:mpif.obj
 0001:0018e5cb       _mpi_type_create_indexed_block_ 0058f5cb f   msmpifec:mpif.obj
 0001:0018e5cb       _pmpi_type_create_indexed_block__ 0058f5cb f   msmpifec:mpif.obj
 0001:0018e5cb       _pmpi_type_create_indexed_block 0058f5cb f   msmpifec:mpif.obj
 0001:0018e5cb       _MPI_TYPE_CREATE_INDEXED_BLOCK 0058f5cb f   msmpifec:mpif.obj
 0001:0018e5cb       _PMPI_TYPE_CREATE_INDEXED_BLOCK 0058f5cb f   msmpifec:mpif.obj
 0001:0018e5f1       _MPI_TYPE_CREATE_RESIZED   0058f5f1 f   msmpifec:mpif.obj
 0001:0018e5f1       _mpi_type_create_resized_  0058f5f1 f   msmpifec:mpif.obj
 0001:0018e5f1       _mpi_type_create_resized__ 0058f5f1 f   msmpifec:mpif.obj
 0001:0018e5f1       _mpi_type_create_resized   0058f5f1 f   msmpifec:mpif.obj
 0001:0018e5f1       _PMPI_TYPE_CREATE_RESIZED  0058f5f1 f   msmpifec:mpif.obj
 0001:0018e5f1       _pmpi_type_create_resized_ 0058f5f1 f   msmpifec:mpif.obj
 0001:0018e5f1       _pmpi_type_create_resized  0058f5f1 f   msmpifec:mpif.obj
 0001:0018e5f1       _pmpi_type_create_resized__ 0058f5f1 f   msmpifec:mpif.obj
 0001:0018e614       _mpi_type_create_struct    0058f614 f   msmpifec:mpif.obj
 0001:0018e614       _PMPI_TYPE_CREATE_STRUCT   0058f614 f   msmpifec:mpif.obj
 0001:0018e614       _pmpi_type_create_struct__ 0058f614 f   msmpifec:mpif.obj
 0001:0018e614       _mpi_type_create_struct_   0058f614 f   msmpifec:mpif.obj
 0001:0018e614       _pmpi_type_create_struct_  0058f614 f   msmpifec:mpif.obj
 0001:0018e614       _MPI_TYPE_CREATE_STRUCT    0058f614 f   msmpifec:mpif.obj
 0001:0018e614       _pmpi_type_create_struct   0058f614 f   msmpifec:mpif.obj
 0001:0018e614       _mpi_type_create_struct__  0058f614 f   msmpifec:mpif.obj
 0001:0018e636       _mpi_type_create_subarray_ 0058f636 f   msmpifec:mpif.obj
 0001:0018e636       _PMPI_TYPE_CREATE_SUBARRAY 0058f636 f   msmpifec:mpif.obj
 0001:0018e636       _mpi_type_create_subarray__ 0058f636 f   msmpifec:mpif.obj
 0001:0018e636       _pmpi_type_create_subarray 0058f636 f   msmpifec:mpif.obj
 0001:0018e636       _mpi_type_create_subarray  0058f636 f   msmpifec:mpif.obj
 0001:0018e636       _pmpi_type_create_subarray_ 0058f636 f   msmpifec:mpif.obj
 0001:0018e636       _MPI_TYPE_CREATE_SUBARRAY  0058f636 f   msmpifec:mpif.obj
 0001:0018e636       _pmpi_type_create_subarray__ 0058f636 f   msmpifec:mpif.obj
 0001:0018e662       _mpi_type_get_extent       0058f662 f   msmpifec:mpif.obj
 0001:0018e662       _mpi_type_get_extent_      0058f662 f   msmpifec:mpif.obj
 0001:0018e662       _pmpi_type_get_extent_     0058f662 f   msmpifec:mpif.obj
 0001:0018e662       _pmpi_type_get_extent      0058f662 f   msmpifec:mpif.obj
 0001:0018e662       _PMPI_TYPE_GET_EXTENT      0058f662 f   msmpifec:mpif.obj
 0001:0018e662       _mpi_type_get_extent__     0058f662 f   msmpifec:mpif.obj
 0001:0018e662       _pmpi_type_get_extent__    0058f662 f   msmpifec:mpif.obj
 0001:0018e662       _MPI_TYPE_GET_EXTENT       0058f662 f   msmpifec:mpif.obj
 0001:0018e67e       _pmpi_type_get_true_extent 0058f67e f   msmpifec:mpif.obj
 0001:0018e67e       _pmpi_type_get_true_extent__ 0058f67e f   msmpifec:mpif.obj
 0001:0018e67e       _mpi_type_get_true_extent  0058f67e f   msmpifec:mpif.obj
 0001:0018e67e       _mpi_type_get_true_extent_ 0058f67e f   msmpifec:mpif.obj
 0001:0018e67e       _mpi_type_get_true_extent__ 0058f67e f   msmpifec:mpif.obj
 0001:0018e67e       _PMPI_TYPE_GET_TRUE_EXTENT 0058f67e f   msmpifec:mpif.obj
 0001:0018e67e       _MPI_TYPE_GET_TRUE_EXTENT  0058f67e f   msmpifec:mpif.obj
 0001:0018e67e       _pmpi_type_get_true_extent_ 0058f67e f   msmpifec:mpif.obj
 0001:0018e69a       _PMPI_UNPACK_EXTERNAL      0058f69a f   msmpifec:mpif.obj
 0001:0018e69a       _pmpi_unpack_external__    0058f69a f   msmpifec:mpif.obj
 0001:0018e69a       _mpi_unpack_external       0058f69a f   msmpifec:mpif.obj
 0001:0018e69a       _mpi_unpack_external_      0058f69a f   msmpifec:mpif.obj
 0001:0018e69a       _MPI_UNPACK_EXTERNAL       0058f69a f   msmpifec:mpif.obj
 0001:0018e69a       _pmpi_unpack_external      0058f69a f   msmpifec:mpif.obj
 0001:0018e69a       _mpi_unpack_external__     0058f69a f   msmpifec:mpif.obj
 0001:0018e69a       _pmpi_unpack_external_     0058f69a f   msmpifec:mpif.obj
 0001:0018e73a       _pmpi_win_create_errhandler__ 0058f73a f   msmpifec:mpif.obj
 0001:0018e73a       _PMPI_WIN_CREATE_ERRHANDLER 0058f73a f   msmpifec:mpif.obj
 0001:0018e73a       _MPI_WIN_CREATE_ERRHANDLER 0058f73a f   msmpifec:mpif.obj
 0001:0018e73a       _mpi_win_create_errhandler_ 0058f73a f   msmpifec:mpif.obj
 0001:0018e73a       _pmpi_win_create_errhandler 0058f73a f   msmpifec:mpif.obj
 0001:0018e73a       _mpi_win_create_errhandler 0058f73a f   msmpifec:mpif.obj
 0001:0018e73a       _pmpi_win_create_errhandler_ 0058f73a f   msmpifec:mpif.obj
 0001:0018e73a       _mpi_win_create_errhandler__ 0058f73a f   msmpifec:mpif.obj
 0001:0018e764       _pmpi_win_get_errhandler_  0058f764 f   msmpifec:mpif.obj
 0001:0018e764       _pmpi_win_get_errhandler__ 0058f764 f   msmpifec:mpif.obj
 0001:0018e764       _PMPI_WIN_GET_ERRHANDLER   0058f764 f   msmpifec:mpif.obj
 0001:0018e764       _pmpi_win_get_errhandler   0058f764 f   msmpifec:mpif.obj
 0001:0018e764       _mpi_win_get_errhandler_   0058f764 f   msmpifec:mpif.obj
 0001:0018e764       _mpi_win_get_errhandler__  0058f764 f   msmpifec:mpif.obj
 0001:0018e764       _mpi_win_get_errhandler    0058f764 f   msmpifec:mpif.obj
 0001:0018e764       _MPI_WIN_GET_ERRHANDLER    0058f764 f   msmpifec:mpif.obj
 0001:0018e77d       _pmpi_win_set_errhandler_  0058f77d f   msmpifec:mpif.obj
 0001:0018e77d       _mpi_win_set_errhandler__  0058f77d f   msmpifec:mpif.obj
 0001:0018e77d       _mpi_win_set_errhandler_   0058f77d f   msmpifec:mpif.obj
 0001:0018e77d       _mpi_win_set_errhandler    0058f77d f   msmpifec:mpif.obj
 0001:0018e77d       _PMPI_WIN_SET_ERRHANDLER   0058f77d f   msmpifec:mpif.obj
 0001:0018e77d       _pmpi_win_set_errhandler   0058f77d f   msmpifec:mpif.obj
 0001:0018e77d       _pmpi_win_set_errhandler__ 0058f77d f   msmpifec:mpif.obj
 0001:0018e77d       _MPI_WIN_SET_ERRHANDLER    0058f77d f   msmpifec:mpif.obj
 0001:0018e798       _PMPI_FILE_OPEN            0058f798 f   msmpifec:mpif.obj
 0001:0018e798       _MPI_FILE_OPEN             0058f798 f   msmpifec:mpif.obj
 0001:0018e798       _pmpi_file_open            0058f798 f   msmpifec:mpif.obj
 0001:0018e798       _pmpi_file_open__          0058f798 f   msmpifec:mpif.obj
 0001:0018e798       _mpi_file_open__           0058f798 f   msmpifec:mpif.obj
 0001:0018e798       _pmpi_file_open_           0058f798 f   msmpifec:mpif.obj
 0001:0018e798       _mpi_file_open             0058f798 f   msmpifec:mpif.obj
 0001:0018e798       _mpi_file_open_            0058f798 f   msmpifec:mpif.obj
 0001:0018e82e       _pmpi_file_close           0058f82e f   msmpifec:mpif.obj
 0001:0018e82e       _pmpi_file_close__         0058f82e f   msmpifec:mpif.obj
 0001:0018e82e       _mpi_file_close            0058f82e f   msmpifec:mpif.obj
 0001:0018e82e       _pmpi_file_close_          0058f82e f   msmpifec:mpif.obj
 0001:0018e82e       _mpi_file_close_           0058f82e f   msmpifec:mpif.obj
 0001:0018e82e       _PMPI_FILE_CLOSE           0058f82e f   msmpifec:mpif.obj
 0001:0018e82e       _MPI_FILE_CLOSE            0058f82e f   msmpifec:mpif.obj
 0001:0018e82e       _mpi_file_close__          0058f82e f   msmpifec:mpif.obj
 0001:0018e85c       _mpi_file_delete_          0058f85c f   msmpifec:mpif.obj
 0001:0018e85c       _pmpi_file_delete_         0058f85c f   msmpifec:mpif.obj
 0001:0018e85c       _mpi_file_delete           0058f85c f   msmpifec:mpif.obj
 0001:0018e85c       _pmpi_file_delete          0058f85c f   msmpifec:mpif.obj
 0001:0018e85c       _MPI_FILE_DELETE           0058f85c f   msmpifec:mpif.obj
 0001:0018e85c       _pmpi_file_delete__        0058f85c f   msmpifec:mpif.obj
 0001:0018e85c       _PMPI_FILE_DELETE          0058f85c f   msmpifec:mpif.obj
 0001:0018e85c       _mpi_file_delete__         0058f85c f   msmpifec:mpif.obj
 0001:0018e8d7       _pmpi_file_set_size__      0058f8d7 f   msmpifec:mpif.obj
 0001:0018e8d7       _MPI_FILE_SET_SIZE         0058f8d7 f   msmpifec:mpif.obj
 0001:0018e8d7       _mpi_file_set_size         0058f8d7 f   msmpifec:mpif.obj
 0001:0018e8d7       _mpi_file_set_size_        0058f8d7 f   msmpifec:mpif.obj
 0001:0018e8d7       _pmpi_file_set_size_       0058f8d7 f   msmpifec:mpif.obj
 0001:0018e8d7       _pmpi_file_set_size        0058f8d7 f   msmpifec:mpif.obj
 0001:0018e8d7       _mpi_file_set_size__       0058f8d7 f   msmpifec:mpif.obj
 0001:0018e8d7       _PMPI_FILE_SET_SIZE        0058f8d7 f   msmpifec:mpif.obj
 0001:0018e8fb       _pmpi_file_preallocate     0058f8fb f   msmpifec:mpif.obj
 0001:0018e8fb       _pmpi_file_preallocate__   0058f8fb f   msmpifec:mpif.obj
 0001:0018e8fb       _mpi_file_preallocate      0058f8fb f   msmpifec:mpif.obj
 0001:0018e8fb       _mpi_file_preallocate__    0058f8fb f   msmpifec:mpif.obj
 0001:0018e8fb       _PMPI_FILE_PREALLOCATE     0058f8fb f   msmpifec:mpif.obj
 0001:0018e8fb       _mpi_file_preallocate_     0058f8fb f   msmpifec:mpif.obj
 0001:0018e8fb       _pmpi_file_preallocate_    0058f8fb f   msmpifec:mpif.obj
 0001:0018e8fb       _MPI_FILE_PREALLOCATE      0058f8fb f   msmpifec:mpif.obj
 0001:0018e91f       _pmpi_file_get_size__      0058f91f f   msmpifec:mpif.obj
 0001:0018e91f       _mpi_file_get_size_        0058f91f f   msmpifec:mpif.obj
 0001:0018e91f       _mpi_file_get_size__       0058f91f f   msmpifec:mpif.obj
 0001:0018e91f       _PMPI_FILE_GET_SIZE        0058f91f f   msmpifec:mpif.obj
 0001:0018e91f       _mpi_file_get_size         0058f91f f   msmpifec:mpif.obj
 0001:0018e91f       _pmpi_file_get_size_       0058f91f f   msmpifec:mpif.obj
 0001:0018e91f       _MPI_FILE_GET_SIZE         0058f91f f   msmpifec:mpif.obj
 0001:0018e91f       _pmpi_file_get_size        0058f91f f   msmpifec:mpif.obj
 0001:0018e93e       _mpi_file_get_group        0058f93e f   msmpifec:mpif.obj
 0001:0018e93e       _mpi_file_get_group__      0058f93e f   msmpifec:mpif.obj
 0001:0018e93e       _pmpi_file_get_group__     0058f93e f   msmpifec:mpif.obj
 0001:0018e93e       _mpi_file_get_group_       0058f93e f   msmpifec:mpif.obj
 0001:0018e93e       _pmpi_file_get_group       0058f93e f   msmpifec:mpif.obj
 0001:0018e93e       _MPI_FILE_GET_GROUP        0058f93e f   msmpifec:mpif.obj
 0001:0018e93e       _pmpi_file_get_group_      0058f93e f   msmpifec:mpif.obj
 0001:0018e93e       _PMPI_FILE_GET_GROUP       0058f93e f   msmpifec:mpif.obj
 0001:0018e95d       _pmpi_file_get_amode_      0058f95d f   msmpifec:mpif.obj
 0001:0018e95d       _mpi_file_get_amode        0058f95d f   msmpifec:mpif.obj
 0001:0018e95d       _pmpi_file_get_amode__     0058f95d f   msmpifec:mpif.obj
 0001:0018e95d       _pmpi_file_get_amode       0058f95d f   msmpifec:mpif.obj
 0001:0018e95d       _mpi_file_get_amode_       0058f95d f   msmpifec:mpif.obj
 0001:0018e95d       _MPI_FILE_GET_AMODE        0058f95d f   msmpifec:mpif.obj
 0001:0018e95d       _PMPI_FILE_GET_AMODE       0058f95d f   msmpifec:mpif.obj
 0001:0018e95d       _mpi_file_get_amode__      0058f95d f   msmpifec:mpif.obj
 0001:0018e97c       _pmpi_file_set_info__      0058f97c f   msmpifec:mpif.obj
 0001:0018e97c       _pmpi_file_set_info_       0058f97c f   msmpifec:mpif.obj
 0001:0018e97c       _mpi_file_set_info_        0058f97c f   msmpifec:mpif.obj
 0001:0018e97c       _mpi_file_set_info         0058f97c f   msmpifec:mpif.obj
 0001:0018e97c       _mpi_file_set_info__       0058f97c f   msmpifec:mpif.obj
 0001:0018e97c       _MPI_FILE_SET_INFO         0058f97c f   msmpifec:mpif.obj
 0001:0018e97c       _PMPI_FILE_SET_INFO        0058f97c f   msmpifec:mpif.obj
 0001:0018e97c       _pmpi_file_set_info        0058f97c f   msmpifec:mpif.obj
 0001:0018e99d       _pmpi_file_get_info__      0058f99d f   msmpifec:mpif.obj
 0001:0018e99d       _PMPI_FILE_GET_INFO        0058f99d f   msmpifec:mpif.obj
 0001:0018e99d       _mpi_file_get_info_        0058f99d f   msmpifec:mpif.obj
 0001:0018e99d       _mpi_file_get_info__       0058f99d f   msmpifec:mpif.obj
 0001:0018e99d       _pmpi_file_get_info_       0058f99d f   msmpifec:mpif.obj
 0001:0018e99d       _MPI_FILE_GET_INFO         0058f99d f   msmpifec:mpif.obj
 0001:0018e99d       _mpi_file_get_info         0058f99d f   msmpifec:mpif.obj
 0001:0018e99d       _pmpi_file_get_info        0058f99d f   msmpifec:mpif.obj
 0001:0018e9bc       _pmpi_file_set_view_       0058f9bc f   msmpifec:mpif.obj
 0001:0018e9bc       _mpi_file_set_view_        0058f9bc f   msmpifec:mpif.obj
 0001:0018e9bc       _mpi_file_set_view__       0058f9bc f   msmpifec:mpif.obj
 0001:0018e9bc       _PMPI_FILE_SET_VIEW        0058f9bc f   msmpifec:mpif.obj
 0001:0018e9bc       _mpi_file_set_view         0058f9bc f   msmpifec:mpif.obj
 0001:0018e9bc       _pmpi_file_set_view__      0058f9bc f   msmpifec:mpif.obj
 0001:0018e9bc       _MPI_FILE_SET_VIEW         0058f9bc f   msmpifec:mpif.obj
 0001:0018e9bc       _pmpi_file_set_view        0058f9bc f   msmpifec:mpif.obj
 0001:0018ea54       _mpi_file_get_view__       0058fa54 f   msmpifec:mpif.obj
 0001:0018ea54       _pmpi_file_get_view        0058fa54 f   msmpifec:mpif.obj
 0001:0018ea54       _mpi_file_get_view_        0058fa54 f   msmpifec:mpif.obj
 0001:0018ea54       _MPI_FILE_GET_VIEW         0058fa54 f   msmpifec:mpif.obj
 0001:0018ea54       _pmpi_file_get_view__      0058fa54 f   msmpifec:mpif.obj
 0001:0018ea54       _PMPI_FILE_GET_VIEW        0058fa54 f   msmpifec:mpif.obj
 0001:0018ea54       _mpi_file_get_view         0058fa54 f   msmpifec:mpif.obj
 0001:0018ea54       _pmpi_file_get_view_       0058fa54 f   msmpifec:mpif.obj
 0001:0018ead3       _mpi_file_read_at          0058fad3 f   msmpifec:mpif.obj
 0001:0018ead3       _PMPI_FILE_READ_AT         0058fad3 f   msmpifec:mpif.obj
 0001:0018ead3       _mpi_file_read_at_         0058fad3 f   msmpifec:mpif.obj
 0001:0018ead3       _pmpi_file_read_at         0058fad3 f   msmpifec:mpif.obj
 0001:0018ead3       _mpi_file_read_at__        0058fad3 f   msmpifec:mpif.obj
 0001:0018ead3       _MPI_FILE_READ_AT          0058fad3 f   msmpifec:mpif.obj
 0001:0018ead3       _pmpi_file_read_at_        0058fad3 f   msmpifec:mpif.obj
 0001:0018ead3       _pmpi_file_read_at__       0058fad3 f   msmpifec:mpif.obj
 0001:0018eb07       _MPI_FILE_READ_AT_ALL      0058fb07 f   msmpifec:mpif.obj
 0001:0018eb07       _mpi_file_read_at_all      0058fb07 f   msmpifec:mpif.obj
 0001:0018eb07       _PMPI_FILE_READ_AT_ALL     0058fb07 f   msmpifec:mpif.obj
 0001:0018eb07       _mpi_file_read_at_all_     0058fb07 f   msmpifec:mpif.obj
 0001:0018eb07       _pmpi_file_read_at_all__   0058fb07 f   msmpifec:mpif.obj
 0001:0018eb07       _pmpi_file_read_at_all_    0058fb07 f   msmpifec:mpif.obj
 0001:0018eb07       _pmpi_file_read_at_all     0058fb07 f   msmpifec:mpif.obj
 0001:0018eb07       _mpi_file_read_at_all__    0058fb07 f   msmpifec:mpif.obj
 0001:0018eb3b       _pmpi_file_write_at        0058fb3b f   msmpifec:mpif.obj
 0001:0018eb3b       _mpi_file_write_at__       0058fb3b f   msmpifec:mpif.obj
 0001:0018eb3b       _pmpi_file_write_at__      0058fb3b f   msmpifec:mpif.obj
 0001:0018eb3b       _pmpi_file_write_at_       0058fb3b f   msmpifec:mpif.obj
 0001:0018eb3b       _mpi_file_write_at         0058fb3b f   msmpifec:mpif.obj
 0001:0018eb3b       _PMPI_FILE_WRITE_AT        0058fb3b f   msmpifec:mpif.obj
 0001:0018eb3b       _MPI_FILE_WRITE_AT         0058fb3b f   msmpifec:mpif.obj
 0001:0018eb3b       _mpi_file_write_at_        0058fb3b f   msmpifec:mpif.obj
 0001:0018eb6f       _pmpi_file_write_at_all__  0058fb6f f   msmpifec:mpif.obj
 0001:0018eb6f       _PMPI_FILE_WRITE_AT_ALL    0058fb6f f   msmpifec:mpif.obj
 0001:0018eb6f       _MPI_FILE_WRITE_AT_ALL     0058fb6f f   msmpifec:mpif.obj
 0001:0018eb6f       _mpi_file_write_at_all_    0058fb6f f   msmpifec:mpif.obj
 0001:0018eb6f       _mpi_file_write_at_all     0058fb6f f   msmpifec:mpif.obj
 0001:0018eb6f       _pmpi_file_write_at_all    0058fb6f f   msmpifec:mpif.obj
 0001:0018eb6f       _pmpi_file_write_at_all_   0058fb6f f   msmpifec:mpif.obj
 0001:0018eb6f       _mpi_file_write_at_all__   0058fb6f f   msmpifec:mpif.obj
 0001:0018eba3       _pmpi_file_iread_at_       0058fba3 f   msmpifec:mpif.obj
 0001:0018eba3       _mpi_file_iread_at_        0058fba3 f   msmpifec:mpif.obj
 0001:0018eba3       _mpi_file_iread_at         0058fba3 f   msmpifec:mpif.obj
 0001:0018eba3       _pmpi_file_iread_at        0058fba3 f   msmpifec:mpif.obj
 0001:0018eba3       _pmpi_file_iread_at__      0058fba3 f   msmpifec:mpif.obj
 0001:0018eba3       _mpi_file_iread_at__       0058fba3 f   msmpifec:mpif.obj
 0001:0018eba3       _MPI_FILE_IREAD_AT         0058fba3 f   msmpifec:mpif.obj
 0001:0018eba3       _PMPI_FILE_IREAD_AT        0058fba3 f   msmpifec:mpif.obj
 0001:0018ebd7       _pmpi_file_iwrite_at_      0058fbd7 f   msmpifec:mpif.obj
 0001:0018ebd7       _MPI_FILE_IWRITE_AT        0058fbd7 f   msmpifec:mpif.obj
 0001:0018ebd7       _mpi_file_iwrite_at__      0058fbd7 f   msmpifec:mpif.obj
 0001:0018ebd7       _pmpi_file_iwrite_at       0058fbd7 f   msmpifec:mpif.obj
 0001:0018ebd7       _mpi_file_iwrite_at_       0058fbd7 f   msmpifec:mpif.obj
 0001:0018ebd7       _pmpi_file_iwrite_at__     0058fbd7 f   msmpifec:mpif.obj
 0001:0018ebd7       _mpi_file_iwrite_at        0058fbd7 f   msmpifec:mpif.obj
 0001:0018ebd7       _PMPI_FILE_IWRITE_AT       0058fbd7 f   msmpifec:mpif.obj
 0001:0018ec0b       _MPI_FILE_READ             0058fc0b f   msmpifec:mpif.obj
 0001:0018ec0b       _PMPI_FILE_READ            0058fc0b f   msmpifec:mpif.obj
 0001:0018ec0b       _mpi_file_read_            0058fc0b f   msmpifec:mpif.obj
 0001:0018ec0b       _pmpi_file_read            0058fc0b f   msmpifec:mpif.obj
 0001:0018ec0b       _mpi_file_read__           0058fc0b f   msmpifec:mpif.obj
 0001:0018ec0b       _pmpi_file_read__          0058fc0b f   msmpifec:mpif.obj
 0001:0018ec0b       _pmpi_file_read_           0058fc0b f   msmpifec:mpif.obj
 0001:0018ec0b       _mpi_file_read             0058fc0b f   msmpifec:mpif.obj
 0001:0018ec37       _mpi_file_read_all_        0058fc37 f   msmpifec:mpif.obj
 0001:0018ec37       _pmpi_file_read_all_       0058fc37 f   msmpifec:mpif.obj
 0001:0018ec37       _mpi_file_read_all         0058fc37 f   msmpifec:mpif.obj
 0001:0018ec37       _PMPI_FILE_READ_ALL        0058fc37 f   msmpifec:mpif.obj
 0001:0018ec37       _pmpi_file_read_all__      0058fc37 f   msmpifec:mpif.obj
 0001:0018ec37       _pmpi_file_read_all        0058fc37 f   msmpifec:mpif.obj
 0001:0018ec37       _mpi_file_read_all__       0058fc37 f   msmpifec:mpif.obj
 0001:0018ec37       _MPI_FILE_READ_ALL         0058fc37 f   msmpifec:mpif.obj
 0001:0018ec63       _mpi_file_write__          0058fc63 f   msmpifec:mpif.obj
 0001:0018ec63       _pmpi_file_write_          0058fc63 f   msmpifec:mpif.obj
 0001:0018ec63       _PMPI_FILE_WRITE           0058fc63 f   msmpifec:mpif.obj
 0001:0018ec63       _MPI_FILE_WRITE            0058fc63 f   msmpifec:mpif.obj
 0001:0018ec63       _pmpi_file_write           0058fc63 f   msmpifec:mpif.obj
 0001:0018ec63       _mpi_file_write            0058fc63 f   msmpifec:mpif.obj
 0001:0018ec63       _mpi_file_write_           0058fc63 f   msmpifec:mpif.obj
 0001:0018ec63       _pmpi_file_write__         0058fc63 f   msmpifec:mpif.obj
 0001:0018ec8f       _MPI_FILE_WRITE_ALL        0058fc8f f   msmpifec:mpif.obj
 0001:0018ec8f       _pmpi_file_write_all_      0058fc8f f   msmpifec:mpif.obj
 0001:0018ec8f       _mpi_file_write_all_       0058fc8f f   msmpifec:mpif.obj
 0001:0018ec8f       _mpi_file_write_all__      0058fc8f f   msmpifec:mpif.obj
 0001:0018ec8f       _pmpi_file_write_all       0058fc8f f   msmpifec:mpif.obj
 0001:0018ec8f       _pmpi_file_write_all__     0058fc8f f   msmpifec:mpif.obj
 0001:0018ec8f       _PMPI_FILE_WRITE_ALL       0058fc8f f   msmpifec:mpif.obj
 0001:0018ec8f       _mpi_file_write_all        0058fc8f f   msmpifec:mpif.obj
 0001:0018ecbb       _pmpi_file_iread__         0058fcbb f   msmpifec:mpif.obj
 0001:0018ecbb       _mpi_file_iread__          0058fcbb f   msmpifec:mpif.obj
 0001:0018ecbb       _pmpi_file_iread_          0058fcbb f   msmpifec:mpif.obj
 0001:0018ecbb       _mpi_file_iread_           0058fcbb f   msmpifec:mpif.obj
 0001:0018ecbb       _MPI_FILE_IREAD            0058fcbb f   msmpifec:mpif.obj
 0001:0018ecbb       _pmpi_file_iread           0058fcbb f   msmpifec:mpif.obj
 0001:0018ecbb       _PMPI_FILE_IREAD           0058fcbb f   msmpifec:mpif.obj
 0001:0018ecbb       _mpi_file_iread            0058fcbb f   msmpifec:mpif.obj
 0001:0018ece7       _mpi_file_iwrite           0058fce7 f   msmpifec:mpif.obj
 0001:0018ece7       _pmpi_file_iwrite__        0058fce7 f   msmpifec:mpif.obj
 0001:0018ece7       _mpi_file_iwrite_          0058fce7 f   msmpifec:mpif.obj
 0001:0018ece7       _mpi_file_iwrite__         0058fce7 f   msmpifec:mpif.obj
 0001:0018ece7       _pmpi_file_iwrite_         0058fce7 f   msmpifec:mpif.obj
 0001:0018ece7       _pmpi_file_iwrite          0058fce7 f   msmpifec:mpif.obj
 0001:0018ece7       _PMPI_FILE_IWRITE          0058fce7 f   msmpifec:mpif.obj
 0001:0018ece7       _MPI_FILE_IWRITE           0058fce7 f   msmpifec:mpif.obj
 0001:0018ed13       _MPI_FILE_SEEK             0058fd13 f   msmpifec:mpif.obj
 0001:0018ed13       _mpi_file_seek             0058fd13 f   msmpifec:mpif.obj
 0001:0018ed13       _mpi_file_seek__           0058fd13 f   msmpifec:mpif.obj
 0001:0018ed13       _pmpi_file_seek__          0058fd13 f   msmpifec:mpif.obj
 0001:0018ed13       _mpi_file_seek_            0058fd13 f   msmpifec:mpif.obj
 0001:0018ed13       _PMPI_FILE_SEEK            0058fd13 f   msmpifec:mpif.obj
 0001:0018ed13       _pmpi_file_seek_           0058fd13 f   msmpifec:mpif.obj
 0001:0018ed13       _pmpi_file_seek            0058fd13 f   msmpifec:mpif.obj
 0001:0018ed3c       _pmpi_file_get_position_   0058fd3c f   msmpifec:mpif.obj
 0001:0018ed3c       _pmpi_file_get_position__  0058fd3c f   msmpifec:mpif.obj
 0001:0018ed3c       _PMPI_FILE_GET_POSITION    0058fd3c f   msmpifec:mpif.obj
 0001:0018ed3c       _mpi_file_get_position     0058fd3c f   msmpifec:mpif.obj
 0001:0018ed3c       _mpi_file_get_position_    0058fd3c f   msmpifec:mpif.obj
 0001:0018ed3c       _MPI_FILE_GET_POSITION     0058fd3c f   msmpifec:mpif.obj
 0001:0018ed3c       _pmpi_file_get_position    0058fd3c f   msmpifec:mpif.obj
 0001:0018ed3c       _mpi_file_get_position__   0058fd3c f   msmpifec:mpif.obj
 0001:0018ed5b       _PMPI_FILE_GET_BYTE_OFFSET 0058fd5b f   msmpifec:mpif.obj
 0001:0018ed5b       _mpi_file_get_byte_offset  0058fd5b f   msmpifec:mpif.obj
 0001:0018ed5b       _pmpi_file_get_byte_offset__ 0058fd5b f   msmpifec:mpif.obj
 0001:0018ed5b       _MPI_FILE_GET_BYTE_OFFSET  0058fd5b f   msmpifec:mpif.obj
 0001:0018ed5b       _mpi_file_get_byte_offset_ 0058fd5b f   msmpifec:mpif.obj
 0001:0018ed5b       _pmpi_file_get_byte_offset 0058fd5b f   msmpifec:mpif.obj
 0001:0018ed5b       _mpi_file_get_byte_offset__ 0058fd5b f   msmpifec:mpif.obj
 0001:0018ed5b       _pmpi_file_get_byte_offset_ 0058fd5b f   msmpifec:mpif.obj
 0001:0018ed82       _MPI_FILE_READ_SHARED      0058fd82 f   msmpifec:mpif.obj
 0001:0018ed82       _mpi_file_read_shared      0058fd82 f   msmpifec:mpif.obj
 0001:0018ed82       _PMPI_FILE_READ_SHARED     0058fd82 f   msmpifec:mpif.obj
 0001:0018ed82       _mpi_file_read_shared__    0058fd82 f   msmpifec:mpif.obj
 0001:0018ed82       _mpi_file_read_shared_     0058fd82 f   msmpifec:mpif.obj
 0001:0018ed82       _pmpi_file_read_shared     0058fd82 f   msmpifec:mpif.obj
 0001:0018ed82       _pmpi_file_read_shared__   0058fd82 f   msmpifec:mpif.obj
 0001:0018ed82       _pmpi_file_read_shared_    0058fd82 f   msmpifec:mpif.obj
 0001:0018edae       _pmpi_file_write_shared    0058fdae f   msmpifec:mpif.obj
 0001:0018edae       _MPI_FILE_WRITE_SHARED     0058fdae f   msmpifec:mpif.obj
 0001:0018edae       _mpi_file_write_shared     0058fdae f   msmpifec:mpif.obj
 0001:0018edae       _mpi_file_write_shared__   0058fdae f   msmpifec:mpif.obj
 0001:0018edae       _PMPI_FILE_WRITE_SHARED    0058fdae f   msmpifec:mpif.obj
 0001:0018edae       _pmpi_file_write_shared__  0058fdae f   msmpifec:mpif.obj
 0001:0018edae       _mpi_file_write_shared_    0058fdae f   msmpifec:mpif.obj
 0001:0018edae       _pmpi_file_write_shared_   0058fdae f   msmpifec:mpif.obj
 0001:0018edda       _mpi_file_iread_shared     0058fdda f   msmpifec:mpif.obj
 0001:0018edda       _mpi_file_iread_shared__   0058fdda f   msmpifec:mpif.obj
 0001:0018edda       _pmpi_file_iread_shared_   0058fdda f   msmpifec:mpif.obj
 0001:0018edda       _pmpi_file_iread_shared__  0058fdda f   msmpifec:mpif.obj
 0001:0018edda       _MPI_FILE_IREAD_SHARED     0058fdda f   msmpifec:mpif.obj
 0001:0018edda       _mpi_file_iread_shared_    0058fdda f   msmpifec:mpif.obj
 0001:0018edda       _PMPI_FILE_IREAD_SHARED    0058fdda f   msmpifec:mpif.obj
 0001:0018edda       _pmpi_file_iread_shared    0058fdda f   msmpifec:mpif.obj
 0001:0018ee06       _MPI_FILE_IWRITE_SHARED    0058fe06 f   msmpifec:mpif.obj
 0001:0018ee06       _pmpi_file_iwrite_shared__ 0058fe06 f   msmpifec:mpif.obj
 0001:0018ee06       _pmpi_file_iwrite_shared   0058fe06 f   msmpifec:mpif.obj
 0001:0018ee06       _mpi_file_iwrite_shared    0058fe06 f   msmpifec:mpif.obj
 0001:0018ee06       _mpi_file_iwrite_shared_   0058fe06 f   msmpifec:mpif.obj
 0001:0018ee06       _pmpi_file_iwrite_shared_  0058fe06 f   msmpifec:mpif.obj
 0001:0018ee06       _PMPI_FILE_IWRITE_SHARED   0058fe06 f   msmpifec:mpif.obj
 0001:0018ee06       _mpi_file_iwrite_shared__  0058fe06 f   msmpifec:mpif.obj
 0001:0018ee32       _PMPI_FILE_READ_ORDERED    0058fe32 f   msmpifec:mpif.obj
 0001:0018ee32       _mpi_file_read_ordered__   0058fe32 f   msmpifec:mpif.obj
 0001:0018ee32       _pmpi_file_read_ordered__  0058fe32 f   msmpifec:mpif.obj
 0001:0018ee32       _MPI_FILE_READ_ORDERED     0058fe32 f   msmpifec:mpif.obj
 0001:0018ee32       _mpi_file_read_ordered_    0058fe32 f   msmpifec:mpif.obj
 0001:0018ee32       _pmpi_file_read_ordered_   0058fe32 f   msmpifec:mpif.obj
 0001:0018ee32       _mpi_file_read_ordered     0058fe32 f   msmpifec:mpif.obj
 0001:0018ee32       _pmpi_file_read_ordered    0058fe32 f   msmpifec:mpif.obj
 0001:0018ee5e       _mpi_file_write_ordered    0058fe5e f   msmpifec:mpif.obj
 0001:0018ee5e       _pmpi_file_write_ordered   0058fe5e f   msmpifec:mpif.obj
 0001:0018ee5e       _mpi_file_write_ordered_   0058fe5e f   msmpifec:mpif.obj
 0001:0018ee5e       _pmpi_file_write_ordered__ 0058fe5e f   msmpifec:mpif.obj
 0001:0018ee5e       _pmpi_file_write_ordered_  0058fe5e f   msmpifec:mpif.obj
 0001:0018ee5e       _mpi_file_write_ordered__  0058fe5e f   msmpifec:mpif.obj
 0001:0018ee5e       _MPI_FILE_WRITE_ORDERED    0058fe5e f   msmpifec:mpif.obj
 0001:0018ee5e       _PMPI_FILE_WRITE_ORDERED   0058fe5e f   msmpifec:mpif.obj
 0001:0018ee8a       _PMPI_FILE_SEEK_SHARED     0058fe8a f   msmpifec:mpif.obj
 0001:0018ee8a       _mpi_file_seek_shared_     0058fe8a f   msmpifec:mpif.obj
 0001:0018ee8a       _MPI_FILE_SEEK_SHARED      0058fe8a f   msmpifec:mpif.obj
 0001:0018ee8a       _mpi_file_seek_shared      0058fe8a f   msmpifec:mpif.obj
 0001:0018ee8a       _pmpi_file_seek_shared__   0058fe8a f   msmpifec:mpif.obj
 0001:0018ee8a       _pmpi_file_seek_shared     0058fe8a f   msmpifec:mpif.obj
 0001:0018ee8a       _pmpi_file_seek_shared_    0058fe8a f   msmpifec:mpif.obj
 0001:0018ee8a       _mpi_file_seek_shared__    0058fe8a f   msmpifec:mpif.obj
 0001:0018eeb3       _mpi_file_get_position_shared__ 0058feb3 f   msmpifec:mpif.obj
 0001:0018eeb3       _mpi_file_get_position_shared_ 0058feb3 f   msmpifec:mpif.obj
 0001:0018eeb3       _MPI_FILE_GET_POSITION_SHARED 0058feb3 f   msmpifec:mpif.obj
 0001:0018eeb3       _pmpi_file_get_position_shared_ 0058feb3 f   msmpifec:mpif.obj
 0001:0018eeb3       _PMPI_FILE_GET_POSITION_SHARED 0058feb3 f   msmpifec:mpif.obj
 0001:0018eeb3       _mpi_file_get_position_shared 0058feb3 f   msmpifec:mpif.obj
 0001:0018eeb3       _pmpi_file_get_position_shared__ 0058feb3 f   msmpifec:mpif.obj
 0001:0018eeb3       _pmpi_file_get_position_shared 0058feb3 f   msmpifec:mpif.obj
 0001:0018eed2       _mpi_file_read_at_all_begin 0058fed2 f   msmpifec:mpif.obj
 0001:0018eed2       _pmpi_file_read_at_all_begin_ 0058fed2 f   msmpifec:mpif.obj
 0001:0018eed2       _mpi_file_read_at_all_begin__ 0058fed2 f   msmpifec:mpif.obj
 0001:0018eed2       _pmpi_file_read_at_all_begin 0058fed2 f   msmpifec:mpif.obj
 0001:0018eed2       _mpi_file_read_at_all_begin_ 0058fed2 f   msmpifec:mpif.obj
 0001:0018eed2       _pmpi_file_read_at_all_begin__ 0058fed2 f   msmpifec:mpif.obj
 0001:0018eed2       _MPI_FILE_READ_AT_ALL_BEGIN 0058fed2 f   msmpifec:mpif.obj
 0001:0018eed2       _PMPI_FILE_READ_AT_ALL_BEGIN 0058fed2 f   msmpifec:mpif.obj
 0001:0018ef03       _mpi_file_read_at_all_end__ 0058ff03 f   msmpifec:mpif.obj
 0001:0018ef03       _mpi_file_read_at_all_end  0058ff03 f   msmpifec:mpif.obj
 0001:0018ef03       _pmpi_file_read_at_all_end_ 0058ff03 f   msmpifec:mpif.obj
 0001:0018ef03       _mpi_file_read_at_all_end_ 0058ff03 f   msmpifec:mpif.obj
 0001:0018ef03       _pmpi_file_read_at_all_end 0058ff03 f   msmpifec:mpif.obj
 0001:0018ef03       _PMPI_FILE_READ_AT_ALL_END 0058ff03 f   msmpifec:mpif.obj
 0001:0018ef03       _pmpi_file_read_at_all_end__ 0058ff03 f   msmpifec:mpif.obj
 0001:0018ef03       _MPI_FILE_READ_AT_ALL_END  0058ff03 f   msmpifec:mpif.obj
 0001:0018ef25       _mpi_file_write_at_all_begin_ 0058ff25 f   msmpifec:mpif.obj
 0001:0018ef25       _pmpi_file_write_at_all_begin__ 0058ff25 f   msmpifec:mpif.obj
 0001:0018ef25       _PMPI_FILE_WRITE_AT_ALL_BEGIN 0058ff25 f   msmpifec:mpif.obj
 0001:0018ef25       _mpi_file_write_at_all_begin 0058ff25 f   msmpifec:mpif.obj
 0001:0018ef25       _mpi_file_write_at_all_begin__ 0058ff25 f   msmpifec:mpif.obj
 0001:0018ef25       _pmpi_file_write_at_all_begin_ 0058ff25 f   msmpifec:mpif.obj
 0001:0018ef25       _MPI_FILE_WRITE_AT_ALL_BEGIN 0058ff25 f   msmpifec:mpif.obj
 0001:0018ef25       _pmpi_file_write_at_all_begin 0058ff25 f   msmpifec:mpif.obj
 0001:0018ef56       _pmpi_file_write_at_all_end__ 0058ff56 f   msmpifec:mpif.obj
 0001:0018ef56       _PMPI_FILE_WRITE_AT_ALL_END 0058ff56 f   msmpifec:mpif.obj
 0001:0018ef56       _pmpi_file_write_at_all_end_ 0058ff56 f   msmpifec:mpif.obj
 0001:0018ef56       _pmpi_file_write_at_all_end 0058ff56 f   msmpifec:mpif.obj
 0001:0018ef56       _mpi_file_write_at_all_end_ 0058ff56 f   msmpifec:mpif.obj
 0001:0018ef56       _mpi_file_write_at_all_end 0058ff56 f   msmpifec:mpif.obj
 0001:0018ef56       _MPI_FILE_WRITE_AT_ALL_END 0058ff56 f   msmpifec:mpif.obj
 0001:0018ef56       _mpi_file_write_at_all_end__ 0058ff56 f   msmpifec:mpif.obj
 0001:0018ef78       _pmpi_file_read_all_begin_ 0058ff78 f   msmpifec:mpif.obj
 0001:0018ef78       _mpi_file_read_all_begin_  0058ff78 f   msmpifec:mpif.obj
 0001:0018ef78       _pmpi_file_read_all_begin  0058ff78 f   msmpifec:mpif.obj
 0001:0018ef78       _PMPI_FILE_READ_ALL_BEGIN  0058ff78 f   msmpifec:mpif.obj
 0001:0018ef78       _MPI_FILE_READ_ALL_BEGIN   0058ff78 f   msmpifec:mpif.obj
 0001:0018ef78       _pmpi_file_read_all_begin__ 0058ff78 f   msmpifec:mpif.obj
 0001:0018ef78       _mpi_file_read_all_begin__ 0058ff78 f   msmpifec:mpif.obj
 0001:0018ef78       _mpi_file_read_all_begin   0058ff78 f   msmpifec:mpif.obj
 0001:0018efa1       _PMPI_FILE_READ_ALL_END    0058ffa1 f   msmpifec:mpif.obj
 0001:0018efa1       _mpi_file_read_all_end_    0058ffa1 f   msmpifec:mpif.obj
 0001:0018efa1       _MPI_FILE_READ_ALL_END     0058ffa1 f   msmpifec:mpif.obj
 0001:0018efa1       _pmpi_file_read_all_end    0058ffa1 f   msmpifec:mpif.obj
 0001:0018efa1       _pmpi_file_read_all_end_   0058ffa1 f   msmpifec:mpif.obj
 0001:0018efa1       _mpi_file_read_all_end     0058ffa1 f   msmpifec:mpif.obj
 0001:0018efa1       _pmpi_file_read_all_end__  0058ffa1 f   msmpifec:mpif.obj
 0001:0018efa1       _mpi_file_read_all_end__   0058ffa1 f   msmpifec:mpif.obj
 0001:0018efc3       _PMPI_FILE_WRITE_ALL_BEGIN 0058ffc3 f   msmpifec:mpif.obj
 0001:0018efc3       _mpi_file_write_all_begin__ 0058ffc3 f   msmpifec:mpif.obj
 0001:0018efc3       _mpi_file_write_all_begin  0058ffc3 f   msmpifec:mpif.obj
 0001:0018efc3       _pmpi_file_write_all_begin 0058ffc3 f   msmpifec:mpif.obj
 0001:0018efc3       _MPI_FILE_WRITE_ALL_BEGIN  0058ffc3 f   msmpifec:mpif.obj
 0001:0018efc3       _pmpi_file_write_all_begin_ 0058ffc3 f   msmpifec:mpif.obj
 0001:0018efc3       _mpi_file_write_all_begin_ 0058ffc3 f   msmpifec:mpif.obj
 0001:0018efc3       _pmpi_file_write_all_begin__ 0058ffc3 f   msmpifec:mpif.obj
 0001:0018efec       _pmpi_file_write_all_end_  0058ffec f   msmpifec:mpif.obj
 0001:0018efec       _pmpi_file_write_all_end   0058ffec f   msmpifec:mpif.obj
 0001:0018efec       _mpi_file_write_all_end    0058ffec f   msmpifec:mpif.obj
 0001:0018efec       _pmpi_file_write_all_end__ 0058ffec f   msmpifec:mpif.obj
 0001:0018efec       _MPI_FILE_WRITE_ALL_END    0058ffec f   msmpifec:mpif.obj
 0001:0018efec       _mpi_file_write_all_end_   0058ffec f   msmpifec:mpif.obj
 0001:0018efec       _PMPI_FILE_WRITE_ALL_END   0058ffec f   msmpifec:mpif.obj
 0001:0018efec       _mpi_file_write_all_end__  0058ffec f   msmpifec:mpif.obj
 0001:0018f00e       _MPI_FILE_READ_ORDERED_BEGIN 0059000e f   msmpifec:mpif.obj
 0001:0018f00e       _mpi_file_read_ordered_begin 0059000e f   msmpifec:mpif.obj
 0001:0018f00e       _PMPI_FILE_READ_ORDERED_BEGIN 0059000e f   msmpifec:mpif.obj
 0001:0018f00e       _mpi_file_read_ordered_begin_ 0059000e f   msmpifec:mpif.obj
 0001:0018f00e       _pmpi_file_read_ordered_begin 0059000e f   msmpifec:mpif.obj
 0001:0018f00e       _mpi_file_read_ordered_begin__ 0059000e f   msmpifec:mpif.obj
 0001:0018f00e       _pmpi_file_read_ordered_begin_ 0059000e f   msmpifec:mpif.obj
 0001:0018f00e       _pmpi_file_read_ordered_begin__ 0059000e f   msmpifec:mpif.obj
 0001:0018f037       _mpi_file_read_ordered_end 00590037 f   msmpifec:mpif.obj
 0001:0018f037       _pmpi_file_read_ordered_end_ 00590037 f   msmpifec:mpif.obj
 0001:0018f037       _pmpi_file_read_ordered_end 00590037 f   msmpifec:mpif.obj
 0001:0018f037       _PMPI_FILE_READ_ORDERED_END 00590037 f   msmpifec:mpif.obj
 0001:0018f037       _pmpi_file_read_ordered_end__ 00590037 f   msmpifec:mpif.obj
 0001:0018f037       _MPI_FILE_READ_ORDERED_END 00590037 f   msmpifec:mpif.obj
 0001:0018f037       _mpi_file_read_ordered_end_ 00590037 f   msmpifec:mpif.obj
 0001:0018f037       _mpi_file_read_ordered_end__ 00590037 f   msmpifec:mpif.obj
 0001:0018f059       _PMPI_FILE_WRITE_ORDERED_BEGIN 00590059 f   msmpifec:mpif.obj
 0001:0018f059       _mpi_file_write_ordered_begin_ 00590059 f   msmpifec:mpif.obj
 0001:0018f059       _pmpi_file_write_ordered_begin__ 00590059 f   msmpifec:mpif.obj
 0001:0018f059       _mpi_file_write_ordered_begin 00590059 f   msmpifec:mpif.obj
 0001:0018f059       _pmpi_file_write_ordered_begin_ 00590059 f   msmpifec:mpif.obj
 0001:0018f059       _MPI_FILE_WRITE_ORDERED_BEGIN 00590059 f   msmpifec:mpif.obj
 0001:0018f059       _pmpi_file_write_ordered_begin 00590059 f   msmpifec:mpif.obj
 0001:0018f059       _mpi_file_write_ordered_begin__ 00590059 f   msmpifec:mpif.obj
 0001:0018f082       _mpi_file_write_ordered_end_ 00590082 f   msmpifec:mpif.obj
 0001:0018f082       _mpi_file_write_ordered_end 00590082 f   msmpifec:mpif.obj
 0001:0018f082       _MPI_FILE_WRITE_ORDERED_END 00590082 f   msmpifec:mpif.obj
 0001:0018f082       _pmpi_file_write_ordered_end__ 00590082 f   msmpifec:mpif.obj
 0001:0018f082       _pmpi_file_write_ordered_end_ 00590082 f   msmpifec:mpif.obj
 0001:0018f082       _pmpi_file_write_ordered_end 00590082 f   msmpifec:mpif.obj
 0001:0018f082       _PMPI_FILE_WRITE_ORDERED_END 00590082 f   msmpifec:mpif.obj
 0001:0018f082       _mpi_file_write_ordered_end__ 00590082 f   msmpifec:mpif.obj
 0001:0018f0a4       _mpi_file_get_type_extent__ 005900a4 f   msmpifec:mpif.obj
 0001:0018f0a4       _mpi_file_get_type_extent_ 005900a4 f   msmpifec:mpif.obj
 0001:0018f0a4       _pmpi_file_get_type_extent_ 005900a4 f   msmpifec:mpif.obj
 0001:0018f0a4       _PMPI_FILE_GET_TYPE_EXTENT 005900a4 f   msmpifec:mpif.obj
 0001:0018f0a4       _mpi_file_get_type_extent  005900a4 f   msmpifec:mpif.obj
 0001:0018f0a4       _pmpi_file_get_type_extent__ 005900a4 f   msmpifec:mpif.obj
 0001:0018f0a4       _pmpi_file_get_type_extent 005900a4 f   msmpifec:mpif.obj
 0001:0018f0a4       _MPI_FILE_GET_TYPE_EXTENT  005900a4 f   msmpifec:mpif.obj
 0001:0018f0c8       _mpi_conversion_fn_null__  005900c8 f   msmpifec:mpif.obj
 0001:0018f0c8       _pmpi_conversion_fn_null__ 005900c8 f   msmpifec:mpif.obj
 0001:0018f0c8       _pmpi_conversion_fn_null_  005900c8 f   msmpifec:mpif.obj
 0001:0018f0c8       _pmpi_conversion_fn_null   005900c8 f   msmpifec:mpif.obj
 0001:0018f0c8       _PMPI_CONVERSION_FN_NULL   005900c8 f   msmpifec:mpif.obj
 0001:0018f0c8       _mpi_conversion_fn_null_   005900c8 f   msmpifec:mpif.obj
 0001:0018f0c8       _MPI_CONVERSION_FN_NULL    005900c8 f   msmpifec:mpif.obj
 0001:0018f0c8       _mpi_conversion_fn_null    005900c8 f   msmpifec:mpif.obj
 0001:0018f0cb       _mpi_register_datarep      005900cb f   msmpifec:mpif.obj
 0001:0018f0cb       _pmpi_register_datarep__   005900cb f   msmpifec:mpif.obj
 0001:0018f0cb       _MPI_REGISTER_DATAREP      005900cb f   msmpifec:mpif.obj
 0001:0018f0cb       _pmpi_register_datarep     005900cb f   msmpifec:mpif.obj
 0001:0018f0cb       _mpi_register_datarep__    005900cb f   msmpifec:mpif.obj
 0001:0018f0cb       _mpi_register_datarep_     005900cb f   msmpifec:mpif.obj
 0001:0018f0cb       _pmpi_register_datarep_    005900cb f   msmpifec:mpif.obj
 0001:0018f0cb       _PMPI_REGISTER_DATAREP     005900cb f   msmpifec:mpif.obj
 0001:0018f163       _mpi_file_set_atomicity__  00590163 f   msmpifec:mpif.obj
 0001:0018f163       _pmpi_file_set_atomicity_  00590163 f   msmpifec:mpif.obj
 0001:0018f163       _pmpi_file_set_atomicity__ 00590163 f   msmpifec:mpif.obj
 0001:0018f163       _mpi_file_set_atomicity    00590163 f   msmpifec:mpif.obj
 0001:0018f163       _mpi_file_set_atomicity_   00590163 f   msmpifec:mpif.obj
 0001:0018f163       _pmpi_file_set_atomicity   00590163 f   msmpifec:mpif.obj
 0001:0018f163       _PMPI_FILE_SET_ATOMICITY   00590163 f   msmpifec:mpif.obj
 0001:0018f163       _MPI_FILE_SET_ATOMICITY    00590163 f   msmpifec:mpif.obj
 0001:0018f18a       _pmpi_file_get_atomicity   0059018a f   msmpifec:mpif.obj
 0001:0018f18a       _mpi_file_get_atomicity_   0059018a f   msmpifec:mpif.obj
 0001:0018f18a       _mpi_file_get_atomicity    0059018a f   msmpifec:mpif.obj
 0001:0018f18a       _mpi_file_get_atomicity__  0059018a f   msmpifec:mpif.obj
 0001:0018f18a       _PMPI_FILE_GET_ATOMICITY   0059018a f   msmpifec:mpif.obj
 0001:0018f18a       _MPI_FILE_GET_ATOMICITY    0059018a f   msmpifec:mpif.obj
 0001:0018f18a       _pmpi_file_get_atomicity__ 0059018a f   msmpifec:mpif.obj
 0001:0018f18a       _pmpi_file_get_atomicity_  0059018a f   msmpifec:mpif.obj
 0001:0018f1b7       _pmpi_file_sync_           005901b7 f   msmpifec:mpif.obj
 0001:0018f1b7       _mpi_file_sync__           005901b7 f   msmpifec:mpif.obj
 0001:0018f1b7       _MPI_FILE_SYNC             005901b7 f   msmpifec:mpif.obj
 0001:0018f1b7       _mpi_file_sync_            005901b7 f   msmpifec:mpif.obj
 0001:0018f1b7       _mpi_file_sync             005901b7 f   msmpifec:mpif.obj
 0001:0018f1b7       _pmpi_file_sync            005901b7 f   msmpifec:mpif.obj
 0001:0018f1b7       _PMPI_FILE_SYNC            005901b7 f   msmpifec:mpif.obj
 0001:0018f1b7       _pmpi_file_sync__          005901b7 f   msmpifec:mpif.obj
 0001:0018f1d3       _MPI_INIT                  005901d3 f   msmpifec:mpif.obj
 0001:0018f1d3       _mpi_init__                005901d3 f   msmpifec:mpif.obj
 0001:0018f1d3       _mpi_init                  005901d3 f   msmpifec:mpif.obj
 0001:0018f1d3       _pmpi_init                 005901d3 f   msmpifec:mpif.obj
 0001:0018f1d3       _pmpi_init_                005901d3 f   msmpifec:mpif.obj
 0001:0018f1d3       _PMPI_INIT                 005901d3 f   msmpifec:mpif.obj
 0001:0018f1d3       _pmpi_init__               005901d3 f   msmpifec:mpif.obj
 0001:0018f1d3       _mpi_init_                 005901d3 f   msmpifec:mpif.obj
 0001:0018f1f2       _PMPI_INIT_THREAD          005901f2 f   msmpifec:mpif.obj
 0001:0018f1f2       _pmpi_init_thread_         005901f2 f   msmpifec:mpif.obj
 0001:0018f1f2       _mpi_init_thread_          005901f2 f   msmpifec:mpif.obj
 0001:0018f1f2       _mpi_init_thread           005901f2 f   msmpifec:mpif.obj
 0001:0018f1f2       _pmpi_init_thread          005901f2 f   msmpifec:mpif.obj
 0001:0018f1f2       _MPI_INIT_THREAD           005901f2 f   msmpifec:mpif.obj
 0001:0018f1f2       _pmpi_init_thread__        005901f2 f   msmpifec:mpif.obj
 0001:0018f1f2       _mpi_init_thread__         005901f2 f   msmpifec:mpif.obj
 0001:0018f219       _mpirinitc                 00590219 f   msmpifec:mpif.obj
 0001:0018f256       _mpirinitc2                00590256 f   msmpifec:mpif.obj
 0001:0018f263       _pmpi_pcontrol__           00590263 f   msmpifec:mpif.obj
 0001:0018f263       _mpi_pcontrol__            00590263 f   msmpifec:mpif.obj
 0001:0018f263       _pmpi_pcontrol_            00590263 f   msmpifec:mpif.obj
 0001:0018f263       _PMPI_PCONTROL             00590263 f   msmpifec:mpif.obj
 0001:0018f263       _MPI_PCONTROL              00590263 f   msmpifec:mpif.obj
 0001:0018f263       _mpi_pcontrol_             00590263 f   msmpifec:mpif.obj
 0001:0018f263       _mpi_pcontrol              00590263 f   msmpifec:mpif.obj
 0001:0018f263       _pmpi_pcontrol             00590263 f   msmpifec:mpif.obj
 0001:0018f27a       _mpi_address_              0059027a f   msmpifec:mpif.obj
 0001:0018f27a       _mpi_address__             0059027a f   msmpifec:mpif.obj
 0001:0018f27a       _mpi_address               0059027a f   msmpifec:mpif.obj
 0001:0018f27a       _MPI_ADDRESS               0059027a f   msmpifec:mpif.obj
 0001:0018f27a       _pmpi_address              0059027a f   msmpifec:mpif.obj
 0001:0018f27a       _pmpi_address__            0059027a f   msmpifec:mpif.obj
 0001:0018f27a       _PMPI_ADDRESS              0059027a f   msmpifec:mpif.obj
 0001:0018f27a       _pmpi_address_             0059027a f   msmpifec:mpif.obj
 0001:0018f2b6       _mpi_get_address_          005902b6 f   msmpifec:mpif.obj
 0001:0018f2b6       _mpi_get_address           005902b6 f   msmpifec:mpif.obj
 0001:0018f2b6       _pmpi_get_address_         005902b6 f   msmpifec:mpif.obj
 0001:0018f2b6       _PMPI_GET_ADDRESS          005902b6 f   msmpifec:mpif.obj
 0001:0018f2b6       _mpi_get_address__         005902b6 f   msmpifec:mpif.obj
 0001:0018f2b6       _pmpi_get_address          005902b6 f   msmpifec:mpif.obj
 0001:0018f2b6       _MPI_GET_ADDRESS           005902b6 f   msmpifec:mpif.obj
 0001:0018f2b6       _pmpi_get_address__        005902b6 f   msmpifec:mpif.obj
 0001:0018f2dd       _mpi_wtime_                005902dd f   msmpifec:mpif.obj
 0001:0018f2dd       _pmpi_wtime_               005902dd f   msmpifec:mpif.obj
 0001:0018f2dd       _pmpi_wtime__              005902dd f   msmpifec:mpif.obj
 0001:0018f2dd       _MPI_WTIME                 005902dd f   msmpifec:mpif.obj
 0001:0018f2dd       _mpi_wtime                 005902dd f   msmpifec:mpif.obj
 0001:0018f2dd       _mpi_wtime__               005902dd f   msmpifec:mpif.obj
 0001:0018f2dd       _pmpi_wtime                005902dd f   msmpifec:mpif.obj
 0001:0018f2dd       _PMPI_WTIME                005902dd f   msmpifec:mpif.obj
 0001:0018f2e2       _mpi_wtick_                005902e2 f   msmpifec:mpif.obj
 0001:0018f2e2       _pmpi_wtick__              005902e2 f   msmpifec:mpif.obj
 0001:0018f2e2       _mpi_wtick                 005902e2 f   msmpifec:mpif.obj
 0001:0018f2e2       _pmpi_wtick                005902e2 f   msmpifec:mpif.obj
 0001:0018f2e2       _mpi_wtick__               005902e2 f   msmpifec:mpif.obj
 0001:0018f2e2       _MPI_WTICK                 005902e2 f   msmpifec:mpif.obj
 0001:0018f2e2       _pmpi_wtick_               005902e2 f   msmpifec:mpif.obj
 0001:0018f2e2       _PMPI_WTICK                005902e2 f   msmpifec:mpif.obj
 0001:0018f381       _MPI_KEYVAL_CREATE         00590381 f   msmpifec:mpif.obj
 0001:0018f381       _mpi_keyval_create         00590381 f   msmpifec:mpif.obj
 0001:0018f381       _PMPI_KEYVAL_CREATE        00590381 f   msmpifec:mpif.obj
 0001:0018f381       _pmpi_keyval_create_       00590381 f   msmpifec:mpif.obj
 0001:0018f381       _pmpi_keyval_create__      00590381 f   msmpifec:mpif.obj
 0001:0018f381       _mpi_keyval_create__       00590381 f   msmpifec:mpif.obj
 0001:0018f381       _pmpi_keyval_create        00590381 f   msmpifec:mpif.obj
 0001:0018f381       _mpi_keyval_create_        00590381 f   msmpifec:mpif.obj
 0001:0018f3b6       _pmpi_dup_fn__             005903b6 f   msmpifec:mpif.obj
 0001:0018f3b6       _mpi_dup_fn__              005903b6 f   msmpifec:mpif.obj
 0001:0018f3b6       _MPI_DUP_FN                005903b6 f   msmpifec:mpif.obj
 0001:0018f3b6       _mpi_dup_fn                005903b6 f   msmpifec:mpif.obj
 0001:0018f3b6       _mpi_dup_fn_               005903b6 f   msmpifec:mpif.obj
 0001:0018f3b6       _PMPI_DUP_FN               005903b6 f   msmpifec:mpif.obj
 0001:0018f3b6       _pmpi_dup_fn_              005903b6 f   msmpifec:mpif.obj
 0001:0018f3b6       _pmpi_dup_fn               005903b6 f   msmpifec:mpif.obj
 0001:0018f3d3       _pmpi_null_delete_fn       005903d3 f   msmpifec:mpif.obj
 0001:0018f3d3       _mpi_null_delete_fn        005903d3 f   msmpifec:mpif.obj
 0001:0018f3d3       _mpi_null_delete_fn_       005903d3 f   msmpifec:mpif.obj
 0001:0018f3d3       _MPI_NULL_DELETE_FN        005903d3 f   msmpifec:mpif.obj
 0001:0018f3d3       _PMPI_NULL_DELETE_FN       005903d3 f   msmpifec:mpif.obj
 0001:0018f3d3       _mpi_null_delete_fn__      005903d3 f   msmpifec:mpif.obj
 0001:0018f3d3       _pmpi_null_delete_fn_      005903d3 f   msmpifec:mpif.obj
 0001:0018f3d3       _pmpi_null_delete_fn__     005903d3 f   msmpifec:mpif.obj
 0001:0018f3e0       _pmpi_null_copy_fn         005903e0 f   msmpifec:mpif.obj
 0001:0018f3e0       _mpi_null_copy_fn_         005903e0 f   msmpifec:mpif.obj
 0001:0018f3e0       _pmpi_null_copy_fn_        005903e0 f   msmpifec:mpif.obj
 0001:0018f3e0       _PMPI_NULL_COPY_FN         005903e0 f   msmpifec:mpif.obj
 0001:0018f3e0       _mpi_null_copy_fn          005903e0 f   msmpifec:mpif.obj
 0001:0018f3e0       _pmpi_null_copy_fn__       005903e0 f   msmpifec:mpif.obj
 0001:0018f3e0       _mpi_null_copy_fn__        005903e0 f   msmpifec:mpif.obj
 0001:0018f3e0       _MPI_NULL_COPY_FN          005903e0 f   msmpifec:mpif.obj
 0001:0018f3f3       _mpi_comm_dup_fn_          005903f3 f   msmpifec:mpif.obj
 0001:0018f3f3       _mpi_comm_dup_fn           005903f3 f   msmpifec:mpif.obj
 0001:0018f3f3       _pmpi_comm_dup_fn_         005903f3 f   msmpifec:mpif.obj
 0001:0018f3f3       _mpi_comm_dup_fn__         005903f3 f   msmpifec:mpif.obj
 0001:0018f3f3       _pmpi_comm_dup_fn__        005903f3 f   msmpifec:mpif.obj
 0001:0018f3f3       _PMPI_COMM_DUP_FN          005903f3 f   msmpifec:mpif.obj
 0001:0018f3f3       _pmpi_comm_dup_fn          005903f3 f   msmpifec:mpif.obj
 0001:0018f3f3       _MPI_COMM_DUP_FN           005903f3 f   msmpifec:mpif.obj
 0001:0018f410       _MPI_COMM_NULL_DELETE_FN   00590410 f   msmpifec:mpif.obj
 0001:0018f410       _mpi_comm_null_delete_fn__ 00590410 f   msmpifec:mpif.obj
 0001:0018f410       _pmpi_comm_null_delete_fn  00590410 f   msmpifec:mpif.obj
 0001:0018f410       _pmpi_comm_null_delete_fn__ 00590410 f   msmpifec:mpif.obj
 0001:0018f410       _PMPI_COMM_NULL_DELETE_FN  00590410 f   msmpifec:mpif.obj
 0001:0018f410       _mpi_comm_null_delete_fn   00590410 f   msmpifec:mpif.obj
 0001:0018f410       _mpi_comm_null_delete_fn_  00590410 f   msmpifec:mpif.obj
 0001:0018f410       _pmpi_comm_null_delete_fn_ 00590410 f   msmpifec:mpif.obj
 0001:0018f41d       _MPI_COMM_NULL_COPY_FN     0059041d f   msmpifec:mpif.obj
 0001:0018f41d       _mpi_comm_null_copy_fn_    0059041d f   msmpifec:mpif.obj
 0001:0018f41d       _pmpi_comm_null_copy_fn__  0059041d f   msmpifec:mpif.obj
 0001:0018f41d       _mpi_comm_null_copy_fn     0059041d f   msmpifec:mpif.obj
 0001:0018f41d       _pmpi_comm_null_copy_fn    0059041d f   msmpifec:mpif.obj
 0001:0018f41d       _mpi_comm_null_copy_fn__   0059041d f   msmpifec:mpif.obj
 0001:0018f41d       _PMPI_COMM_NULL_COPY_FN    0059041d f   msmpifec:mpif.obj
 0001:0018f41d       _pmpi_comm_null_copy_fn_   0059041d f   msmpifec:mpif.obj
 0001:0018f430       _pmpi_win_dup_fn__         00590430 f   msmpifec:mpif.obj
 0001:0018f430       _PMPI_WIN_DUP_FN           00590430 f   msmpifec:mpif.obj
 0001:0018f430       _mpi_win_dup_fn__          00590430 f   msmpifec:mpif.obj
 0001:0018f430       _mpi_win_dup_fn_           00590430 f   msmpifec:mpif.obj
 0001:0018f430       _pmpi_win_dup_fn_          00590430 f   msmpifec:mpif.obj
 0001:0018f430       _mpi_win_dup_fn            00590430 f   msmpifec:mpif.obj
 0001:0018f430       _MPI_WIN_DUP_FN            00590430 f   msmpifec:mpif.obj
 0001:0018f430       _pmpi_win_dup_fn           00590430 f   msmpifec:mpif.obj
 0001:0018f44d       _mpi_win_null_delete_fn_   0059044d f   msmpifec:mpif.obj
 0001:0018f44d       _pmpi_win_null_delete_fn_  0059044d f   msmpifec:mpif.obj
 0001:0018f44d       _pmpi_win_null_delete_fn   0059044d f   msmpifec:mpif.obj
 0001:0018f44d       _PMPI_WIN_NULL_DELETE_FN   0059044d f   msmpifec:mpif.obj
 0001:0018f44d       _mpi_win_null_delete_fn    0059044d f   msmpifec:mpif.obj
 0001:0018f44d       _mpi_win_null_delete_fn__  0059044d f   msmpifec:mpif.obj
 0001:0018f44d       _MPI_WIN_NULL_DELETE_FN    0059044d f   msmpifec:mpif.obj
 0001:0018f44d       _pmpi_win_null_delete_fn__ 0059044d f   msmpifec:mpif.obj
 0001:0018f45a       _pmpi_win_null_copy_fn__   0059045a f   msmpifec:mpif.obj
 0001:0018f45a       _pmpi_win_null_copy_fn_    0059045a f   msmpifec:mpif.obj
 0001:0018f45a       _pmpi_win_null_copy_fn     0059045a f   msmpifec:mpif.obj
 0001:0018f45a       _PMPI_WIN_NULL_COPY_FN     0059045a f   msmpifec:mpif.obj
 0001:0018f45a       _mpi_win_null_copy_fn__    0059045a f   msmpifec:mpif.obj
 0001:0018f45a       _mpi_win_null_copy_fn_     0059045a f   msmpifec:mpif.obj
 0001:0018f45a       _mpi_win_null_copy_fn      0059045a f   msmpifec:mpif.obj
 0001:0018f45a       _MPI_WIN_NULL_COPY_FN      0059045a f   msmpifec:mpif.obj
 0001:0018f46d       _pmpi_type_dup_fn__        0059046d f   msmpifec:mpif.obj
 0001:0018f46d       _mpi_type_dup_fn_          0059046d f   msmpifec:mpif.obj
 0001:0018f46d       _mpi_type_dup_fn           0059046d f   msmpifec:mpif.obj
 0001:0018f46d       _mpi_type_dup_fn__         0059046d f   msmpifec:mpif.obj
 0001:0018f46d       _pmpi_type_dup_fn_         0059046d f   msmpifec:mpif.obj
 0001:0018f46d       _pmpi_type_dup_fn          0059046d f   msmpifec:mpif.obj
 0001:0018f46d       _MPI_TYPE_DUP_FN           0059046d f   msmpifec:mpif.obj
 0001:0018f46d       _PMPI_TYPE_DUP_FN          0059046d f   msmpifec:mpif.obj
 0001:0018f48a       _mpi_type_null_delete_fn   0059048a f   msmpifec:mpif.obj
 0001:0018f48a       _mpi_type_null_delete_fn__ 0059048a f   msmpifec:mpif.obj
 0001:0018f48a       _PMPI_TYPE_NULL_DELETE_FN  0059048a f   msmpifec:mpif.obj
 0001:0018f48a       _MPI_TYPE_NULL_DELETE_FN   0059048a f   msmpifec:mpif.obj
 0001:0018f48a       _mpi_type_null_delete_fn_  0059048a f   msmpifec:mpif.obj
 0001:0018f48a       _pmpi_type_null_delete_fn__ 0059048a f   msmpifec:mpif.obj
 0001:0018f48a       _pmpi_type_null_delete_fn  0059048a f   msmpifec:mpif.obj
 0001:0018f48a       _pmpi_type_null_delete_fn_ 0059048a f   msmpifec:mpif.obj
 0001:0018f497       _PMPI_TYPE_NULL_COPY_FN    00590497 f   msmpifec:mpif.obj
 0001:0018f497       _mpi_type_null_copy_fn__   00590497 f   msmpifec:mpif.obj
 0001:0018f497       _MPI_TYPE_NULL_COPY_FN     00590497 f   msmpifec:mpif.obj
 0001:0018f497       _mpi_type_null_copy_fn     00590497 f   msmpifec:mpif.obj
 0001:0018f497       _pmpi_type_null_copy_fn__  00590497 f   msmpifec:mpif.obj
 0001:0018f497       _pmpi_type_null_copy_fn    00590497 f   msmpifec:mpif.obj
 0001:0018f497       _mpi_type_null_copy_fn_    00590497 f   msmpifec:mpif.obj
 0001:0018f497       _pmpi_type_null_copy_fn_   00590497 f   msmpifec:mpif.obj
 0001:0018f4aa       _pmpi_errhandler_create__  005904aa f   msmpifec:mpif.obj
 0001:0018f4aa       _pmpi_errhandler_create_   005904aa f   msmpifec:mpif.obj
 0001:0018f4aa       _MPI_ERRHANDLER_CREATE     005904aa f   msmpifec:mpif.obj
 0001:0018f4aa       _pmpi_errhandler_create    005904aa f   msmpifec:mpif.obj
 0001:0018f4aa       _mpi_errhandler_create     005904aa f   msmpifec:mpif.obj
 0001:0018f4aa       _mpi_errhandler_create__   005904aa f   msmpifec:mpif.obj
 0001:0018f4aa       _PMPI_ERRHANDLER_CREATE    005904aa f   msmpifec:mpif.obj
 0001:0018f4aa       _mpi_errhandler_create_    005904aa f   msmpifec:mpif.obj
 0001:0018f4d4       _mpirinitf                 005904d4 f   msmpifec:setbotf.obj
 0001:0018f540       _MPI_Send@24               00590540 f   ParMETISLib:msmpi.dll
 0001:0018f546       _MPI_Recv@28               00590546 f   ParMETISLib:msmpi.dll
 0001:0018f54c       _MPI_Get_count@12          0059054c f   ParMETISLib:msmpi.dll
 0001:0018f552       _MPI_Bsend@24              00590552 f   ParMETISLib:msmpi.dll
 0001:0018f558       _MPI_Ssend@24              00590558 f   ParMETISLib:msmpi.dll
 0001:0018f55e       _MPI_Rsend@24              0059055e f   ParMETISLib:msmpi.dll
 0001:0018f564       _MPI_Buffer_attach@8       00590564 f   ParMETISLib:msmpi.dll
 0001:0018f56a       _MPI_Buffer_detach@8       0059056a f   ParMETISLib:msmpi.dll
 0001:0018f570       _MPI_Isend@28              00590570 f   ParMETISLib:msmpi.dll
 0001:0018f576       _MPI_Ibsend@28             00590576 f   ParMETISLib:msmpi.dll
 0001:0018f57c       _MPI_Issend@28             0059057c f   ParMETISLib:msmpi.dll
 0001:0018f582       _MPI_Irsend@28             00590582 f   ParMETISLib:msmpi.dll
 0001:0018f588       _MPI_Irecv@28              00590588 f   ParMETISLib:msmpi.dll
 0001:0018f58e       _MPI_Wait@8                0059058e f   ParMETISLib:msmpi.dll
 0001:0018f594       _MPI_Test@12               00590594 f   ParMETISLib:msmpi.dll
 0001:0018f59a       _MPI_Request_free@4        0059059a f   ParMETISLib:msmpi.dll
 0001:0018f5a0       _MPI_Waitany@16            005905a0 f   ParMETISLib:msmpi.dll
 0001:0018f5a6       _MPI_Testany@20            005905a6 f   ParMETISLib:msmpi.dll
 0001:0018f5ac       _MPI_Waitall@12            005905ac f   ParMETISLib:msmpi.dll
 0001:0018f5b2       _MPI_Testall@16            005905b2 f   ParMETISLib:msmpi.dll
 0001:0018f5b8       _MPI_Waitsome@20           005905b8 f   ParMETISLib:msmpi.dll
 0001:0018f5be       _MPI_Testsome@20           005905be f   ParMETISLib:msmpi.dll
 0001:0018f5c4       _MPI_Iprobe@20             005905c4 f   ParMETISLib:msmpi.dll
 0001:0018f5ca       _MPI_Probe@16              005905ca f   ParMETISLib:msmpi.dll
 0001:0018f5d0       _MPI_Cancel@4              005905d0 f   ParMETISLib:msmpi.dll
 0001:0018f5d6       _MPI_Test_cancelled@8      005905d6 f   ParMETISLib:msmpi.dll
 0001:0018f5dc       _MPI_Send_init@28          005905dc f   ParMETISLib:msmpi.dll
 0001:0018f5e2       _MPI_Bsend_init@28         005905e2 f   ParMETISLib:msmpi.dll
 0001:0018f5e8       _MPI_Ssend_init@28         005905e8 f   ParMETISLib:msmpi.dll
 0001:0018f5ee       _MPI_Rsend_init@28         005905ee f   ParMETISLib:msmpi.dll
 0001:0018f5f4       _MPI_Recv_init@28          005905f4 f   ParMETISLib:msmpi.dll
 0001:0018f5fa       _MPI_Start@4               005905fa f   ParMETISLib:msmpi.dll
 0001:0018f600       _MPI_Startall@8            00590600 f   ParMETISLib:msmpi.dll
 0001:0018f606       _MPI_Sendrecv@48           00590606 f   ParMETISLib:msmpi.dll
 0001:0018f60c       _MPI_Sendrecv_replace@36   0059060c f   ParMETISLib:msmpi.dll
 0001:0018f612       _MPI_Type_contiguous@12    00590612 f   ParMETISLib:msmpi.dll
 0001:0018f618       _MPI_Type_vector@20        00590618 f   ParMETISLib:msmpi.dll
 0001:0018f61e       _MPI_Type_hvector@20       0059061e f   ParMETISLib:msmpi.dll
 0001:0018f624       _MPI_Type_indexed@20       00590624 f   ParMETISLib:msmpi.dll
 0001:0018f62a       _MPI_Type_hindexed@20      0059062a f   ParMETISLib:msmpi.dll
 0001:0018f630       _MPI_Type_struct@20        00590630 f   ParMETISLib:msmpi.dll
 0001:0018f636       _MPI_Type_extent@8         00590636 f   ParMETISLib:msmpi.dll
 0001:0018f63c       _MPI_Type_size@8           0059063c f   ParMETISLib:msmpi.dll
 0001:0018f642       _MPI_Type_lb@8             00590642 f   ParMETISLib:msmpi.dll
 0001:0018f648       _MPI_Type_ub@8             00590648 f   ParMETISLib:msmpi.dll
 0001:0018f64e       _MPI_Type_commit@4         0059064e f   ParMETISLib:msmpi.dll
 0001:0018f654       _MPI_Type_free@4           00590654 f   ParMETISLib:msmpi.dll
 0001:0018f65a       _MPI_Get_elements@12       0059065a f   ParMETISLib:msmpi.dll
 0001:0018f660       _MPI_Pack@28               00590660 f   ParMETISLib:msmpi.dll
 0001:0018f666       _MPI_Unpack@28             00590666 f   ParMETISLib:msmpi.dll
 0001:0018f66c       _MPI_Pack_size@16          0059066c f   ParMETISLib:msmpi.dll
 0001:0018f672       _MPI_Barrier@4             00590672 f   ParMETISLib:msmpi.dll
 0001:0018f678       _MPI_Bcast@20              00590678 f   ParMETISLib:msmpi.dll
 0001:0018f67e       _MPI_Gather@32             0059067e f   ParMETISLib:msmpi.dll
 0001:0018f684       _MPI_Gatherv@36            00590684 f   ParMETISLib:msmpi.dll
 0001:0018f68a       _MPI_Scatter@32            0059068a f   ParMETISLib:msmpi.dll
 0001:0018f690       _MPI_Scatterv@36           00590690 f   ParMETISLib:msmpi.dll
 0001:0018f696       _MPI_Allgather@28          00590696 f   ParMETISLib:msmpi.dll
 0001:0018f69c       _MPI_Allgatherv@32         0059069c f   ParMETISLib:msmpi.dll
 0001:0018f6a2       _MPI_Alltoall@28           005906a2 f   ParMETISLib:msmpi.dll
 0001:0018f6a8       _MPI_Alltoallv@36          005906a8 f   ParMETISLib:msmpi.dll
 0001:0018f6ae       _MPI_Reduce@28             005906ae f   ParMETISLib:msmpi.dll
 0001:0018f6b4       _MPIR_Op_set_proxy@8       005906b4 f   ParMETISLib:msmpi.dll
 0001:0018f6ba       _MPI_Op_create@12          005906ba f   ParMETISLib:msmpi.dll
 0001:0018f6c0       _MPI_Op_free@4             005906c0 f   ParMETISLib:msmpi.dll
 0001:0018f6c6       _MPI_Allreduce@24          005906c6 f   ParMETISLib:msmpi.dll
 0001:0018f6cc       _MPI_Reduce_scatter@24     005906cc f   ParMETISLib:msmpi.dll
 0001:0018f6d2       _MPI_Scan@24               005906d2 f   ParMETISLib:msmpi.dll
 0001:0018f6d8       _MPI_Group_size@8          005906d8 f   ParMETISLib:msmpi.dll
 0001:0018f6de       _MPI_Group_rank@8          005906de f   ParMETISLib:msmpi.dll
 0001:0018f6e4       _MPI_Group_translate_ranks@20 005906e4 f   ParMETISLib:msmpi.dll
 0001:0018f6ea       _MPI_Group_compare@12      005906ea f   ParMETISLib:msmpi.dll
 0001:0018f6f0       _MPI_Comm_group@8          005906f0 f   ParMETISLib:msmpi.dll
 0001:0018f6f6       _MPI_Group_union@12        005906f6 f   ParMETISLib:msmpi.dll
 0001:0018f6fc       _MPI_Group_intersection@12 005906fc f   ParMETISLib:msmpi.dll
 0001:0018f702       _MPI_Group_difference@12   00590702 f   ParMETISLib:msmpi.dll
 0001:0018f708       _MPI_Group_incl@16         00590708 f   ParMETISLib:msmpi.dll
 0001:0018f70e       _MPI_Group_excl@16         0059070e f   ParMETISLib:msmpi.dll
 0001:0018f714       _MPI_Group_range_incl@16   00590714 f   ParMETISLib:msmpi.dll
 0001:0018f71a       _MPI_Group_range_excl@16   0059071a f   ParMETISLib:msmpi.dll
 0001:0018f720       _MPI_Group_free@4          00590720 f   ParMETISLib:msmpi.dll
 0001:0018f726       _MPI_Comm_size@8           00590726 f   ParMETISLib:msmpi.dll
 0001:0018f72c       _MPI_Comm_rank@8           0059072c f   ParMETISLib:msmpi.dll
 0001:0018f732       _MPI_Comm_compare@12       00590732 f   ParMETISLib:msmpi.dll
 0001:0018f738       _MPI_Comm_dup@8            00590738 f   ParMETISLib:msmpi.dll
 0001:0018f73e       _MPI_Comm_create@12        0059073e f   ParMETISLib:msmpi.dll
 0001:0018f744       _MPI_Comm_split@16         00590744 f   ParMETISLib:msmpi.dll
 0001:0018f74a       _MPI_Comm_free@4           0059074a f   ParMETISLib:msmpi.dll
 0001:0018f750       _MPI_Comm_test_inter@8     00590750 f   ParMETISLib:msmpi.dll
 0001:0018f756       _MPI_Comm_remote_size@8    00590756 f   ParMETISLib:msmpi.dll
 0001:0018f75c       _MPI_Comm_remote_group@8   0059075c f   ParMETISLib:msmpi.dll
 0001:0018f762       _MPI_Intercomm_create@24   00590762 f   ParMETISLib:msmpi.dll
 0001:0018f768       _MPI_Intercomm_merge@12    00590768 f   ParMETISLib:msmpi.dll
 0001:0018f76e       _MPI_Keyval_free@4         0059076e f   ParMETISLib:msmpi.dll
 0001:0018f774       _MPI_Attr_put@12           00590774 f   ParMETISLib:msmpi.dll
 0001:0018f77a       _MPI_Attr_get@16           0059077a f   ParMETISLib:msmpi.dll
 0001:0018f780       _MPI_Attr_delete@8         00590780 f   ParMETISLib:msmpi.dll
 0001:0018f786       _MPI_Topo_test@8           00590786 f   ParMETISLib:msmpi.dll
 0001:0018f78c       _MPIR_Free@4               0059078c f   ParMETISLib:msmpi.dll
 0001:0018f792       _MPI_Cart_create@24        00590792 f   ParMETISLib:msmpi.dll
 0001:0018f798       _MPIR_Error@8              00590798 f   ParMETISLib:msmpi.dll
 0001:0018f79e       _MPIR_Malloc@4             0059079e f   ParMETISLib:msmpi.dll
 0001:0018f7a4       _MPI_Dims_create@12        005907a4 f   ParMETISLib:msmpi.dll
 0001:0018f7aa       _MPI_Graph_create@24       005907aa f   ParMETISLib:msmpi.dll
 0001:0018f7b0       _MPI_Graphdims_get@12      005907b0 f   ParMETISLib:msmpi.dll
 0001:0018f7b6       _MPI_Graph_get@20          005907b6 f   ParMETISLib:msmpi.dll
 0001:0018f7bc       _MPI_Cartdim_get@8         005907bc f   ParMETISLib:msmpi.dll
 0001:0018f7c2       _MPI_Cart_get@20           005907c2 f   ParMETISLib:msmpi.dll
 0001:0018f7c8       _MPI_Cart_rank@12          005907c8 f   ParMETISLib:msmpi.dll
 0001:0018f7ce       _MPI_Cart_coords@16        005907ce f   ParMETISLib:msmpi.dll
 0001:0018f7d4       _MPI_Graph_neighbors_count@12 005907d4 f   ParMETISLib:msmpi.dll
 0001:0018f7da       _MPI_Graph_neighbors@16    005907da f   ParMETISLib:msmpi.dll
 0001:0018f7e0       _MPI_Cart_shift@20         005907e0 f   ParMETISLib:msmpi.dll
 0001:0018f7e6       _MPI_Cart_sub@12           005907e6 f   ParMETISLib:msmpi.dll
 0001:0018f7ec       _MPI_Cart_map@20           005907ec f   ParMETISLib:msmpi.dll
 0001:0018f7f2       _MPI_Graph_map@20          005907f2 f   ParMETISLib:msmpi.dll
 0001:0018f7f8       _MPI_Get_processor_name@8  005907f8 f   ParMETISLib:msmpi.dll
 0001:0018f7fe       _MPI_Get_version@8         005907fe f   ParMETISLib:msmpi.dll
 0001:0018f804       _MPI_Errhandler_set@8      00590804 f   ParMETISLib:msmpi.dll
 0001:0018f80a       _MPI_Errhandler_get@8      0059080a f   ParMETISLib:msmpi.dll
 0001:0018f810       _MPI_Errhandler_free@4     00590810 f   ParMETISLib:msmpi.dll
 0001:0018f816       _MPI_Error_string@12       00590816 f   ParMETISLib:msmpi.dll
 0001:0018f81c       _MPI_Error_class@8         0059081c f   ParMETISLib:msmpi.dll
 0001:0018f822       _MPI_Finalize@0            00590822 f   ParMETISLib:msmpi.dll
 0001:0018f828       _MPI_Initialized@4         00590828 f   ParMETISLib:msmpi.dll
 0001:0018f82e       _MPI_Abort@8               0059082e f   ParMETISLib:msmpi.dll
 0001:0018f834       _MPI_Close_port@4          00590834 f   ParMETISLib:msmpi.dll
 0001:0018f83a       _MPI_Comm_accept@20        0059083a f   ParMETISLib:msmpi.dll
 0001:0018f840       _MPI_Comm_connect@20       00590840 f   ParMETISLib:msmpi.dll
 0001:0018f846       _MPI_Comm_disconnect@4     00590846 f   ParMETISLib:msmpi.dll
 0001:0018f84c       _MPI_Comm_get_parent@4     0059084c f   ParMETISLib:msmpi.dll
 0001:0018f852       _MPI_Comm_join@8           00590852 f   ParMETISLib:msmpi.dll
 0001:0018f858       _MPI_Comm_spawn@32         00590858 f   ParMETISLib:msmpi.dll
 0001:0018f85e       _MPI_Comm_spawn_multiple@36 0059085e f   ParMETISLib:msmpi.dll
 0001:0018f864       _MPI_Lookup_name@12        00590864 f   ParMETISLib:msmpi.dll
 0001:0018f86a       _MPI_Open_port@8           0059086a f   ParMETISLib:msmpi.dll
 0001:0018f870       _MPI_Publish_name@12       00590870 f   ParMETISLib:msmpi.dll
 0001:0018f876       _MPI_Unpublish_name@12     00590876 f   ParMETISLib:msmpi.dll
 0001:0018f87c       _MPI_Accumulate@36         0059087c f   ParMETISLib:msmpi.dll
 0001:0018f882       _MPI_Get@32                00590882 f   ParMETISLib:msmpi.dll
 0001:0018f888       _MPI_Put@32                00590888 f   ParMETISLib:msmpi.dll
 0001:0018f88e       _MPI_Win_complete@4        0059088e f   ParMETISLib:msmpi.dll
 0001:0018f894       _MPI_Win_create@24         00590894 f   ParMETISLib:msmpi.dll
 0001:0018f89a       _MPI_Win_fence@8           0059089a f   ParMETISLib:msmpi.dll
 0001:0018f8a0       _MPI_Win_free@4            005908a0 f   ParMETISLib:msmpi.dll
 0001:0018f8a6       _MPI_Win_get_group@8       005908a6 f   ParMETISLib:msmpi.dll
 0001:0018f8ac       _MPI_Win_lock@16           005908ac f   ParMETISLib:msmpi.dll
 0001:0018f8b2       _MPI_Win_post@12           005908b2 f   ParMETISLib:msmpi.dll
 0001:0018f8b8       _MPI_Win_start@12          005908b8 f   ParMETISLib:msmpi.dll
 0001:0018f8be       _MPI_Win_test@8            005908be f   ParMETISLib:msmpi.dll
 0001:0018f8c4       _MPI_Win_unlock@8          005908c4 f   ParMETISLib:msmpi.dll
 0001:0018f8ca       _MPI_Win_wait@4            005908ca f   ParMETISLib:msmpi.dll
 0001:0018f8d0       _MPI_Alltoallw@36          005908d0 f   ParMETISLib:msmpi.dll
 0001:0018f8d6       _MPI_Exscan@24             005908d6 f   ParMETISLib:msmpi.dll
 0001:0018f8dc       _MPI_Add_error_class@4     005908dc f   ParMETISLib:msmpi.dll
 0001:0018f8e2       _MPI_Add_error_code@8      005908e2 f   ParMETISLib:msmpi.dll
 0001:0018f8e8       _MPI_Add_error_string@8    005908e8 f   ParMETISLib:msmpi.dll
 0001:0018f8ee       _MPI_Comm_call_errhandler@8 005908ee f   ParMETISLib:msmpi.dll
 0001:0018f8f4       _MPIR_Keyval_set_proxy@12  005908f4 f   ParMETISLib:msmpi.dll
 0001:0018f8fa       _MPI_Comm_create_keyval@16 005908fa f   ParMETISLib:msmpi.dll
 0001:0018f900       _MPI_Comm_delete_attr@8    00590900 f   ParMETISLib:msmpi.dll
 0001:0018f906       _MPI_Comm_free_keyval@4    00590906 f   ParMETISLib:msmpi.dll
 0001:0018f90c       _MPI_Comm_get_attr@16      0059090c f   ParMETISLib:msmpi.dll
 0001:0018f912       _MPI_Comm_get_name@12      00590912 f   ParMETISLib:msmpi.dll
 0001:0018f918       _MPI_Comm_set_attr@12      00590918 f   ParMETISLib:msmpi.dll
 0001:0018f91e       _MPI_Comm_set_name@8       0059091e f   ParMETISLib:msmpi.dll
 0001:0018f924       _MPI_File_call_errhandler@8 00590924 f   ParMETISLib:msmpi.dll
 0001:0018f92a       _MPI_File_f2c@4            0059092a f   ParMETISLib:msmpi.dll
 0001:0018f930       _MPI_Grequest_complete@4   00590930 f   ParMETISLib:msmpi.dll
 0001:0018f936       _MPIR_Grequest_set_proxy@16 00590936 f   ParMETISLib:msmpi.dll
 0001:0018f93c       _MPI_Grequest_start@20     0059093c f   ParMETISLib:msmpi.dll
 0001:0018f942       _MPI_Is_thread_main@4      00590942 f   ParMETISLib:msmpi.dll
 0001:0018f948       _MPI_Query_thread@4        00590948 f   ParMETISLib:msmpi.dll
 0001:0018f94e       _MPI_Status_set_cancelled@8 0059094e f   ParMETISLib:msmpi.dll
 0001:0018f954       _MPI_Status_set_elements@12 00590954 f   ParMETISLib:msmpi.dll
 0001:0018f95a       _MPI_Type_create_keyval@16 0059095a f   ParMETISLib:msmpi.dll
 0001:0018f960       _MPI_Type_delete_attr@8    00590960 f   ParMETISLib:msmpi.dll
 0001:0018f966       _MPI_Type_dup@8            00590966 f   ParMETISLib:msmpi.dll
 0001:0018f96c       _MPI_Type_free_keyval@4    0059096c f   ParMETISLib:msmpi.dll
 0001:0018f972       _MPI_Type_get_attr@16      00590972 f   ParMETISLib:msmpi.dll
 0001:0018f978       _MPI_Type_get_contents@28  00590978 f   ParMETISLib:msmpi.dll
 0001:0018f97e       _MPI_Type_get_envelope@20  0059097e f   ParMETISLib:msmpi.dll
 0001:0018f984       _MPI_Type_get_name@12      00590984 f   ParMETISLib:msmpi.dll
 0001:0018f98a       _MPI_Type_set_attr@12      0059098a f   ParMETISLib:msmpi.dll
 0001:0018f990       _MPI_Type_set_name@8       00590990 f   ParMETISLib:msmpi.dll
 0001:0018f996       _MPI_Type_match_size@12    00590996 f   ParMETISLib:msmpi.dll
 0001:0018f99c       _MPI_Win_call_errhandler@8 0059099c f   ParMETISLib:msmpi.dll
 0001:0018f9a2       _MPI_Win_create_keyval@16  005909a2 f   ParMETISLib:msmpi.dll
 0001:0018f9a8       _MPI_Win_delete_attr@8     005909a8 f   ParMETISLib:msmpi.dll
 0001:0018f9ae       _MPI_Win_free_keyval@4     005909ae f   ParMETISLib:msmpi.dll
 0001:0018f9b4       _MPI_Win_get_attr@16       005909b4 f   ParMETISLib:msmpi.dll
 0001:0018f9ba       _MPI_Win_get_name@12       005909ba f   ParMETISLib:msmpi.dll
 0001:0018f9c0       _MPI_Win_set_attr@12       005909c0 f   ParMETISLib:msmpi.dll
 0001:0018f9c6       _MPI_Win_set_name@8        005909c6 f   ParMETISLib:msmpi.dll
 0001:0018f9cc       _MPI_Alloc_mem@12          005909cc f   ParMETISLib:msmpi.dll
 0001:0018f9d2       _MPIR_Comm_errhandler_set_proxy@8 005909d2 f   ParMETISLib:msmpi.dll
 0001:0018f9d8       _MPI_Comm_create_errhandler@8 005909d8 f   ParMETISLib:msmpi.dll
 0001:0018f9de       _MPI_Comm_get_errhandler@8 005909de f   ParMETISLib:msmpi.dll
 0001:0018f9e4       _MPI_Comm_set_errhandler@8 005909e4 f   ParMETISLib:msmpi.dll
 0001:0018f9ea       _MPIR_File_errhandler_set_proxy@8 005909ea f   ParMETISLib:msmpi.dll
 0001:0018f9f0       _MPI_File_create_errhandler@8 005909f0 f   ParMETISLib:msmpi.dll
 0001:0018f9f6       _MPI_File_get_errhandler@8 005909f6 f   ParMETISLib:msmpi.dll
 0001:0018f9fc       _MPI_File_set_errhandler@8 005909fc f   ParMETISLib:msmpi.dll
 0001:0018fa02       _MPI_Finalized@4           00590a02 f   ParMETISLib:msmpi.dll
 0001:0018fa08       _MPI_Free_mem@4            00590a08 f   ParMETISLib:msmpi.dll
 0001:0018fa0e       _MPI_Info_create@4         00590a0e f   ParMETISLib:msmpi.dll
 0001:0018fa14       _MPI_Info_delete@8         00590a14 f   ParMETISLib:msmpi.dll
 0001:0018fa1a       _MPI_Info_dup@8            00590a1a f   ParMETISLib:msmpi.dll
 0001:0018fa20       _MPI_Info_free@4           00590a20 f   ParMETISLib:msmpi.dll
 0001:0018fa26       _MPI_Info_get@20           00590a26 f   ParMETISLib:msmpi.dll
 0001:0018fa2c       _MPI_Info_get_nkeys@8      00590a2c f   ParMETISLib:msmpi.dll
 0001:0018fa32       _MPI_Info_get_nthkey@12    00590a32 f   ParMETISLib:msmpi.dll
 0001:0018fa38       _MPI_Info_get_valuelen@16  00590a38 f   ParMETISLib:msmpi.dll
 0001:0018fa3e       _MPI_Info_set@12           00590a3e f   ParMETISLib:msmpi.dll
 0001:0018fa44       _MPI_Pack_external@28      00590a44 f   ParMETISLib:msmpi.dll
 0001:0018fa4a       _MPI_Pack_external_size@16 00590a4a f   ParMETISLib:msmpi.dll
 0001:0018fa50       _MPI_Request_get_status@12 00590a50 f   ParMETISLib:msmpi.dll
 0001:0018fa56       _MPI_Status_c2f@8          00590a56 f   ParMETISLib:msmpi.dll
 0001:0018fa5c       _MPI_Status_f2c@8          00590a5c f   ParMETISLib:msmpi.dll
 0001:0018fa62       _MPI_Type_create_darray@40 00590a62 f   ParMETISLib:msmpi.dll
 0001:0018fa68       _MPI_Type_create_hindexed@20 00590a68 f   ParMETISLib:msmpi.dll
 0001:0018fa6e       _MPI_Type_create_hvector@20 00590a6e f   ParMETISLib:msmpi.dll
 0001:0018fa74       _MPI_Type_create_indexed_block@20 00590a74 f   ParMETISLib:msmpi.dll
 0001:0018fa7a       _MPI_Type_create_resized@16 00590a7a f   ParMETISLib:msmpi.dll
 0001:0018fa80       _MPI_Type_create_struct@20 00590a80 f   ParMETISLib:msmpi.dll
 0001:0018fa86       _MPI_Type_create_subarray@28 00590a86 f   ParMETISLib:msmpi.dll
 0001:0018fa8c       _MPI_Type_get_extent@12    00590a8c f   ParMETISLib:msmpi.dll
 0001:0018fa92       _MPI_Type_get_true_extent@12 00590a92 f   ParMETISLib:msmpi.dll
 0001:0018fa98       _MPI_Unpack_external@28    00590a98 f   ParMETISLib:msmpi.dll
 0001:0018fa9e       _MPIR_Win_errhandler_set_proxy@8 00590a9e f   ParMETISLib:msmpi.dll
 0001:0018faa4       _MPI_Win_create_errhandler@8 00590aa4 f   ParMETISLib:msmpi.dll
 0001:0018faaa       _MPI_Win_get_errhandler@8  00590aaa f   ParMETISLib:msmpi.dll
 0001:0018fab0       _MPI_Win_set_errhandler@8  00590ab0 f   ParMETISLib:msmpi.dll
 0001:0018fab6       _MPI_File_c2f@4            00590ab6 f   ParMETISLib:msmpi.dll
 0001:0018fabc       _MPI_File_open@20          00590abc f   ParMETISLib:msmpi.dll
 0001:0018fac2       _MPI_File_close@4          00590ac2 f   ParMETISLib:msmpi.dll
 0001:0018fac8       _MPI_File_delete@8         00590ac8 f   ParMETISLib:msmpi.dll
 0001:0018face       _MPI_File_set_size@12      00590ace f   ParMETISLib:msmpi.dll
 0001:0018fad4       _MPI_File_preallocate@12   00590ad4 f   ParMETISLib:msmpi.dll
 0001:0018fada       _MPI_File_get_size@8       00590ada f   ParMETISLib:msmpi.dll
 0001:0018fae0       _MPI_File_get_group@8      00590ae0 f   ParMETISLib:msmpi.dll
 0001:0018fae6       _MPI_File_get_amode@8      00590ae6 f   ParMETISLib:msmpi.dll
 0001:0018faec       _MPI_File_set_info@8       00590aec f   ParMETISLib:msmpi.dll
 0001:0018faf2       _MPI_File_get_info@8       00590af2 f   ParMETISLib:msmpi.dll
 0001:0018faf8       _MPI_File_set_view@28      00590af8 f   ParMETISLib:msmpi.dll
 0001:0018fafe       _MPI_File_get_view@20      00590afe f   ParMETISLib:msmpi.dll
 0001:0018fb04       _MPI_File_read_at@28       00590b04 f   ParMETISLib:msmpi.dll
 0001:0018fb0a       _MPI_File_read_at_all@28   00590b0a f   ParMETISLib:msmpi.dll
 0001:0018fb10       _MPI_File_write_at@28      00590b10 f   ParMETISLib:msmpi.dll
 0001:0018fb16       _MPI_File_write_at_all@28  00590b16 f   ParMETISLib:msmpi.dll
 0001:0018fb1c       _MPI_File_iread_at@28      00590b1c f   ParMETISLib:msmpi.dll
 0001:0018fb22       _MPI_File_iwrite_at@28     00590b22 f   ParMETISLib:msmpi.dll
 0001:0018fb28       _MPI_File_read@20          00590b28 f   ParMETISLib:msmpi.dll
 0001:0018fb2e       _MPI_File_read_all@20      00590b2e f   ParMETISLib:msmpi.dll
 0001:0018fb34       _MPI_File_write@20         00590b34 f   ParMETISLib:msmpi.dll
 0001:0018fb3a       _MPI_File_write_all@20     00590b3a f   ParMETISLib:msmpi.dll
 0001:0018fb40       _MPI_File_iread@20         00590b40 f   ParMETISLib:msmpi.dll
 0001:0018fb46       _MPI_File_iwrite@20        00590b46 f   ParMETISLib:msmpi.dll
 0001:0018fb4c       _MPI_File_seek@16          00590b4c f   ParMETISLib:msmpi.dll
 0001:0018fb52       _MPI_File_get_position@8   00590b52 f   ParMETISLib:msmpi.dll
 0001:0018fb58       _MPI_File_get_byte_offset@16 00590b58 f   ParMETISLib:msmpi.dll
 0001:0018fb5e       _MPI_File_read_shared@20   00590b5e f   ParMETISLib:msmpi.dll
 0001:0018fb64       _MPI_File_write_shared@20  00590b64 f   ParMETISLib:msmpi.dll
 0001:0018fb6a       _MPI_File_iread_shared@20  00590b6a f   ParMETISLib:msmpi.dll
 0001:0018fb70       _MPI_File_iwrite_shared@20 00590b70 f   ParMETISLib:msmpi.dll
 0001:0018fb76       _MPI_File_read_ordered@20  00590b76 f   ParMETISLib:msmpi.dll
 0001:0018fb7c       _MPI_File_write_ordered@20 00590b7c f   ParMETISLib:msmpi.dll
 0001:0018fb82       _MPI_File_seek_shared@16   00590b82 f   ParMETISLib:msmpi.dll
 0001:0018fb88       _MPI_File_get_position_shared@8 00590b88 f   ParMETISLib:msmpi.dll
 0001:0018fb8e       _MPI_File_read_at_all_begin@24 00590b8e f   ParMETISLib:msmpi.dll
 0001:0018fb94       _MPI_File_read_at_all_end@12 00590b94 f   ParMETISLib:msmpi.dll
 0001:0018fb9a       _MPI_File_write_at_all_begin@24 00590b9a f   ParMETISLib:msmpi.dll
 0001:0018fba0       _MPI_File_write_at_all_end@12 00590ba0 f   ParMETISLib:msmpi.dll
 0001:0018fba6       _MPI_File_read_all_begin@16 00590ba6 f   ParMETISLib:msmpi.dll
 0001:0018fbac       _MPI_File_read_all_end@12  00590bac f   ParMETISLib:msmpi.dll
 0001:0018fbb2       _MPI_File_write_all_begin@16 00590bb2 f   ParMETISLib:msmpi.dll
 0001:0018fbb8       _MPI_File_write_all_end@12 00590bb8 f   ParMETISLib:msmpi.dll
 0001:0018fbbe       _MPI_File_read_ordered_begin@16 00590bbe f   ParMETISLib:msmpi.dll
 0001:0018fbc4       _MPI_File_read_ordered_end@12 00590bc4 f   ParMETISLib:msmpi.dll
 0001:0018fbca       _MPI_File_write_ordered_begin@16 00590bca f   ParMETISLib:msmpi.dll
 0001:0018fbd0       _MPI_File_write_ordered_end@12 00590bd0 f   ParMETISLib:msmpi.dll
 0001:0018fbd6       _MPI_File_get_type_extent@12 00590bd6 f   ParMETISLib:msmpi.dll
 0001:0018fbdc       _MPI_Register_datarep@20   00590bdc f   ParMETISLib:msmpi.dll
 0001:0018fbe2       _MPI_File_set_atomicity@8  00590be2 f   ParMETISLib:msmpi.dll
 0001:0018fbe8       _MPI_File_get_atomicity@8  00590be8 f   ParMETISLib:msmpi.dll
 0001:0018fbee       _MPI_File_sync@4           00590bee f   ParMETISLib:msmpi.dll
 0001:0018fbf4       _MPI_Init@8                00590bf4 f   ParMETISLib:msmpi.dll
 0001:0018fbfa       _MPI_Init_thread@16        00590bfa f   ParMETISLib:msmpi.dll
 0001:0018fc00       _MPI_Pcontrol              00590c00 f   ParMETISLib:msmpi.dll
 0001:0018fc06       _MPI_Address@8             00590c06 f   ParMETISLib:msmpi.dll
 0001:0018fc0c       _MPI_Get_address@8         00590c0c f   ParMETISLib:msmpi.dll
 0001:0018fc12       _MPI_Wtime@0               00590c12 f   ParMETISLib:msmpi.dll
 0001:0018fc18       _MPI_Wtick@0               00590c18 f   ParMETISLib:msmpi.dll
 0001:0018fc1e       _MPI_Errhandler_create@8   00590c1e f   ParMETISLib:msmpi.dll
 0001:0018fc24       _NETCDF90_mp_NF90_GET_VAR_7D_EIGHTBYTEREAL 00590c24 f   netcdf90:netcdf.obj
 0001:00191568       _NETCDF90_mp_NF90_GET_VAR_6D_EIGHTBYTEREAL 00592568 f   netcdf90:netcdf.obj
 0001:00192a04       _NETCDF90_mp_NF90_GET_VAR_5D_EIGHTBYTEREAL 00593a04 f   netcdf90:netcdf.obj
 0001:00193a1e       _NETCDF90_mp_NF90_GET_VAR_4D_EIGHTBYTEREAL 00594a1e f   netcdf90:netcdf.obj
 0001:0019468a       _NETCDF90_mp_NF90_GET_VAR_3D_EIGHTBYTEREAL 0059568a f   netcdf90:netcdf.obj
 0001:00195062       _NETCDF90_mp_NF90_GET_VAR_2D_EIGHTBYTEREAL 00596062 f   netcdf90:netcdf.obj
 0001:0019581e       _NETCDF90_mp_NF90_GET_VAR_1D_EIGHTBYTEREAL 0059681e f   netcdf90:netcdf.obj
 0001:00195d5a       _NETCDF90_mp_NF90_GET_VAR_7D_FOURBYTEREAL 00596d5a f   netcdf90:netcdf.obj
 0001:00197690       _NETCDF90_mp_NF90_GET_VAR_6D_FOURBYTEREAL 00598690 f   netcdf90:netcdf.obj
 0001:00198b20       _NETCDF90_mp_NF90_GET_VAR_5D_FOURBYTEREAL 00599b20 f   netcdf90:netcdf.obj
 0001:00199b2e       _NETCDF90_mp_NF90_GET_VAR_4D_FOURBYTEREAL 0059ab2e f   netcdf90:netcdf.obj
 0001:0019a78e       _NETCDF90_mp_NF90_GET_VAR_3D_FOURBYTEREAL 0059b78e f   netcdf90:netcdf.obj
 0001:0019b150       _NETCDF90_mp_NF90_GET_VAR_2D_FOURBYTEREAL 0059c150 f   netcdf90:netcdf.obj
 0001:0019b906       _NETCDF90_mp_NF90_GET_VAR_1D_FOURBYTEREAL 0059c906 f   netcdf90:netcdf.obj
 0001:0019be60       _NETCDF90_mp_NF90_GET_VAR_7D_EIGHTBYTEINT 0059ce60 f   netcdf90:netcdf.obj
 0001:0019c768       _NETCDF90_mp_NF90_GET_VAR_6D_EIGHTBYTEINT 0059d768 f   netcdf90:netcdf.obj
 0001:0019cf30       _NETCDF90_mp_NF90_GET_VAR_5D_EIGHTBYTEINT 0059df30 f   netcdf90:netcdf.obj
 0001:0019d5c6       _NETCDF90_mp_NF90_GET_VAR_4D_EIGHTBYTEINT 0059e5c6 f   netcdf90:netcdf.obj
 0001:0019db72       _NETCDF90_mp_NF90_GET_VAR_3D_EIGHTBYTEINT 0059eb72 f   netcdf90:netcdf.obj
 0001:0019e0a6       _NETCDF90_mp_NF90_GET_VAR_2D_EIGHTBYTEINT 0059f0a6 f   netcdf90:netcdf.obj
 0001:0019e4a4       _NETCDF90_mp_NF90_GET_VAR_1D_EIGHTBYTEINT 0059f4a4 f   netcdf90:netcdf.obj
 0001:0019e7fa       _NETCDF90_mp_NF90_GET_VAR_7D_FOURBYTEINT 0059f7fa f   netcdf90:netcdf.obj
 0001:0019f10c       _NETCDF90_mp_NF90_GET_VAR_6D_FOURBYTEINT 005a010c f   netcdf90:netcdf.obj
 0001:0019f8d0       _NETCDF90_mp_NF90_GET_VAR_5D_FOURBYTEINT 005a08d0 f   netcdf90:netcdf.obj
 0001:0019ff5a       _NETCDF90_mp_NF90_GET_VAR_4D_FOURBYTEINT 005a0f5a f   netcdf90:netcdf.obj
 0001:001a0510       _NETCDF90_mp_NF90_GET_VAR_3D_FOURBYTEINT 005a1510 f   netcdf90:netcdf.obj
 0001:001a0a4c       _NETCDF90_mp_NF90_GET_VAR_2D_FOURBYTEINT 005a1a4c f   netcdf90:netcdf.obj
 0001:001a0e56       _NETCDF90_mp_NF90_GET_VAR_1D_FOURBYTEINT 005a1e56 f   netcdf90:netcdf.obj
 0001:001a1198       _NETCDF90_mp_NF90_GET_VAR_7D_TWOBYTEINT 005a2198 f   netcdf90:netcdf.obj
 0001:001a2ada       _NETCDF90_mp_NF90_GET_VAR_6D_TWOBYTEINT 005a3ada f   netcdf90:netcdf.obj
 0001:001a3f7a       _NETCDF90_mp_NF90_GET_VAR_5D_TWOBYTEINT 005a4f7a f   netcdf90:netcdf.obj
 0001:001a4f9c       _NETCDF90_mp_NF90_GET_VAR_4D_TWOBYTEINT 005a5f9c f   netcdf90:netcdf.obj
 0001:001a5c08       _NETCDF90_mp_NF90_GET_VAR_3D_TWOBYTEINT 005a6c08 f   netcdf90:netcdf.obj
 0001:001a65d6       _NETCDF90_mp_NF90_GET_VAR_2D_TWOBYTEINT 005a75d6 f   netcdf90:netcdf.obj
 0001:001a6d98       _NETCDF90_mp_NF90_GET_VAR_1D_TWOBYTEINT 005a7d98 f   netcdf90:netcdf.obj
 0001:001a72f8       _NETCDF90_mp_NF90_GET_VAR_7D_ONEBYTEINT 005a82f8 f   netcdf90:netcdf.obj
 0001:001a8be4       _NETCDF90_mp_NF90_GET_VAR_6D_ONEBYTEINT 005a9be4 f   netcdf90:netcdf.obj
 0001:001aa014       _NETCDF90_mp_NF90_GET_VAR_5D_ONEBYTEINT 005ab014 f   netcdf90:netcdf.obj
 0001:001aafbe       _NETCDF90_mp_NF90_GET_VAR_4D_ONEBYTEINT 005abfbe f   netcdf90:netcdf.obj
 0001:001abbcc       _NETCDF90_mp_NF90_GET_VAR_3D_ONEBYTEINT 005acbcc f   netcdf90:netcdf.obj
 0001:001ac546       _NETCDF90_mp_NF90_GET_VAR_2D_ONEBYTEINT 005ad546 f   netcdf90:netcdf.obj
 0001:001acd52       _NETCDF90_mp_NF90_GET_VAR_1D_ONEBYTEINT 005add52 f   netcdf90:netcdf.obj
 0001:001ad2ac       _NETCDF90_mp_NF90_PUT_VAR_7D_EIGHTBYTEREAL 005ae2ac f   netcdf90:netcdf.obj
 0001:001ae1ea       _NETCDF90_mp_NF90_PUT_VAR_6D_EIGHTBYTEREAL 005af1ea f   netcdf90:netcdf.obj
 0001:001aeeb0       _NETCDF90_mp_NF90_PUT_VAR_5D_EIGHTBYTEREAL 005afeb0 f   netcdf90:netcdf.obj
 0001:001af902       _NETCDF90_mp_NF90_PUT_VAR_4D_EIGHTBYTEREAL 005b0902 f   netcdf90:netcdf.obj
 0001:001b013e       _NETCDF90_mp_NF90_PUT_VAR_3D_EIGHTBYTEREAL 005b113e f   netcdf90:netcdf.obj
 0001:001b07f4       _NETCDF90_mp_NF90_PUT_VAR_2D_EIGHTBYTEREAL 005b17f4 f   netcdf90:netcdf.obj
 0001:001b0d94       _NETCDF90_mp_NF90_PUT_VAR_1D_EIGHTBYTEREAL 005b1d94 f   netcdf90:netcdf.obj
 0001:001b1190       _NETCDF90_mp_NF90_PUT_VAR_7D_FOURBYTEREAL 005b2190 f   netcdf90:netcdf.obj
 0001:001b20e2       _NETCDF90_mp_NF90_PUT_VAR_6D_FOURBYTEREAL 005b30e2 f   netcdf90:netcdf.obj
 0001:001b2d9a       _NETCDF90_mp_NF90_PUT_VAR_5D_FOURBYTEREAL 005b3d9a f   netcdf90:netcdf.obj
 0001:001b37be       _NETCDF90_mp_NF90_PUT_VAR_4D_FOURBYTEREAL 005b47be f   netcdf90:netcdf.obj
 0001:001b3ff0       _NETCDF90_mp_NF90_PUT_VAR_3D_FOURBYTEREAL 005b4ff0 f   netcdf90:netcdf.obj
 0001:001b469a       _NETCDF90_mp_NF90_PUT_VAR_2D_FOURBYTEREAL 005b569a f   netcdf90:netcdf.obj
 0001:001b4c30       _NETCDF90_mp_NF90_PUT_VAR_1D_FOURBYTEREAL 005b5c30 f   netcdf90:netcdf.obj
 0001:001b5046       _NETCDF90_mp_NF90_PUT_VAR_7D_EIGHTBYTEINT 005b6046 f   netcdf90:netcdf.obj
 0001:001b5f1a       _NETCDF90_mp_NF90_PUT_VAR_6D_EIGHTBYTEINT 005b6f1a f   netcdf90:netcdf.obj
 0001:001b6b88       _NETCDF90_mp_NF90_PUT_VAR_5D_EIGHTBYTEINT 005b7b88 f   netcdf90:netcdf.obj
 0001:001b7562       _NETCDF90_mp_NF90_PUT_VAR_4D_EIGHTBYTEINT 005b8562 f   netcdf90:netcdf.obj
 0001:001b7d4a       _NETCDF90_mp_NF90_PUT_VAR_3D_EIGHTBYTEINT 005b8d4a f   netcdf90:netcdf.obj
 0001:001b83a0       _NETCDF90_mp_NF90_PUT_VAR_2D_EIGHTBYTEINT 005b93a0 f   netcdf90:netcdf.obj
 0001:001b88bc       _NETCDF90_mp_NF90_PUT_VAR_1D_EIGHTBYTEINT 005b98bc f   netcdf90:netcdf.obj
 0001:001b8c58       _NETCDF90_mp_NF90_PUT_VAR_7D_FOURBYTEINT 005b9c58 f   netcdf90:netcdf.obj
 0001:001b9b2c       _NETCDF90_mp_NF90_PUT_VAR_6D_FOURBYTEINT 005bab2c f   netcdf90:netcdf.obj
 0001:001ba79a       _NETCDF90_mp_NF90_PUT_VAR_5D_FOURBYTEINT 005bb79a f   netcdf90:netcdf.obj
 0001:001bb174       _NETCDF90_mp_NF90_PUT_VAR_4D_FOURBYTEINT 005bc174 f   netcdf90:netcdf.obj
 0001:001bb95c       _NETCDF90_mp_NF90_PUT_VAR_3D_FOURBYTEINT 005bc95c f   netcdf90:netcdf.obj
 0001:001bbfb2       _NETCDF90_mp_NF90_PUT_VAR_2D_FOURBYTEINT 005bcfb2 f   netcdf90:netcdf.obj
 0001:001bc4ce       _NETCDF90_mp_NF90_PUT_VAR_1D_FOURBYTEINT 005bd4ce f   netcdf90:netcdf.obj
 0001:001bc86a       _NETCDF90_mp_NF90_PUT_VAR_7D_TWOBYTEINT 005bd86a f   netcdf90:netcdf.obj
 0001:001bd7b2       _NETCDF90_mp_NF90_PUT_VAR_6D_TWOBYTEINT 005be7b2 f   netcdf90:netcdf.obj
 0001:001be476       _NETCDF90_mp_NF90_PUT_VAR_5D_TWOBYTEINT 005bf476 f   netcdf90:netcdf.obj
 0001:001beea6       _NETCDF90_mp_NF90_PUT_VAR_4D_TWOBYTEINT 005bfea6 f   netcdf90:netcdf.obj
 0001:001bf6de       _NETCDF90_mp_NF90_PUT_VAR_3D_TWOBYTEINT 005c06de f   netcdf90:netcdf.obj
 0001:001bfd8e       _NETCDF90_mp_NF90_PUT_VAR_2D_TWOBYTEINT 005c0d8e f   netcdf90:netcdf.obj
 0001:001c032c       _NETCDF90_mp_NF90_PUT_VAR_1D_TWOBYTEINT 005c132c f   netcdf90:netcdf.obj
 0001:001c0748       _NETCDF90_mp_NF90_PUT_VAR_7D_ONEBYTEINT 005c1748 f   netcdf90:netcdf.obj
 0001:001c1640       _NETCDF90_mp_NF90_PUT_VAR_6D_ONEBYTEINT 005c2640 f   netcdf90:netcdf.obj
 0001:001c22cc       _NETCDF90_mp_NF90_PUT_VAR_5D_ONEBYTEINT 005c32cc f   netcdf90:netcdf.obj
 0001:001c2caa       _NETCDF90_mp_NF90_PUT_VAR_4D_ONEBYTEINT 005c3caa f   netcdf90:netcdf.obj
 0001:001c348e       _NETCDF90_mp_NF90_PUT_VAR_3D_ONEBYTEINT 005c448e f   netcdf90:netcdf.obj
 0001:001c3b08       _NETCDF90_mp_NF90_PUT_VAR_2D_ONEBYTEINT 005c4b08 f   netcdf90:netcdf.obj
 0001:001c40d2       _NETCDF90_mp_NF90_PUT_VAR_1D_ONEBYTEINT 005c50d2 f   netcdf90:netcdf.obj
 0001:001c44ca       _NETCDF90_mp_NF90_GET_VAR_EIGHTBYTEREAL 005c54ca f   netcdf90:netcdf.obj
 0001:001c4552       _NETCDF90_mp_NF90_GET_VAR_FOURBYTEREAL 005c5552 f   netcdf90:netcdf.obj
 0001:001c45da       _NETCDF90_mp_NF90_GET_VAR_EIGHTBYTEINT 005c55da f   netcdf90:netcdf.obj
 0001:001c467a       _NETCDF90_mp_NF90_GET_VAR_FOURBYTEINT 005c567a f   netcdf90:netcdf.obj
 0001:001c4714       _NETCDF90_mp_NF90_GET_VAR_TWOBYTEINT 005c5714 f   netcdf90:netcdf.obj
 0001:001c479c       _NETCDF90_mp_NF90_GET_VAR_ONEBYTEINT 005c579c f   netcdf90:netcdf.obj
 0001:001c4824       _NETCDF90_mp_NF90_PUT_VAR_EIGHTBYTEREAL 005c5824 f   netcdf90:netcdf.obj
 0001:001c48ac       _NETCDF90_mp_NF90_PUT_VAR_FOURBYTEREAL 005c58ac f   netcdf90:netcdf.obj
 0001:001c4934       _NETCDF90_mp_NF90_PUT_VAR_EIGHTBYTEINT 005c5934 f   netcdf90:netcdf.obj
 0001:001c49ce       _NETCDF90_mp_NF90_PUT_VAR_FOURBYTEINT 005c59ce f   netcdf90:netcdf.obj
 0001:001c4a68       _NETCDF90_mp_NF90_PUT_VAR_TWOBYTEINT 005c5a68 f   netcdf90:netcdf.obj
 0001:001c4af0       _NETCDF90_mp_NF90_PUT_VAR_ONEBYTEINT 005c5af0 f   netcdf90:netcdf.obj
 0001:001c4b78       _NETCDF90_mp_NF90_GET_VAR_7D_TEXT 005c5b78 f   netcdf90:netcdf.obj
 0001:001c4ee8       _NETCDF90_mp_NF90_GET_VAR_6D_TEXT 005c5ee8 f   netcdf90:netcdf.obj
 0001:001c5234       _NETCDF90_mp_NF90_GET_VAR_5D_TEXT 005c6234 f   netcdf90:netcdf.obj
 0001:001c5564       _NETCDF90_mp_NF90_GET_VAR_4D_TEXT 005c6564 f   netcdf90:netcdf.obj
 0001:001c5876       _NETCDF90_mp_NF90_GET_VAR_3D_TEXT 005c6876 f   netcdf90:netcdf.obj
 0001:001c5b6e       _NETCDF90_mp_NF90_GET_VAR_2D_TEXT 005c6b6e f   netcdf90:netcdf.obj
 0001:001c5e04       _NETCDF90_mp_NF90_GET_VAR_1D_TEXT 005c6e04 f   netcdf90:netcdf.obj
 0001:001c6078       _NETCDF90_mp_NF90_PUT_VAR_7D_TEXT 005c7078 f   netcdf90:netcdf.obj
 0001:001c63e8       _NETCDF90_mp_NF90_PUT_VAR_6D_TEXT 005c73e8 f   netcdf90:netcdf.obj
 0001:001c6734       _NETCDF90_mp_NF90_PUT_VAR_5D_TEXT 005c7734 f   netcdf90:netcdf.obj
 0001:001c6a64       _NETCDF90_mp_NF90_PUT_VAR_4D_TEXT 005c7a64 f   netcdf90:netcdf.obj
 0001:001c6d76       _NETCDF90_mp_NF90_PUT_VAR_3D_TEXT 005c7d76 f   netcdf90:netcdf.obj
 0001:001c706e       _NETCDF90_mp_NF90_PUT_VAR_2D_TEXT 005c806e f   netcdf90:netcdf.obj
 0001:001c7304       _NETCDF90_mp_NF90_PUT_VAR_1D_TEXT 005c8304 f   netcdf90:netcdf.obj
 0001:001c7578       _NETCDF90_mp_NF90_GET_VAR_TEXT 005c8578 f   netcdf90:netcdf.obj
 0001:001c76ea       _NETCDF90_mp_NF90_PUT_VAR_TEXT 005c86ea f   netcdf90:netcdf.obj
 0001:001c789e       _NETCDF90_mp_NF90_RENAME_VAR 005c889e f   netcdf90:netcdf.obj
 0001:001c78b4       _NETCDF90_mp_NF90_INQUIRE_VARIABLE 005c88b4 f   netcdf90:netcdf.obj
 0001:001c7a3a       _NETCDF90_mp_NF90_INQ_VARID 005c8a3a f   netcdf90:netcdf.obj
 0001:001c7a50       _NETCDF90_mp_NF90_DEF_VAR_MANYDIMS 005c8a50 f   netcdf90:netcdf.obj
 0001:001c7b14       _NETCDF90_mp_NF90_DEF_VAR_ONEDIM 005c8b14 f   netcdf90:netcdf.obj
 0001:001c7b44       _NETCDF90_mp_NF90_DEF_VAR_SCALAR 005c8b44 f   netcdf90:netcdf.obj
 0001:001c7b68       _NETCDF90_mp_NF90_GET_ATT_ONE_EIGHTBYTEREAL 005c8b68 f   netcdf90:netcdf.obj
 0001:001c7b90       _NETCDF90_mp_NF90_GET_ATT_EIGHTBYTEREAL 005c8b90 f   netcdf90:netcdf.obj
 0001:001c7c84       _NETCDF90_mp_NF90_PUT_ATT_ONE_EIGHTBYTEREAL 005c8c84 f   netcdf90:netcdf.obj
 0001:001c7cb6       _NETCDF90_mp_NF90_PUT_ATT_EIGHTBYTEREAL 005c8cb6 f   netcdf90:netcdf.obj
 0001:001c7d74       _NETCDF90_mp_NF90_GET_ATT_ONE_FOURBYTEREAL 005c8d74 f   netcdf90:netcdf.obj
 0001:001c7d9c       _NETCDF90_mp_NF90_GET_ATT_FOURBYTEREAL 005c8d9c f   netcdf90:netcdf.obj
 0001:001c7e92       _NETCDF90_mp_NF90_PUT_ATT_ONE_FOURBYTEREAL 005c8e92 f   netcdf90:netcdf.obj
 0001:001c7ec4       _NETCDF90_mp_NF90_PUT_ATT_FOURBYTEREAL 005c8ec4 f   netcdf90:netcdf.obj
 0001:001c7f8a       _NETCDF90_mp_NF90_GET_ATT_ONE_EIGHTBYTEINT 005c8f8a f   netcdf90:netcdf.obj
 0001:001c7fba       _NETCDF90_mp_NF90_GET_ATT_EIGHTBYTEINT 005c8fba f   netcdf90:netcdf.obj
 0001:001c803c       _NETCDF90_mp_NF90_PUT_ATT_ONE_EIGHTBYTEINT 005c903c f   netcdf90:netcdf.obj
 0001:001c806e       _NETCDF90_mp_NF90_PUT_ATT_EIGHTBYTEINT 005c906e f   netcdf90:netcdf.obj
 0001:001c8106       _NETCDF90_mp_NF90_GET_ATT_ONE_FOURBYTEINT 005c9106 f   netcdf90:netcdf.obj
 0001:001c812e       _NETCDF90_mp_NF90_GET_ATT_FOURBYTEINT 005c912e f   netcdf90:netcdf.obj
 0001:001c81ac       _NETCDF90_mp_NF90_PUT_ATT_ONE_FOURBYTEINT 005c91ac f   netcdf90:netcdf.obj
 0001:001c81de       _NETCDF90_mp_NF90_PUT_ATT_FOURBYTEINT 005c91de f   netcdf90:netcdf.obj
 0001:001c8276       _NETCDF90_mp_NF90_GET_ATT_ONE_TWOBYTEINT 005c9276 f   netcdf90:netcdf.obj
 0001:001c82a0       _NETCDF90_mp_NF90_GET_ATT_TWOBYTEINT 005c92a0 f   netcdf90:netcdf.obj
 0001:001c8398       _NETCDF90_mp_NF90_PUT_ATT_ONE_TWOBYTEINT 005c9398 f   netcdf90:netcdf.obj
 0001:001c83cc       _NETCDF90_mp_NF90_PUT_ATT_TWOBYTEINT 005c93cc f   netcdf90:netcdf.obj
 0001:001c8492       _NETCDF90_mp_NF90_GET_ATT_ONE_ONEBYTEINT 005c9492 f   netcdf90:netcdf.obj
 0001:001c84ba       _NETCDF90_mp_NF90_GET_ATT_ONEBYTEINT 005c94ba f   netcdf90:netcdf.obj
 0001:001c85b4       _NETCDF90_mp_NF90_PUT_ATT_ONE_ONEBYTEINT 005c95b4 f   netcdf90:netcdf.obj
 0001:001c85e6       _NETCDF90_mp_NF90_PUT_ATT_ONEBYTEINT 005c95e6 f   netcdf90:netcdf.obj
 0001:001c86a0       _NETCDF90_mp_NF90_GET_ATT_TEXT 005c96a0 f   netcdf90:netcdf.obj
 0001:001c86be       _NETCDF90_mp_NF90_PUT_ATT_TEXT 005c96be f   netcdf90:netcdf.obj
 0001:001c8732       _NETCDF90_mp_NF90_INQUIRE_ATTRIBUTE 005c9732 f   netcdf90:netcdf.obj
 0001:001c8798       _NETCDF90_mp_NF90_INQ_ATTNAME 005c9798 f   netcdf90:netcdf.obj
 0001:001c87b2       _NETCDF90_mp_NF90_DEL_ATT  005c97b2 f   netcdf90:netcdf.obj
 0001:001c87c8       _NETCDF90_mp_NF90_RENAME_ATT 005c97c8 f   netcdf90:netcdf.obj
 0001:001c87e6       _NETCDF90_mp_NF90_COPY_ATT 005c97e6 f   netcdf90:netcdf.obj
 0001:001c8804       _NETCDF90_mp_NF90_INQUIRE_DIMENSION 005c9804 f   netcdf90:netcdf.obj
 0001:001c8892       _NETCDF90_mp_NF90_RENAME_DIM 005c9892 f   netcdf90:netcdf.obj
 0001:001c88a8       _NETCDF90_mp_NF90_INQ_DIMID 005c98a8 f   netcdf90:netcdf.obj
 0001:001c88be       _NETCDF90_mp_NF90_DEF_DIM  005c98be f   netcdf90:netcdf.obj
 0001:001c88d8       _NETCDF90_mp_NF90_INQUIRE  005c98d8 f   netcdf90:netcdf.obj
 0001:001c893c       _NETCDF90_mp_NF90_DELETE   005c993c f   netcdf90:netcdf.obj
 0001:001c894a       _NETCDF90_mp_NF90_CLOSE    005c994a f   netcdf90:netcdf.obj
 0001:001c8954       _NETCDF90_mp_NF90_SYNC     005c9954 f   netcdf90:netcdf.obj
 0001:001c895e       _NETCDF90_mp_NF90_ENDDEF   005c995e f   netcdf90:netcdf.obj
 0001:001c8aac       _NETCDF90_mp_NF90_REDEF    005c9aac f   netcdf90:netcdf.obj
 0001:001c8ab6       _NETCDF90_mp_NF90_SET_FILL 005c9ab6 f   netcdf90:netcdf.obj
 0001:001c8ac8       _NETCDF90_mp_NF90_OPEN_MP  005c9ac8 f   netcdf90:netcdf.obj
 0001:001c8ae6       _NETCDF90_mp_NF90_OPEN     005c9ae6 f   netcdf90:netcdf.obj
 0001:001c8b20       _NETCDF90_mp_NF90_CREATE_MP 005c9b20 f   netcdf90:netcdf.obj
 0001:001c8b42       _NETCDF90_mp_NF90_CREATE   005c9b42 f   netcdf90:netcdf.obj
 0001:001c8bfc       _NETCDF90_mp_NF90_SET_BASE_PE 005c9bfc f   netcdf90:netcdf.obj
 0001:001c8c0a       _NETCDF90_mp_NF90_INQ_BASE_PE 005c9c0a f   netcdf90:netcdf.obj
 0001:001c8c18       _NETCDF90_mp_NF90_INQ_LIBVERS 005c9c18 f   netcdf90:netcdf.obj
 0001:001c8cc4       _NETCDF90.                 005c9cc4 f   netcdf90:netcdf.obj
 0001:001c8cc6       _NETCDF90_mp_NF90_STRERROR 005c9cc6 f   netcdf90:netcdf.obj
 0001:001c8d76       _NETCDF90_mp_NF90_ABORT    005c9d76 f   netcdf90:netcdf.obj
 0001:001c8d80       _for_write_seq_fmt         005c9d80 f   libifcoremt:for_wseq_fmt.obj
 0001:001ca5f0       _for_write_seq_fmt_xmit    005cb5f0 f   libifcoremt:for_wseq_fmt.obj
 0001:001cc120       _for__write_args           005cd120 f   libifcoremt:for_wseq_fmt.obj
 0001:001cc12c       _for__write_args.          005cd12c f   libifcoremt:for_wseq_fmt.obj
 0001:001cc280       _for_abort                 005cd280 f   libifcoremt:for_stop.obj
 0001:001cc2b0       _for_stop_core             005cd2b0 f   libifcoremt:for_stop.obj
 0001:001ccc30       _for_stop                  005cdc30 f   libifcoremt:for_stop.obj
 0001:001ccc60       _for__get_vm               005cdc60 f   libifcoremt:for_vm.obj
 0001:001ccca0       _for__realloc_vm           005cdca0 f   libifcoremt:for_vm.obj
 0001:001ccd20       _for__free_vm              005cdd20 f   libifcoremt:for_vm.obj
 0001:001ccd40       _for_allocate              005cdd40 f   libifcoremt:for_vm.obj
 0001:001cce50       _for_alloc_allocatable     005cde50 f   libifcoremt:for_vm.obj
 0001:001ccf60       _for_deallocate            005cdf60 f   libifcoremt:for_vm.obj
 0001:001cd000       _for_dealloc_allocatable   005ce000 f   libifcoremt:for_vm.obj
 0001:001cd110       _for_check_mult_overflow   005ce110 f   libifcoremt:for_vm.obj
 0001:001cd1a0       _for_check_mult_overflow64 005ce1a0 f   libifcoremt:for_vm.obj
 0001:001cd290       _for__spec_align_alloc     005ce290 f   libifcoremt:for_vm.obj
 0001:001cd2c0       _for__spec_align_free      005ce2c0 f   libifcoremt:for_vm.obj
 0001:001cd2d0       _for_inquire               005ce2d0 f   libifcoremt:for_inquire.obj
 0001:001d15f0       _for_close                 005d25f0 f   libifcoremt:for_close.obj
 0001:001d1b20       _for__close_args           005d2b20 f   libifcoremt:for_close.obj
 0001:001d1c40       _for__close_default        005d2c40 f   libifcoremt:for_close.obj
 0001:001d1d90       _for_write_int_lis         005d2d90 f   libifcoremt:for_wint_lis.obj
 0001:001d2c60       _for_write_int_lis_xmit    005d3c60 f   libifcoremt:for_wint_lis.obj
 0001:001d3f50       _for_contig_array          005d4f50 f   libifcoremt:for_contig_array.obj
 0001:001d3fc0       _for_array_copy_in         005d4fc0 f   libifcoremt:for_contig_array.obj
 0001:001d6d60       _for_array_copy_out        005d7d60 f   libifcoremt:for_contig_array.obj
 0001:001d9a40       _for_alloc_copy            005daa40 f   libifcoremt:for_contig_array.obj
 0001:001d9a50       _for_deallocate_all        005daa50 f   libifcoremt:for_contig_array.obj
 0001:001d9a60       _for_cpystr                005daa60 f   libifcoremt:for_f90str.obj
 0001:001d9af0       _for_cpstr_gt              005daaf0 f   libifcoremt:for_f90str.obj
 0001:001d9d40       _for_cpstr_lt              005dad40 f   libifcoremt:for_f90str.obj
 0001:001d9f90       _for_cpstr_eq              005daf90 f   libifcoremt:for_f90str.obj
 0001:001da180       _for_cpstr_ne              005db180 f   libifcoremt:for_f90str.obj
 0001:001da380       _for_cpstr_ge              005db380 f   libifcoremt:for_f90str.obj
 0001:001da5e0       _for_cpstr_le              005db5e0 f   libifcoremt:for_f90str.obj
 0001:001da840       _for_cpstr                 005db840 f   libifcoremt:for_f90str.obj
 0001:001daa20       _for_concat                005dba20 f   libifcoremt:for_f90str.obj
 0001:001dac70       _for_len_trim              005dbc70 f   libifcoremt:for_90_trim.obj
 0001:001dac90       _for_trim                  005dbc90 f   libifcoremt:for_90_trim.obj
 0001:001dacd0       _for_write_int_fmt         005dbcd0 f   libifcoremt:for_wint_fmt.obj
 0001:001dbd50       _for_write_int_fmt_xmit    005dcd50 f   libifcoremt:for_wint_fmt.obj
 0001:001dd200       _CheckStreamRecortType     005de200 f   libifcoremt:for_open.obj
 0001:001dd610       _CheckEndian               005de610 f   libifcoremt:for_open.obj
 0001:001dd670       _SetEndian                 005de670 f   libifcoremt:for_open.obj
 0001:001dd980       _for_open                  005de980 f   libifcoremt:for_open.obj
 0001:001de430       _for__open_args            005df430 f   libifcoremt:for_open.obj
 0001:001de830       _for__open_key             005df830 f   libifcoremt:for_open.obj
 0001:001de83c       _for__open_key.            005df83c f   libifcoremt:for_open.obj
 0001:001dea90       _for__update_reopen_keywords 005dfa90 f   libifcoremt:for_open.obj
 0001:001dea98       _for__update_reopen_keywords. 005dfa98 f   libifcoremt:for_open.obj
 0001:001df7b0       _for__set_foreign_bits     005e07b0 f   libifcoremt:for_open.obj
 0001:001df7b8       _for__set_foreign_bits.    005e07b8 f   libifcoremt:for_open.obj
 0001:001e02e0       _for__is_special_device    005e12e0 f   libifcoremt:for_open.obj
 0001:001e02e8       _for__is_special_device.   005e12e8 f   libifcoremt:for_open.obj
 0001:001e0470       _for__find_iomsg           005e1470 f   libifcoremt:for_open.obj
 0001:001e0510       _for__set_terminator_option 005e1510 f   libifcoremt:for_open.obj
 0001:001e0590       _for__set_conversion_option 005e1590 f   libifcoremt:for_open.obj
 0001:001e08a0       _for__open_default         005e18a0 f   libifcoremt:for_open.obj
 0001:001e0bd0       _for_rewind                005e1bd0 f   libifcoremt:for_rewind.obj
 0001:001e1a50       _for_write_seq_lis         005e2a50 f   libifcoremt:for_wseq_lis.obj
 0001:001e3250       _for_write_seq_lis_xmit    005e4250 f   libifcoremt:for_wseq_lis.obj
 0001:001e6fb0       _for_read_seq_lis          005e7fb0 f   libifcoremt:for_rseq_lis.obj
 0001:001e8480       _for_read_seq_lis_xmit     005e9480 f   libifcoremt:for_rseq_lis.obj
 0001:001e9910       _for__swallow_imaginary_part 005ea910 f   libifcoremt:for_rseq_lis.obj
 0001:001e9914       _for__swallow_imaginary_part. 005ea914 f   libifcoremt:for_rseq_lis.obj
 0001:001ea300       _for_read_int_nml          005eb300 f   libifcoremt:for_rseq_nml.obj
 0001:001ea380       _for_read_seq_nml          005eb380 f   libifcoremt:for_rseq_nml.obj
 0001:001f39e0       _for_date_and_time         005f49e0 f   libifcoremt:for_90_date.obj
 0001:001f3ee0       _for_system_clock_count    005f4ee0 f   libifcoremt:for_90_date.obj
 0001:001f4090       _for_system_clock_rate     005f5090 f   libifcoremt:for_90_date.obj
 0001:001f40d0       _for_system_clock_max      005f50d0 f   libifcoremt:for_90_date.obj
 0001:001f4120       _for_adjustl               005f5120 f   libifcoremt:for_90_adjust.obj
 0001:001f4180       _for_adjustr               005f5180 f   libifcoremt:for_90_adjust.obj
 0001:001f41f0       _for_read_seq_fmt          005f51f0 f   libifcoremt:for_rseq_fmt.obj
 0001:001f56a0       _for__read_args            005f66a0 f   libifcoremt:for_rseq_fmt.obj
 0001:001f59f0       _for_read_seq_fmt_xmit     005f69f0 f   libifcoremt:for_rseq_fmt.obj
 0001:001f7180       _for_index_back            005f8180 f   libifcoremt:for_90_index.obj
 0001:001f72f0       _for_f90_index             005f82f0 f   libifcoremt:for_90_index.obj
 0001:001f7470       _for_read_int_lis          005f8470 f   libifcoremt:for_rint_lis.obj
 0001:001f8380       _for_read_int_lis_xmit     005f9380 f   libifcoremt:for_rint_lis.obj
 0001:001f90a0       _for_ri_cvt_2step          005fa0a0 f   libifcoremt:for_rint_lis.obj
 0001:001f90ac       _for_ri_cvt_2step.         005fa0ac f   libifcoremt:for_rint_lis.obj
 0001:001f9e50       _for_set_reentrancy        005fae50 f   libifcoremt:for_reentrancy.obj
 0001:001f9fa0       _for__reentrancy_cleanup   005fafa0 f   libifcoremt:for_reentrancy.obj
 0001:001fa190       _for__destroy_threadstor   005fb190 f   libifcoremt:for_reentrancy.obj
 0001:001fa1c0       _for__destroy_threadstor_index 005fb1c0 f   libifcoremt:for_reentrancy.obj
 0001:001fa230       _for__access_threadstor_threads 005fb230 f   libifcoremt:for_reentrancy.obj
 0001:001fa440       _for__acquire_threadstor_threads 005fb440 f   libifcoremt:for_reentrancy.obj
 0001:001fa680       _for__disable_asynch_deliv_private 005fb680 f   libifcoremt:for_reentrancy.obj
 0001:001fa6b0       _for__enable_asynch_deliv_private 005fb6b0 f   libifcoremt:for_reentrancy.obj
 0001:001fa6d0       _for__acquire_semaphore_threaded 005fb6d0 f   libifcoremt:for_reentrancy.obj
 0001:001fa780       _for__once_private         005fb780 f   libifcoremt:for_reentrancy.obj
 0001:001fa8a0       _for__thread_clean         005fb8a0 f   libifcoremt:for_reentrancy.obj
 0001:001fa8e0       _for__init_threadstor_index 005fb8e0 f   libifcoremt:for_reentrancy.obj
 0001:001fa910       _for__reentrancy_init      005fb910 f   libifcoremt:for_reentrancy.obj
 0001:001fab90       _for_read_seq              005fbb90 f   libifcoremt:for_rseq.obj
 0001:001fc3c0       _for_read_seq_xmit         005fd3c0 f   libifcoremt:for_rseq.obj
 0001:001fe000       _r_int                     005ff000 f   libifcoremt:for_mi_int.obj
 0001:001fe020       _r_int_val                 005ff020 f   libifcoremt:for_mi_int.obj
 0001:001fe030       _d_int                     005ff030 f   libifcoremt:for_mi_int.obj
 0001:001fe050       _d_int_val                 005ff050 f   libifcoremt:for_mi_int.obj
 0001:001fe070       _h_nint                    005ff070 f   libifcoremt:for_mi_int.obj
 0001:001fe090       _i_nint                    005ff090 f   libifcoremt:for_mi_int.obj
 0001:001fe0b0       _k_nint                    005ff0b0 f   libifcoremt:for_mi_int.obj
 0001:001fe0d0       _r_nint                    005ff0d0 f   libifcoremt:for_mi_int.obj
 0001:001fe120       _f_lanint_val              005ff120 f   libifcoremt:for_mi_int.obj
 0001:001fe170       _b_nint                    005ff170 f   libifcoremt:for_mi_int.obj
 0001:001fe190       _i_dnnt                    005ff190 f   libifcoremt:for_mi_int.obj
 0001:001fe1b0       _h_dnnt                    005ff1b0 f   libifcoremt:for_mi_int.obj
 0001:001fe1d0       _b_dnnt                    005ff1d0 f   libifcoremt:for_mi_int.obj
 0001:001fe1f0       _k_dnnt                    005ff1f0 f   libifcoremt:for_mi_int.obj
 0001:001fe210       _d_nint                    005ff210 f   libifcoremt:for_mi_int.obj
 0001:001fe260       _f_ldnint_val              005ff260 f   libifcoremt:for_mi_int.obj
 0001:001fe2b0       _for_read_dir              005ff2b0 f   libifcoremt:for_rdir.obj
 0001:001fe2f0       _for_read_dir_i8           005ff2f0 f   libifcoremt:for_rdir.obj
 0001:001ff7c0       _for_read_dir_xmit         006007c0 f   libifcoremt:for_rdir.obj
 0001:00200b90       _for_write_seq             00601b90 f   libifcoremt:for_wseq.obj
 0001:00202120       _for_write_seq_xmit        00603120 f   libifcoremt:for_wseq.obj
 0001:00206190       _for__finish_ufseq_write   00607190 f   libifcoremt:for_wseq.obj
 0001:00206520       _for_write_dir             00607520 f   libifcoremt:for_wdir.obj
 0001:00206560       _for_write_dir_i8          00607560 f   libifcoremt:for_wdir.obj
 0001:00207970       _for_write_dir_xmit        00608970 f   libifcoremt:for_wdir.obj
 0001:002094d0       _for__create_lub           0060a4d0 f   libifcoremt:for_lub_mgt.obj
 0001:002095c0       _for__release_lun          0060a5c0 f   libifcoremt:for_lub_mgt.obj
 0001:00209d50       _for__deallocate_lub       0060ad50 f   libifcoremt:for_lub_mgt.obj
 0001:00209d90       _for__acquire_lun          0060ad90 f   libifcoremt:for_lub_mgt.obj
 0001:00209d9c       _for__acquire_lun.         0060ad9c f   libifcoremt:for_lub_mgt.obj
 0001:0020a8b0       _for__get_next_lub         0060b8b0 f   libifcoremt:for_lub_mgt.obj
 0001:0020b350       _for__preconnected_units_create 0060c350 f   libifcoremt:for_lub_mgt.obj
 0001:0020b530       _for__default_io_sizes_env_init 0060c530 f   libifcoremt:for_lub_mgt.obj
 0001:0020b710       _for__io_return            0060c710 f   libifcoremt:for_diags_intel.obj
 0001:0020d7b0       _for__issue_diagnostic     0060e7b0 f   libifcoremt:for_diags_intel.obj
 0001:0020e620       _for_emit_diagnostic       0060f620 f   libifcoremt:for_diags_intel.obj
 0001:0020e700       _for__get_msg              0060f700 f   libifcoremt:for_diags_intel.obj
 0001:0020e920       _for__message_catalog_close 0060f920 f   libifcoremt:for_diags_intel.obj
 0001:0020e970       _for_errmsg                0060f970 f   libifcoremt:for_diags_intel.obj
 0001:0020eca0       _for__rtc_uninit_use       0060fca0 f   libifcoremt:for_diags_intel.obj
 0001:0020f010       _TRACEBACKQQ               00610010 f   libifcoremt:for_diags_intel.obj
 0001:0020f420       _for_perror_               00610420 f   libifcoremt:for_diags_intel.obj
 0001:00210400       _for_gerror_               00611400 f   libifcoremt:for_diags_intel.obj
 0001:00210460       _for__aio_destroy          00611460 f   libifcoremt:for_aio.obj
 0001:002104a0       _for__aio_acquire_lun_fname 006114a0 f   libifcoremt:for_aio.obj
 0001:002105f0       _for__aio_release          006115f0 f   libifcoremt:for_aio.obj
 0001:002106c0       _for__aio_release_lun      006116c0 f   libifcoremt:for_aio.obj
 0001:002106c8       _for__aio_release_lun.     006116c8 f   libifcoremt:for_aio.obj
 0001:00210a90       _for__aio_acquire_lun      00611a90 f   libifcoremt:for_aio.obj
 0001:00210a9c       _for__aio_acquire_lun.     00611a9c f   libifcoremt:for_aio.obj
 0001:00211380       _for_asynchronous          00612380 f   libifcoremt:for_aio.obj
 0001:00211bb0       _for_waitid                00612bb0 f   libifcoremt:for_aio.obj
 0001:002128a0       _for_wait                  006138a0 f   libifcoremt:for_aio.obj
 0001:00213540       _for__aio_error_handling   00614540 f   libifcoremt:for_aio.obj
 0001:0021354c       _for__aio_error_handling.  0061454c f   libifcoremt:for_aio.obj
 0001:002139a0       _for__aio_init             006149a0 f   libifcoremt:for_aio.obj
 0001:00213a00       _for__format_compiler      00614a00 f   libifcoremt:for_fmt_comp.obj
 0001:00215b40       _for__put_su               00616b40 f   libifcoremt:for_put.obj
 0001:00216070       _for__write_output         00617070 f   libifcoremt:for_put.obj
 0001:0021607c       _for__write_output.        0061707c f   libifcoremt:for_put.obj
 0001:00216550       _for__put_sf               00617550 f   libifcoremt:for_put.obj
 0001:002177c0       _for__put_d                006187c0 f   libifcoremt:for_put.obj
 0001:00217a60       _for__flush_readahead      00618a60 f   libifcoremt:for_put.obj
 0001:00217b50       _for__interp_fmt           00618b50 f   libifcoremt:for_intrp_fmt.obj
 0001:002185c0       _for__adjust_buffer        006195c0 f   libifcoremt:for_io_util.obj
 0001:002187c0       _for__lower_bound_index    006197c0 f   libifcoremt:for_io_util.obj
 0001:002187cc       _for__lower_bound_index.   006197cc f   libifcoremt:for_io_util.obj
 0001:00218820       _for__cvt_foreign_read     00619820 f   libifcoremt:for_io_util.obj
 0001:002189f0       _for__cvt_foreign_write    006199f0 f   libifcoremt:for_io_util.obj
 0001:00218e80       _for__cvt_foreign_check    00619e80 f   libifcoremt:for_io_util.obj
 0001:00218f10       _for_check_env_name        00619f10 f   libifcoremt:for_io_util.obj
 0001:00218fb0       _for__key_desc_ret_item    00619fb0 f   libifcoremt:for_desc_item.obj
 0001:00218ff0       _for__desc_test_item       00619ff0 f   libifcoremt:for_desc_item.obj
 0001:00219090       _for__desc_ret_item        0061a090 f   libifcoremt:for_desc_item.obj
 0001:0021909c       _for__desc_ret_item.       0061a09c f   libifcoremt:for_desc_item.obj
 0001:00219300       _for__desc_zero_length_item 0061a300 f   libifcoremt:for_desc_item.obj
 0001:00219390       _for__format_value         0061a390 f   libifcoremt:for_fmt_val.obj
 0001:00219ed0       _for__cvt_value            0061aed0 f   libifcoremt:for_fmt_val.obj
 0001:0021a900       _for__fpe_exit_handler     0061b900 f   libifcoremt:for_exit_handler.obj
 0001:0021a9d0       _for__exit_handler         0061b9d0 f   libifcoremt:for_exit_handler.obj
 0001:0021abe0       _for_avallocate            0061bbe0 f   libifcoremt:for_avalloc.obj
 0001:0021aec0       _for_avdeallocate          0061bec0 f   libifcoremt:for_avalloc.obj
 0001:0021af30       _for__common_inquire       0061bf30 f   libifcoremt:for_common_inquire.obj
 0001:0021ba10       _for__inquire_args         0061ca10 f   libifcoremt:for_common_inquire.obj
 0001:0021c040       _for__reopen_file          0061d040 f   libifcoremt:for_nt_open_proc.obj
 0001:0021c5f0       _for__compute_filename     0061d5f0 f   libifcoremt:for_nt_open_proc.obj
 0001:0021c5fc       _for__compute_filename.    0061d5fc f   libifcoremt:for_nt_open_proc.obj
 0001:0021d970       _for__open_proc            0061e970 f   libifcoremt:for_nt_open_proc.obj
 0001:0021d978       _for__open_proc.           0061e978 f   libifcoremt:for_nt_open_proc.obj
 0001:00221050       _for__decl_exit_hand       00622050 f   libifcoremt:for_nt_open_proc.obj
 0001:00221060       _for__close_proc           00622060 f   libifcoremt:for_close_proc.obj
 0001:002217a0       _for__get_s                006227a0 f   libifcoremt:for_get.obj
 0001:002229d0       _for__read_input           006239d0 f   libifcoremt:for_get.obj
 0001:002229dc       _for__read_input.          006239dc f   libifcoremt:for_get.obj
 0001:00222bc0       _for__get_d                00623bc0 f   libifcoremt:for_get.obj
 0001:002231c0       _for_write_int_nml         006241c0 f   libifcoremt:for_wseq_nml.obj
 0001:00223240       _for_write_seq_nml         00624240 f   libifcoremt:for_wseq_nml.obj
 0001:00228460       _for_index                 00629460 f   libifcoremt:for_index.obj
 0001:002284f0       _for_string_index          006294f0 f   libifcoremt:for_index.obj
 0001:00228580       _for_index_ssll            00629580 f   libifcoremt:for_index.obj
 0001:00228610       _for__add_to_lf_table      00629610 f   libifcoremt:for_need_lf.obj
 0001:00228b80       _for__rm_from_lf_table     00629b80 f   libifcoremt:for_need_lf.obj
 0001:00228d50       _for_exit                  00629d50 f   libifcoremt:for_exit.obj
 0001:00228d90       _free_for__l_excpt_info    00629d90 f   libifcoremt:for_init.obj
 0001:00228dc0       _for_setup_mxcsr.A         00629dc0 f   libifcoremt:for_init.obj
 0001:00228dd0       _for_setup_mxcsr.H         00629dd0 f   libifcoremt:for_init.obj
 0001:00228e40       _for_setup_mxcsr.J         00629e40 f   libifcoremt:for_init.obj
 0001:00228f00       _for_enable_underflow      00629f00 f   libifcoremt:for_init.obj
 0001:00228f20       _for_get_fpe_              00629f20 f   libifcoremt:for_init.obj
 0001:00228f30       _for_set_fpe_              00629f30 f   libifcoremt:for_init.obj
 0001:00228fc0       _for_setup_mxcsr           00629fc0 f   libifcoremt:for_init.obj
 0001:00229000       _for_get_fpe_counts_       0062a000 f   libifcoremt:for_init.obj
 0001:00229060       _for_rtl_finish_           0062a060 f   libifcoremt:for_init.obj
 0001:00229180       _for__nt_signal_handler    0062a180 f   libifcoremt:for_init.obj
 0001:00229fc0       _GETEXCEPTIONPTRSQQ        0062afc0 f   libifcoremt:for_init.obj
 0001:00229fd0       _for_rtl_init_wrap_        0062afd0 f   libifcoremt:for_init.obj
 0001:0022a330       _for_rtl_init_             0062b330 f   libifcoremt:for_init.obj
 0001:0022a690       _cvt_text_to_integer       0062b690 f   libifcoremt:cvt_text_to_int.obj
 0001:0022a830       _cvt_text_to_unsigned64    0062b830 f   libifcoremt:cvt_text_to_int.obj
 0001:0022aa90       _cvt_text_to_unsigned      0062ba90 f   libifcoremt:cvt_text_to_int.obj
 0001:0022aae0       _cvt_text_to_integer64     0062bae0 f   libifcoremt:cvt_text_to_int.obj
 0001:0022b040       _tbk_stack_trace           0062c040 f   libifcoremt:tbk_traceback.obj
 0001:0022b1d0       _cvt_ieee_single_to_cray_  0062c1d0 f   libifcoremt:cvt_ieee_single.obj
 0001:0022b1f0       _cvt_ieee_single_to_cray   0062c1f0 f   libifcoremt:cvt_ieee_single.obj
 0001:0022b1fc       _cvt_ieee_single_to_cray.  0062c1fc f   libifcoremt:cvt_ieee_single.obj
 0001:0022b5f0       _CVT_IEEE_SINGLE_TO_CRAY   0062c5f0 f   libifcoremt:cvt_ieee_single.obj
 0001:0022b610       _cvt_ieee_single_to_ibm_short_ 0062c610 f   libifcoremt:cvt_ieee_single.obj
 0001:0022b630       _cvt_ieee_single_to_ibm_short 0062c630 f   libifcoremt:cvt_ieee_single.obj
 0001:0022b63c       _cvt_ieee_single_to_ibm_short. 0062c63c f   libifcoremt:cvt_ieee_single.obj
 0001:0022ba10       _CVT_IEEE_SINGLE_TO_IBM_SHORT 0062ca10 f   libifcoremt:cvt_ieee_single.obj
 0001:0022ba30       _cvt_ieee_single_to_vax_f_ 0062ca30 f   libifcoremt:cvt_ieee_single.obj
 0001:0022ba50       _cvt_ieee_single_to_vax_f  0062ca50 f   libifcoremt:cvt_ieee_single.obj
 0001:0022ba5c       _cvt_ieee_single_to_vax_f. 0062ca5c f   libifcoremt:cvt_ieee_single.obj
 0001:0022bd60       _CVT_IEEE_SINGLE_TO_VAX_F  0062cd60 f   libifcoremt:cvt_ieee_single.obj
 0001:0022bd80       _cvt_ieee_double_to_cray_  0062cd80 f   libifcoremt:cvt_ieee_double.obj
 0001:0022bda0       _cvt_ieee_double_to_cray   0062cda0 f   libifcoremt:cvt_ieee_double.obj
 0001:0022bdac       _cvt_ieee_double_to_cray.  0062cdac f   libifcoremt:cvt_ieee_double.obj
 0001:0022c270       _CVT_IEEE_DOUBLE_TO_CRAY   0062d270 f   libifcoremt:cvt_ieee_double.obj
 0001:0022c290       _cvt_ieee_double_to_ibm_long_ 0062d290 f   libifcoremt:cvt_ieee_double.obj
 0001:0022c2b0       _cvt_ieee_double_to_ibm_long 0062d2b0 f   libifcoremt:cvt_ieee_double.obj
 0001:0022c2bc       _cvt_ieee_double_to_ibm_long. 0062d2bc f   libifcoremt:cvt_ieee_double.obj
 0001:0022c7d0       _CVT_IEEE_DOUBLE_TO_IBM_LONG 0062d7d0 f   libifcoremt:cvt_ieee_double.obj
 0001:0022c7f0       _cvt_ieee_double_to_vax_d_ 0062d7f0 f   libifcoremt:cvt_ieee_double.obj
 0001:0022c810       _cvt_ieee_double_to_vax_d  0062d810 f   libifcoremt:cvt_ieee_double.obj
 0001:0022c81c       _cvt_ieee_double_to_vax_d. 0062d81c f   libifcoremt:cvt_ieee_double.obj
 0001:0022cc70       _CVT_IEEE_DOUBLE_TO_VAX_D  0062dc70 f   libifcoremt:cvt_ieee_double.obj
 0001:0022cc90       _cvt_ieee_double_to_vax_g_ 0062dc90 f   libifcoremt:cvt_ieee_double.obj
 0001:0022ccb0       _cvt_ieee_double_to_vax_g  0062dcb0 f   libifcoremt:cvt_ieee_double.obj
 0001:0022ccbc       _cvt_ieee_double_to_vax_g. 0062dcbc f   libifcoremt:cvt_ieee_double.obj
 0001:0022d110       _CVT_IEEE_DOUBLE_TO_VAX_G  0062e110 f   libifcoremt:cvt_ieee_double.obj
 0001:0022d130       _cvt_ieee_double_to_vax_h_ 0062e130 f   libifcoremt:cvt_ieee_double.obj
 0001:0022d150       _cvt_ieee_double_to_vax_h  0062e150 f   libifcoremt:cvt_ieee_double.obj
 0001:0022d15c       _cvt_ieee_double_to_vax_h. 0062e15c f   libifcoremt:cvt_ieee_double.obj
 0001:0022d640       _CVT_IEEE_DOUBLE_TO_VAX_H  0062e640 f   libifcoremt:cvt_ieee_double.obj
 0001:0022d660       _cvt_vax_f_to_ieee_single_ 0062e660 f   libifcoremt:cvt_vax_f.obj
 0001:0022d680       _cvt_vax_f_to_ieee_single  0062e680 f   libifcoremt:cvt_vax_f.obj
 0001:0022d68c       _cvt_vax_f_to_ieee_single. 0062e68c f   libifcoremt:cvt_vax_f.obj
 0001:0022daa0       _CVT_VAX_F_TO_IEEE_SINGLE  0062eaa0 f   libifcoremt:cvt_vax_f.obj
 0001:0022dac0       _cvt_ibm_short_to_ieee_single_ 0062eac0 f   libifcoremt:cvt_ibm_short.obj
 0001:0022dae0       _cvt_ibm_short_to_ieee_single 0062eae0 f   libifcoremt:cvt_ibm_short.obj
 0001:0022daec       _cvt_ibm_short_to_ieee_single. 0062eaec f   libifcoremt:cvt_ibm_short.obj
 0001:0022df40       _CVT_IBM_SHORT_TO_IEEE_SINGLE 0062ef40 f   libifcoremt:cvt_ibm_short.obj
 0001:0022df60       _cvt_vax_g_to_ieee_double_ 0062ef60 f   libifcoremt:cvt_vax_g.obj
 0001:0022df80       _cvt_vax_g_to_ieee_double  0062ef80 f   libifcoremt:cvt_vax_g.obj
 0001:0022df8c       _cvt_vax_g_to_ieee_double. 0062ef8c f   libifcoremt:cvt_vax_g.obj
 0001:0022e4b0       _CVT_VAX_G_TO_IEEE_DOUBLE  0062f4b0 f   libifcoremt:cvt_vax_g.obj
 0001:0022e4d0       _cvt_vax_d_to_ieee_double_ 0062f4d0 f   libifcoremt:cvt_vax_d.obj
 0001:0022e4f0       _cvt_vax_d_to_ieee_double  0062f4f0 f   libifcoremt:cvt_vax_d.obj
 0001:0022e4fc       _cvt_vax_d_to_ieee_double. 0062f4fc f   libifcoremt:cvt_vax_d.obj
 0001:0022ea20       _CVT_VAX_D_TO_IEEE_DOUBLE  0062fa20 f   libifcoremt:cvt_vax_d.obj
 0001:0022ea40       _cvt_ibm_long_to_ieee_double_ 0062fa40 f   libifcoremt:cvt_ibm_long.obj
 0001:0022ea60       _cvt_ibm_long_to_ieee_double 0062fa60 f   libifcoremt:cvt_ibm_long.obj
 0001:0022ea6c       _cvt_ibm_long_to_ieee_double. 0062fa6c f   libifcoremt:cvt_ibm_long.obj
 0001:0022efe0       _CVT_IBM_LONG_TO_IEEE_DOUBLE 0062ffe0 f   libifcoremt:cvt_ibm_long.obj
 0001:0022f000       _cvt_cray_to_ieee_single_  00630000 f   libifcoremt:cvt_cray.obj
 0001:0022f020       _cvt_cray_to_ieee_single   00630020 f   libifcoremt:cvt_cray.obj
 0001:0022f02c       _cvt_cray_to_ieee_single.  0063002c f   libifcoremt:cvt_cray.obj
 0001:0022f4c0       _CVT_CRAY_TO_IEEE_SINGLE   006304c0 f   libifcoremt:cvt_cray.obj
 0001:0022f4e0       _cvt_cray_to_ieee_double_  006304e0 f   libifcoremt:cvt_cray.obj
 0001:0022f500       _cvt_cray_to_ieee_double   00630500 f   libifcoremt:cvt_cray.obj
 0001:0022f50c       _cvt_cray_to_ieee_double.  0063050c f   libifcoremt:cvt_cray.obj
 0001:0022fa90       _CVT_CRAY_TO_IEEE_DOUBLE   00630a90 f   libifcoremt:cvt_cray.obj
 0001:0022fab0       _cvt_data_to_text          00630ab0 f   libifcoremt:cvt_data_to_text.obj
 0001:0022fda0       _cvt_data64_to_text        00630da0 f   libifcoremt:cvt_data_to_text.obj
 0001:00230090       _cvt_integer_to_text       00631090 f   libifcoremt:cvt_int_to_text.obj
 0001:00230220       _cvt_unsigned_to_text      00631220 f   libifcoremt:cvt_int_to_text.obj
 0001:002303a0       _cvt_integer64_to_text     006313a0 f   libifcoremt:cvt_int_to_text.obj
 0001:002305a0       _cvt_unsigned64_to_text    006315a0 f   libifcoremt:cvt_int_to_text.obj
 0001:00230780       _cvt_boolean_to_text       00631780 f   libifcoremt:cvt_log_to_text.obj
 0001:00230910       _cvt_boolean_to_text_ex    00631910 f   libifcoremt:cvt_log_to_text.obj
 0001:00230a60       _cvt_boolean64_to_text     00631a60 f   libifcoremt:cvt_log_to_text.obj
 0001:00230bc0       _cvt_ieee_x_to_text        00631bc0 f   libifcoremt:cvt_cvtas_x.obj
 0001:00230c00       _cvt_ieee_x_to_text_ex     00631c00 f   libifcoremt:cvt_cvtas_x.obj
 0001:00231de0       _cvt_text_to_ieee_x_ex     00632de0 f   libifcoremt:cvt_cvtas_x.obj
 0001:00231eb0       _cvt_ieee_t_to_text        00632eb0 f   libifcoremt:cvt_cvtas_t.obj
 0001:00231ef0       _cvt_ieee_t_to_text_ex     00632ef0 f   libifcoremt:cvt_cvtas_t.obj
 0001:00233020       _cvt_text_to_ieee_t_ex     00634020 f   libifcoremt:cvt_cvtas_t.obj
 0001:002330d0       _cvt_ieee_s_to_text        006340d0 f   libifcoremt:cvt_cvtas_s.obj
 0001:00233110       _cvt_ieee_s_to_text_ex     00634110 f   libifcoremt:cvt_cvtas_s.obj
 0001:00234180       _cvt_text_to_ieee_s_ex     00635180 f   libifcoremt:cvt_cvtas_s.obj
 0001:00234230       _cvt_text_to_data64        00635230 f   libifcoremt:cvt_text_to_data.obj
 0001:00234260       _cvt_text_to_data          00635260 f   libifcoremt:cvt_text_to_data.obj
 0001:0023426c       _cvt_text_to_data.         0063526c f   libifcoremt:cvt_text_to_data.obj
 0001:00234490       _cvt_text_to_boolean       00635490 f   libifcoremt:cvt_text_to_log.obj
 0001:002345b0       _cvt_text_to_boolean64     006355b0 f   libifcoremt:cvt_text_to_log.obj
 0001:002346f0       ___msportlib_d_gethandle   006356f0 f   libifcoremt:for_portlib.obj
 0001:00234920       ___msportlib_d_get_POSIX_fd 00635920 f   libifcoremt:for_portlib.obj
 0001:00234ac0       ___msportlib_set_posix_io_flag 00635ac0 f   libifcoremt:for_portlib.obj
 0001:00234b00       ___msportlib_d_curpos      00635b00 f   libifcoremt:for_portlib.obj
 0001:00234c10       ___msportlib_d_curpos_i8   00635c10 f   libifcoremt:for_portlib.obj
 0001:00234d00       ___msportlib_d_fseek       00635d00 f   libifcoremt:for_portlib.obj
 0001:00234f50       ___msportlib_d_fseek_i8    00635f50 f   libifcoremt:for_portlib.obj
 0001:002351c0       ___msportlib_d_readchar    006361c0 f   libifcoremt:for_portlib.obj
 0001:002358d0       ___msportlib_d_writechar   006368d0 f   libifcoremt:for_portlib.obj
 0001:002366d0       _COMMITQQ                  006376d0 f   libifcoremt:for_portlib.obj
 0001:00236790       _FLUSHQQ                   00637790 f   libifcoremt:for_portlib.obj
 0001:00236820       _for__signal               00637820 f   libifcoremt:for_portlib.obj
 0001:00236840       _for__raise                00637840 f   libifcoremt:for_portlib.obj
 0001:00236850       _FOCUSQQ                   00637850 f   libifcoremt:for_m_qwin.obj
 0001:002368b0       __unit2handle              006378b0 f   libifcoremt:for_m_qwin.obj
 0001:002368b4       __unit2handle.             006378b4 f   libifcoremt:for_m_qwin.obj
 0001:00236bb0       _INQFOCUSQQ                00637bb0 f   libifcoremt:for_m_qwin.obj
 0001:00236c90       __qwunit2handle            00637c90 f   libifcoremt:for_m_qwin.obj
 0001:00236d20       __handle2unit              00637d20 f   libifcoremt:for_m_qwin.obj
 0001:00236dc0       _GETHANDLEQQ               00637dc0 f   libifcoremt:for_m_qwin.obj
 0001:00236df0       _GETUNITQQ                 00637df0 f   libifcoremt:for_m_qwin.obj
 0001:00236ea0       _GETHWNDQQ                 00637ea0 f   libifcoremt:for_m_qwin.obj
 0001:00236ee0       _SETWSIZEQQ                00637ee0 f   libifcoremt:for_m_qwin.obj
 0001:00236f60       _GETWSIZEQQ                00637f60 f   libifcoremt:for_m_qwin.obj
 0001:00237050       __FQclearscreen            00638050 f   libifcoremt:for_m_qwin.obj
 0001:00237070       __FQdisplaycursor          00638070 f   libifcoremt:for_m_qwin.obj
 0001:00237090       __fq_outtext               00638090 f   libifcoremt:for_m_qwin.obj
 0001:002371d0       __FQscrolltextwindow       006381d0 f   libifcoremt:for_m_qwin.obj
 0001:002371f0       __fq_gettextposition       006381f0 f   libifcoremt:for_m_qwin.obj
 0001:00237200       __fq_settextposition       00638200 f   libifcoremt:for_m_qwin.obj
 0001:00237220       _cvtas_x_to_a              00638220 f   libifcoremt:cvtas_x_to_a.obj
 0001:0023a9d0       _cvtas_a_to_x              0063b9d0 f   libifcoremt:cvtas_a_to_x.obj
 0001:0023de50       _cvtas_t_to_a              0063ee50 f   libifcoremt:cvtas_t_to_a.obj
 0001:00241120       _cvtas_a_to_t              00642120 f   libifcoremt:cvtas_a_to_t.obj
 0001:00243140       _cvtas_s_to_a              00644140 f   libifcoremt:cvtas_s_to_a.obj
 0001:00245ea0       _cvtas_a_to_s              00646ea0 f   libifcoremt:cvtas_a_to_s.obj
 0001:002471c0       _cvtas_string_to_nan_x     006481c0 f   libifcoremt:cvtas_nan_x.obj
 0001:00247280       _cvtas_string_to_nan_t     00648280 f   libifcoremt:cvtas_nan_t.obj
 0001:00247300       _cvtas_string_to_nan_s     00648300 f   libifcoremt:cvtas_nan_s.obj
 0001:00247360       ___powr8i4                 00648360 f   libmmt:f__powr8i4.obj
 0001:00247420       _sqrt                      00648420 f   libmmt:sqrt_stub.obj
 0001:00247450       _log                       00648450 f   libmmt:log_stub.obj
 0001:00247480       _pow                       00648480 f   libmmt:pow_stub.obj
 0001:002474b0       _exp                       006484b0 f   libmmt:exp_stub.obj
 0001:002474e0       _atan                      006484e0 f   libmmt:atan_stub.obj
 0001:00247510       _atan2                     00648510 f   libmmt:atan2_stub.obj
 0001:00247540       _sin                       00648540 f   libmmt:sin_stub.obj
 0001:00247580       _cos                       00648580 f   libmmt:cos_stub.obj
 0001:002475c0       _tanh                      006485c0 f   libmmt:tanh_stub.obj
 0001:002475f0       _cosd                      006485f0 f   libmmt:cosd_stub.obj
 0001:00247630       _sind                      00648630 f   libmmt:sind_stub.obj
 0001:00247670       _sinh                      00648670 f   libmmt:sinh_stub.obj
 0001:002476a0       _cosh                      006486a0 f   libmmt:cosh_stub.obj
 0001:002476d0       _truncf                    006486d0 f   libmmt:truncf.obj
 0001:00247720       _trunc                     00648720 f   libmmt:trunc_stub.obj
 0001:00247760       _lroundf                   00648760 f   libmmt:lroundf_stub.obj
 0001:00247790       _llroundf                  00648790 f   libmmt:llroundf_stub.obj
 0001:002477c0       _lround                    006487c0 f   libmmt:lround_stub.obj
 0001:002477f0       _llround                   006487f0 f   libmmt:llround_stub.obj
 0001:00247820       _sqrt.J                    00648820 f   libmmt:sqrt_wmt.obj
 0001:002478c0       _sqrt.A                    006488c0 f   libmmt:sqrt_gen.obj
 0001:00247940       _log.J                     00648940 f   libmmt:log_wmt.obj
 0001:00247bc0       _log.A                     00648bc0 f   libmmt:log_gen.obj
 0001:00247e90       _pow.J                     00648e90 f   libmmt:pow_wmt.obj
 0001:00248f40       _pow.A                     00649f40 f   libmmt:pow_gen.obj
 0001:00249c20       _exp.J                     0064ac20 f   libmmt:exp_wmt.obj
 0001:00249f00       _exp.A                     0064af00 f   libmmt:exp_gen.obj
 0001:0024a2b0       _atan.J                    0064b2b0 f   libmmt:atan_wmt.obj
 0001:0024a580       _atan.A                    0064b580 f   libmmt:atan_gen.obj
 0001:0024a9c0       _atan2.J                   0064b9c0 f   libmmt:atan2_wmt.obj
 0001:0024afb0       _atan2.A                   0064bfb0 f   libmmt:atan2_gen.obj
 0001:0024b040       _sin.N                     0064c040 f   libmmt:sin_pnr.obj
 0001:0024b220       _sin.J                     0064c220 f   libmmt:sin_wmt.obj
 0001:0024b410       _sin.A                     0064c410 f   libmmt:sin_gen.obj
 0001:0024bb40       _cos.N                     0064cb40 f   libmmt:cos_pnr.obj
 0001:0024bd10       _cos.J                     0064cd10 f   libmmt:cos_wmt.obj
 0001:0024bef0       _cos.A                     0064cef0 f   libmmt:cos_gen.obj
 0001:0024c5c0       _tanh.J                    0064d5c0 f   libmmt:tanh_wmt.obj
 0001:0024c8a0       _tanh.A                    0064d8a0 f   libmmt:tanh_gen.obj
 0001:0024cc60       _cosd.N                    0064dc60 f   libmmt:cosd_pnr.obj
 0001:0024d050       _cosd.J                    0064e050 f   libmmt:cosd_wmt.obj
 0001:0024d440       _cosd.A                    0064e440 f   libmmt:cosd_gen.obj
 0001:0024d7a0       _sind.N                    0064e7a0 f   libmmt:sind_pnr.obj
 0001:0024dc70       _sind.J                    0064ec70 f   libmmt:sind_wmt.obj
 0001:0024e140       _sind.A                    0064f140 f   libmmt:sind_gen.obj
 0001:0024e4f0       _sinh.J                    0064f4f0 f   libmmt:sinh_wmt.obj
 0001:0024e8e0       _sinh.A                    0064f8e0 f   libmmt:sinh_gen.obj
 0001:0024ecb0       _cosh.J                    0064fcb0 f   libmmt:cosh_wmt.obj
 0001:0024efe0       _cosh.A                    0064ffe0 f   libmmt:cosh_gen.obj
 0001:0024f330       _trunc.N                   00650330 f   libmmt:trunc_pnr.obj
 0001:0024f350       _trunc.J                   00650350 f   libmmt:trunc_wmt.obj
 0001:0024f3d0       _trunc.A                   006503d0 f   libmmt:trunc_gen.obj
 0001:0024f450       _lroundf.J                 00650450 f   libmmt:lroundf_wmt.obj
 0001:0024f5b0       _lroundf.A                 006505b0 f   libmmt:lroundf_gen.obj
 0001:0024f700       _llroundf.J                00650700 f   libmmt:llroundf_wmt.obj
 0001:0024f830       _llroundf.A                00650830 f   libmmt:llroundf_gen.obj
 0001:0024fa40       _lround.J                  00650a40 f   libmmt:lround_wmt.obj
 0001:0024fb90       _lround.A                  00650b90 f   libmmt:lround_gen.obj
 0001:0024fd10       _llround.J                 00650d10 f   libmmt:llround_wmt.obj
 0001:0024fe90       _llround.A                 00650e90 f   libmmt:llround_gen.obj
 0001:00250240       ___libm_error_support      00651240 f   libmmt:libm_error.obj
 0001:00256c20       ___libm_setusermatherrl    00657c20 f   libmmt:libm_error.obj
 0001:00256c40       ___libm_setusermatherr     00657c40 f   libmmt:libm_error.obj
 0001:00256c60       ___libm_setusermatherrf    00657c60 f   libmmt:libm_error.obj
 0001:00256c80       ___libm_sincos_huge        00657c80 f   libmmt:libm_sincos_huge.obj
 0001:002571a0       ___libm_reduce_pi04l       006581a0 f   libmmt:libm_reduce_pi04l.obj
 0001:00257550       _matherrl                  00658550 f   libmmt:matherrl.obj
 0001:00257560       _matherr                   00658560 f   libmmt:matherr.obj
 0001:00257570       _matherrf                  00658570 f   libmmt:matherrf.obj
 0001:00257580       __fpclear                  00658580 f   LIBCMT:_fpinit_.obj
 0001:00257581       __cfltcvt_init             00658581 f   LIBCMT:_fpinit_.obj
 0001:002575e1       ___setfflag                006585e1 f   LIBCMT:_fpinit_.obj
 0001:002575f6       __fpmath                   006585f6 f   LIBCMT:_fpinit_.obj
 0001:00257620       __chkstk                   00658620 f   LIBCMT:chkstk.obj
 0001:00257620       __alloca_probe             00658620     LIBCMT:chkstk.obj
 0001:00257650       _memcpy                    00658650 f   LIBCMT:memcpy.obj
 0001:002579c0       _memmove                   006589c0 f   LIBCMT:memmove.obj
 0001:00257ee7       _mainCRTStartup            00658ee7 f   LIBCMT:crt0.obj
 0001:00257ef1       @__security_check_cookie@4 00658ef1 f   LIBCMT:secchk.obj
 0001:00257f00       _free                      00658f00 f   LIBCMT:free.obj
 0001:00257f8e       _printf                    00658f8e f   LIBCMT:printf.obj
 0001:0025803d       __printf_l                 0065903d f   LIBCMT:printf.obj
 0001:00258056       __printf_s_l               00659056 f   LIBCMT:printf.obj
 0001:0025806f       _printf_s                  0065906f f   LIBCMT:printf.obj
 0001:00258087       __printf_p_l               00659087 f   LIBCMT:printf.obj
 0001:002580a0       __printf_p                 006590a0 f   LIBCMT:printf.obj
 0001:002580b8       __set_printf_count_output  006590b8 f   LIBCMT:printf.obj
 0001:002580e2       __get_printf_count_output  006590e2 f   LIBCMT:printf.obj
 0001:002580f8       _realloc                   006590f8 f   LIBCMT:realloc.obj
 0001:00258313       __crt_waiting_on_module_handle 00659313 f   LIBCMT:crt0dat.obj
 0001:00258343       __amsg_exit                00659343 f   LIBCMT:crt0dat.obj
 0001:0025836c       ___crtCorExitProcess       0065936c f   LIBCMT:crt0dat.obj
 0001:00258397       ___crtExitProcess          00659397 f   LIBCMT:crt0dat.obj
 0001:002583af       __lockexit                 006593af f   LIBCMT:crt0dat.obj
 0001:002583b8       __unlockexit               006593b8 f   LIBCMT:crt0dat.obj
 0001:002583de       __initterm_e               006593de f   LIBCMT:crt0dat.obj
 0001:00258402       __get_wpgmptr              00659402 f   LIBCMT:crt0dat.obj
 0001:0025843e       __get_pgmptr               0065943e f   LIBCMT:crt0dat.obj
 0001:0025847a       __cinit                    0065947a f   LIBCMT:crt0dat.obj
 0001:0025862b       _exit                      0065962b f   LIBCMT:crt0dat.obj
 0001:00258641       __exit                     00659641 f   LIBCMT:crt0dat.obj
 0001:00258657       __cexit                    00659657 f   LIBCMT:crt0dat.obj
 0001:00258666       __c_exit                   00659666 f   LIBCMT:crt0dat.obj
 0001:00258675       __init_pointers            00659675 f   LIBCMT:crt0dat.obj
 0001:002586c3       _abort                     006596c3 f   LIBCMT:abort.obj
 0001:002587da       __set_abort_behavior       006597da f   LIBCMT:abort.obj
 0001:002587fb       _sprintf                   006597fb f   LIBCMT:sprintf.obj
 0001:00258878       __sprintf_l                00659878 f   LIBCMT:sprintf.obj
 0001:00258894       _sprintf_s                 00659894 f   LIBCMT:sprintf.obj
 0001:002588b2       __sprintf_s_l              006598b2 f   LIBCMT:sprintf.obj
 0001:002588d1       __snprintf_s               006598d1 f   LIBCMT:sprintf.obj
 0001:002588f2       __snprintf_s_l             006598f2 f   LIBCMT:sprintf.obj
 0001:00258914       __sprintf_p                00659914 f   LIBCMT:sprintf.obj
 0001:00258932       __sprintf_p_l              00659932 f   LIBCMT:sprintf.obj
 0001:00258951       __scprintf                 00659951 f   LIBCMT:sprintf.obj
 0001:00258966       __scprintf_p               00659966 f   LIBCMT:sprintf.obj
 0001:0025897b       __scprintf_l               0065997b f   LIBCMT:sprintf.obj
 0001:00258994       __scprintf_p_l             00659994 f   LIBCMT:sprintf.obj
 0001:002589ad       __vsprintf_l               006599ad f   LIBCMT:vsprintf.obj
 0001:00258a2b       _vsprintf                  00659a2b f   LIBCMT:vsprintf.obj
 0001:00258a45       __vscprintf_helper         00659a45 f   LIBCMT:vsprintf.obj
 0001:00258a9c       __vscprintf                00659a9c f   LIBCMT:vsprintf.obj
 0001:00258ab8       __vscprintf_l              00659ab8 f   LIBCMT:vsprintf.obj
 0001:00258ad5       __vscprintf_p              00659ad5 f   LIBCMT:vsprintf.obj
 0001:00258af1       __vscprintf_p_l            00659af1 f   LIBCMT:vsprintf.obj
 0001:00258bd0       _qsort                     00659bd0 f   LIBCMT:qsort.obj
 0001:00258e1d       _V6_HeapAlloc              00659e1d f   LIBCMT:malloc.obj
 0001:00258e6c       __heap_alloc               00659e6c f i LIBCMT:malloc.obj
 0001:00258ee6       _malloc                    00659ee6 f   LIBCMT:malloc.obj
 0001:00258fb0       ___iob_func                00659fb0 f   LIBCMT:_file.obj
 0001:00258fb6       ___initstdio               00659fb6 f   LIBCMT:_file.obj
 0001:00259067       ___endstdio                0065a067 f   LIBCMT:_file.obj
 0001:00259087       __lock_file                0065a087 f   LIBCMT:_file.obj
 0001:002590c8       __lock_file2               0065a0c8 f   LIBCMT:_file.obj
 0001:002590fa       __unlock_file              0065a0fa f   LIBCMT:_file.obj
 0001:00259136       __unlock_file2             0065a136 f   LIBCMT:_file.obj
 0001:00259165       __flush                    0065a165 f   LIBCMT:fflush.obj
 0001:002591cd       __fflush_nolock            0065a1cd f   LIBCMT:fflush.obj
 0001:002592ef       _fflush                    0065a2ef f   LIBCMT:fflush.obj
 0001:00259342       __flushall                 0065a342 f   LIBCMT:fflush.obj
 0001:0025934b       _fprintf                   0065a34b f   LIBCMT:fprintf.obj
 0001:00259467       __fprintf_l                0065a467 f   LIBCMT:fprintf.obj
 0001:00259483       __fprintf_s_l              0065a483 f   LIBCMT:fprintf.obj
 0001:0025949f       _fprintf_s                 0065a49f f   LIBCMT:fprintf.obj
 0001:002594ba       __fprintf_p_l              0065a4ba f   LIBCMT:fprintf.obj
 0001:002594d6       __fprintf_p                0065a4d6 f   LIBCMT:fprintf.obj
 0001:002594f1       _srand                     0065a4f1 f   LIBCMT:rand.obj
 0001:00259503       _rand                      0065a503 f   LIBCMT:rand.obj
 0001:00259525       _vfprintf_helper           0065a525 f   LIBCMT:vfprintf.obj
 0001:00259640       __vfprintf_l               0065a640 f   LIBCMT:vfprintf.obj
 0001:00259660       __vfprintf_s_l             0065a660 f   LIBCMT:vfprintf.obj
 0001:00259680       __vfprintf_p_l             0065a680 f   LIBCMT:vfprintf.obj
 0001:002596a0       _vfprintf                  0065a6a0 f   LIBCMT:vfprintf.obj
 0001:002596bf       _vfprintf_s                0065a6bf f   LIBCMT:vfprintf.obj
 0001:002596de       __vfprintf_p               0065a6de f   LIBCMT:vfprintf.obj
 0001:002596fd       __fsopen                   0065a6fd f   LIBCMT:fopen.obj
 0001:002597c1       _fopen                     0065a7c1 f   LIBCMT:fopen.obj
 0001:002597d8       _fopen_s                   0065a7d8 f   LIBCMT:fopen.obj
 0001:0025982b       __fclose_nolock            0065a82b f   LIBCMT:fclose.obj
 0001:002598a2       _fclose                    0065a8a2 f   LIBCMT:fclose.obj
 0001:0025991e       _clock                     0065a91e f   LIBCMT:clock.obj
 0001:00259963       ___inittime                0065a963 f   LIBCMT:clock.obj
 0001:0025999c       ??0_LocaleUpdate@@QAE@PAUlocaleinfo_struct@@@Z 0065a99c f i LIBCMT:toupper.obj
 0001:00259a23       ??1_LocaleUpdate@@QAE@XZ   0065aa23 f i LIBCMT:toupper.obj
 0001:00259a31       ?GetLocaleT@_LocaleUpdate@@QAEPAUlocaleinfo_struct@@XZ 0065aa31 f i LIBCMT:toupper.obj
 0001:00259a34       __toupper                  0065aa34 f   LIBCMT:toupper.obj
 0001:00259a41       __toupper_l                0065aa41 f   LIBCMT:toupper.obj
 0001:00259b57       _toupper                   0065ab57 f   LIBCMT:toupper.obj
 0001:00259b90       _strncpy                   0065ab90 f   LIBCMT:strncpy.obj
 0001:00259cb4       __aligned_offset_malloc    0065acb4 f   LIBCMT:align.obj
 0001:00259d51       __aligned_msize            0065ad51 f   LIBCMT:align.obj
 0001:00259da6       __aligned_free             0065ada6 f   LIBCMT:align.obj
 0001:00259dc0       __aligned_malloc           0065adc0 f   LIBCMT:align.obj
 0001:00259dd7       __aligned_offset_realloc   0065add7 f   LIBCMT:align.obj
 0001:00259f47       __aligned_offset_recalloc  0065af47 f   LIBCMT:align.obj
 0001:00259fd2       __aligned_realloc          0065afd2 f   LIBCMT:align.obj
 0001:00259fec       __aligned_recalloc         0065afec f   LIBCMT:align.obj
 0001:0025a010       __allmul                   0065b010 f   LIBCMT:llmul.obj
 0001:0025a044       ___ascii_stricmp           0065b044 f   LIBCMT:stricmp.obj
 0001:0025a07d       __stricmp_l                0065b07d f   LIBCMT:stricmp.obj
 0001:0025a152       __stricmp                  0065b152 f   LIBCMT:stricmp.obj
 0001:0025a1a4       __invoke_watson_if_error   0065b1a4 f i LIBCMT:getenv.obj
 0001:0025a1c8       __getenv_helper_nolock     0065b1c8 f   LIBCMT:getenv.obj
 0001:0025a388       _getenv                    0065b388 f   LIBCMT:getenv.obj
 0001:0025a40b       _getenv_s                  0065b40b f   LIBCMT:getenv.obj
 0001:0025a4e3       __dupenv_s                 0065b4e3 f   LIBCMT:getenv.obj
 0001:0025a5e0       _strchr                    0065b5e0 f   LIBCMT:strchr.obj
 0001:0025a5e6       ___from_strstr_to_strchr   0065b5e6     LIBCMT:strchr.obj
 0001:0025a6a0       _strstr                    0065b6a0 f   LIBCMT:strstr.obj
 0001:0025a726       _strncmp                   0065b726 f   LIBCMT:strncmp.obj
 0001:0025a7e6       __isalpha_l                0065b7e6 f i LIBCMT:_ctype.obj
 0001:0025a83c       _isalpha                   0065b83c f i LIBCMT:_ctype.obj
 0001:0025a86c       __isupper_l                0065b86c f i LIBCMT:_ctype.obj
 0001:0025a8bd       _isupper                   0065b8bd f i LIBCMT:_ctype.obj
 0001:0025a8eb       __islower_l                0065b8eb f i LIBCMT:_ctype.obj
 0001:0025a93c       _islower                   0065b93c f i LIBCMT:_ctype.obj
 0001:0025a96a       __isdigit_l                0065b96a f i LIBCMT:_ctype.obj
 0001:0025a9bb       _isdigit                   0065b9bb f i LIBCMT:_ctype.obj
 0001:0025a9e9       __isxdigit_l               0065b9e9 f i LIBCMT:_ctype.obj
 0001:0025aa3f       _isxdigit                  0065ba3f f i LIBCMT:_ctype.obj
 0001:0025aa6f       __isspace_l                0065ba6f f i LIBCMT:_ctype.obj
 0001:0025aac0       _isspace                   0065bac0 f i LIBCMT:_ctype.obj
 0001:0025aaee       __ispunct_l                0065baee f i LIBCMT:_ctype.obj
 0001:0025ab3f       _ispunct                   0065bb3f f i LIBCMT:_ctype.obj
 0001:0025ab6d       __isalnum_l                0065bb6d f i LIBCMT:_ctype.obj
 0001:0025abc3       _isalnum                   0065bbc3 f i LIBCMT:_ctype.obj
 0001:0025abf3       __isprint_l                0065bbf3 f i LIBCMT:_ctype.obj
 0001:0025ac49       _isprint                   0065bc49 f i LIBCMT:_ctype.obj
 0001:0025ac79       __isgraph_l                0065bc79 f i LIBCMT:_ctype.obj
 0001:0025accf       _isgraph                   0065bccf f i LIBCMT:_ctype.obj
 0001:0025acff       __iscntrl_l                0065bcff f i LIBCMT:_ctype.obj
 0001:0025ad50       _iscntrl                   0065bd50 f i LIBCMT:_ctype.obj
 0001:0025ad7e       ___isascii                 0065bd7e f i LIBCMT:_ctype.obj
 0001:0025ad90       ___toascii                 0065bd90 f i LIBCMT:_ctype.obj
 0001:0025ad9d       __iscsymf_l                0065bd9d f i LIBCMT:_ctype.obj
 0001:0025adc0       ___iscsymf                 0065bdc0 f i LIBCMT:_ctype.obj
 0001:0025addf       __iscsym_l                 0065bddf f i LIBCMT:_ctype.obj
 0001:0025ae02       ___iscsym                  0065be02 f i LIBCMT:_ctype.obj
 0001:0025ae30       __alldiv                   0065be30 f   LIBCMT:lldiv.obj
 0001:0025aeda       _atol                      0065beda f   LIBCMT:atox.obj
 0001:0025aef0       __atol_l                   0065bef0 f   LIBCMT:atox.obj
 0001:0025af09       _atoi                      0065bf09 f   LIBCMT:atox.obj
 0001:0025af14       __atoi_l                   0065bf14 f   LIBCMT:atox.obj
 0001:0025af1f       __atoi64                   0065bf1f f   LIBCMT:atox.obj
 0001:0025af35       __atoi64_l                 0065bf35 f   LIBCMT:atox.obj
 0001:0025af50       __allrem                   0065bf50 f   LIBCMT:llrem.obj
 0001:0025b002       __MarkAllocaS              0065c002 f i LIBCMT:strftime.obj
 0001:0025b018       __freea                    0065c018 f i LIBCMT:strftime.obj
 0001:0025b038       __Getdays_l                0065c038 f   LIBCMT:strftime.obj
 0001:0025b138       __Getdays                  0065c138 f   LIBCMT:strftime.obj
 0001:0025b141       __Getmonths_l              0065c141 f   LIBCMT:strftime.obj
 0001:0025b241       __Getmonths                0065c241 f   LIBCMT:strftime.obj
 0001:0025b24a       __Gettnames_l              0065c24a f   LIBCMT:strftime.obj
 0001:0025b5a1       __Gettnames                0065c5a1 f   LIBCMT:strftime.obj
 0001:0025bec4       __Strftime_l               0065cec4 f   LIBCMT:strftime.obj
 0001:0025c068       __strftime_l               0065d068 f   LIBCMT:strftime.obj
 0001:0025c088       _strftime                  0065d088 f   LIBCMT:strftime.obj
 0001:0025c0a7       __Strftime                 0065d0a7 f   LIBCMT:strftime.obj
 0001:0025c0d0       _memchr                    0065d0d0 f   LIBCMT:memchr.obj
 0001:0025c17d       __initp_misc_winsig        0065d17d f   LIBCMT:winsig.obj
 0001:0025c26d       ___get_sigabrt             0065d26d f   LIBCMT:winsig.obj
 0001:0025c27a       ___fpecode                 0065d27a f   LIBCMT:winsig.obj
 0001:0025c283       ___pxcptinfoptrs           0065d283 f   LIBCMT:winsig.obj
 0001:0025c28c       _signal                    0065d28c f   LIBCMT:winsig.obj
 0001:0025c4c9       _raise                     0065d4c9 f   LIBCMT:winsig.obj
 0001:0025c733       ___onexitinit              0065d733 f   LIBCMT:onexit.obj
 0001:0025c764       __onexit                   0065d764 f   LIBCMT:onexit.obj
 0001:0025c7a0       _atexit                    0065d7a0 f   LIBCMT:onexit.obj
 0001:0025c7b7       __endthread                0065d7b7 f   LIBCMT:thread.obj
 0001:0025c8b8       __beginthread              0065d8b8 f   LIBCMT:thread.obj
 0001:0025c971       __freopen_helper           0065d971 f   LIBCMT:freopen.obj
 0001:0025ca4a       _freopen                   0065da4a f   LIBCMT:freopen.obj
 0001:0025ca70       _freopen_s                 0065da70 f   LIBCMT:freopen.obj
 0001:0025ca90       _fputs                     0065da90 f   LIBCMT:fputs.obj
 0001:0025cb9f       __get_sys_err_msg          0065db9f f i LIBCMT:strerror.obj
 0001:0025cbc7       _strerror                  0065dbc7 f   LIBCMT:strerror.obj
 0001:0025cc33       _strerror_s                0065dc33 f   LIBCMT:strerror.obj
 0001:0025cc94       __write_nolock             0065dc94 f   LIBCMT:write.obj
 0001:0025d3c7       __write                    0065e3c7 f   LIBCMT:write.obj
 0001:0025d4a3       __tolower                  0065e4a3 f   LIBCMT:tolower.obj
 0001:0025d4b0       __tolower_l                0065e4b0 f   LIBCMT:tolower.obj
 0001:0025d5c5       _tolower                   0065e5c5 f   LIBCMT:tolower.obj
 0001:0025d65b       _sscanf                    0065e65b f   LIBCMT:sscanf.obj
 0001:0025d67d       __sscanf_l                 0065e67d f   LIBCMT:sscanf.obj
 0001:0025d6a0       _sscanf_s                  0065e6a0 f   LIBCMT:sscanf.obj
 0001:0025d6c2       __sscanf_s_l               0065e6c2 f   LIBCMT:sscanf.obj
 0001:0025d6e5       __getpid                   0065e6e5 f   LIBCMT:getpid.obj
 0001:0025d6eb       __set_osfhnd               0065e6eb f   LIBCMT:osfinfo.obj
 0001:0025d76c       __free_osfhnd              0065e76c f   LIBCMT:osfinfo.obj
 0001:0025d7f2       __get_osfhandle            0065e7f2 f   LIBCMT:osfinfo.obj
 0001:0025d869       ___lock_fhandle            0065e869 f   LIBCMT:osfinfo.obj
 0001:0025d909       __unlock_fhandle           0065e909 f   LIBCMT:osfinfo.obj
 0001:0025d930       __alloc_osfhnd             0065e930 f   LIBCMT:osfinfo.obj
 0001:0025daca       __open_osfhandle           0065eaca f   LIBCMT:osfinfo.obj
 0001:0025dbe0       __get_errno_from_oserr     0065ebe0 f   LIBCMT:dosmap.obj
 0001:0025dc22       __errno                    0065ec22 f   LIBCMT:dosmap.obj
 0001:0025dc35       ___doserrno                0065ec35 f   LIBCMT:dosmap.obj
 0001:0025dc48       __dosmaperr                0065ec48 f   LIBCMT:dosmap.obj
 0001:0025dc6b       __set_errno                0065ec6b f   LIBCMT:dosmap.obj
 0001:0025dc8c       __get_errno                0065ec8c f   LIBCMT:dosmap.obj
 0001:0025dcbb       __set_doserrno             0065ecbb f   LIBCMT:dosmap.obj
 0001:0025dcdc       __get_doserrno             0065ecdc f   LIBCMT:dosmap.obj
 0001:0025dd10       _strcspn                   0065ed10 f   LIBCMT:strcspn.obj
 0001:0025dd56       __set_controlfp            0065ed56 f   LIBCMT:_ieee87_.obj
 0001:0025e0ca       __statusfp                 0065f0ca f   LIBCMT:_ieee87_.obj
 0001:0025e15c       __fpreset                  0065f15c f   LIBCMT:_ieee87_.obj
 0001:0025e395       __statusfp2                0065f395 f   LIBCMT:_ieee87_.obj
 0001:0025e3ef       __clearfp                  0065f3ef f   LIBCMT:_ieee87_.obj
 0001:0025e4c8       ___control87_2             0065f4c8 f   LIBCMT:_ieee87_.obj
 0001:0025e7dc       __control87                0065f7dc f i LIBCMT:_ieee87_.obj
 0001:0025eaeb       __controlfp                0065faeb f   LIBCMT:_ieee87_.obj
 0001:0025ee00       __aulldiv                  0065fe00 f   LIBCMT:ulldiv.obj
 0001:0025ee68       __snprintf                 0065fe68 f   LIBCMT:snprintf.obj
 0001:0025ef17       __snprintf_l               0065ff17 f   LIBCMT:snprintf.obj
 0001:0025ef36       ?strrchr@@YAPADPADH@Z      0065ff36 f i LIBCMT:cvt.obj
 0001:0025ef41       __forcdecpt_l              0065ff41 f   LIBCMT:cvt.obj
 0001:0025efb4       __cropzeros_l              0065ffb4 f   LIBCMT:cvt.obj
 0001:0025f036       __positive                 00660036 f   LIBCMT:cvt.obj
 0001:0025f052       __fassign_l                00660052 f   LIBCMT:cvt.obj
 0001:0025f094       __fassign                  00660094 f   LIBCMT:cvt.obj
 0001:0025f0cd       __forcdecpt                006600cd f   LIBCMT:cvt.obj
 0001:0025f0e0       __cropzeros                006600e0 f   LIBCMT:cvt.obj
 0001:0025f262       __cftoe_l                  00660262 f   LIBCMT:cvt.obj
 0001:0025f332       __cftoe                    00660332 f   LIBCMT:cvt.obj
 0001:0025f352       __cftoa_l                  00660352 f   LIBCMT:cvt.obj
 0001:0025f6c5       __cftoa                    006606c5 f   LIBCMT:cvt.obj
 0001:0025f7dc       __cftof_l                  006607dc f   LIBCMT:cvt.obj
 0001:0025f897       __cftof                    00660897 f   LIBCMT:cvt.obj
 0001:0025f8b4       __cftog_l                  006608b4 f   LIBCMT:cvt.obj
 0001:0025f9ae       __cftog                    006609ae f   LIBCMT:cvt.obj
 0001:0025f9ce       __cfltcvt_l                006609ce f   LIBCMT:cvt.obj
 0001:0025fa56       __cfltcvt                  00660a56 f   LIBCMT:cvt.obj
 0001:0025fa79       __initp_misc_cfltcvt_tab   00660a79 f   LIBCMT:cmiscdat.obj
 0001:0025fa9a       __setdefaultprecision      00660a9a f   LIBCMT:fp8.obj
 0001:0025fac5       __ms_p5_test_fdiv          00660ac5 f   LIBCMT:_testfdiv_.obj
 0001:0025fb03       __ms_p5_mp_test_fdiv       00660b03 f   LIBCMT:_testfdiv_.obj
 0001:0025fbb3       __VEC_memcpy               00660bb3 f   LIBCMT:p4_memcpy.obj
 0001:0025fce6       __get_sse2_info            00660ce6 f   LIBCMT:cpu_disp.obj
 0001:0025fd48       ___sse2_available_init     00660d48 f   LIBCMT:cpu_disp.obj
 0001:0025fd55       ?__CxxUnhandledExceptionFilter@@YGJPAU_EXCEPTION_POINTERS@@@Z 00660d55 f   LIBCMT:unhandld.obj
 0001:0025fd97       ___CxxSetUnhandledExceptionFilter 00660d97 f   LIBCMT:unhandld.obj
 0001:0025fda5       __NMSG_WRITE               00660da5 f   LIBCMT:crt0msg.obj
 0001:0025ff50       __GET_RTERRMSG             00660f50 f   LIBCMT:crt0msg.obj
 0001:0025ff76       __FF_MSGBANNER             00660f76 f   LIBCMT:crt0msg.obj
 0001:0025ffaf       __initp_misc_winxfltr      00660faf f   LIBCMT:winxfltr.obj
 0001:0025ffe5       __XcptFilter               00660fe5 f   LIBCMT:winxfltr.obj
 0001:00260145       ___CppXcptFilter           00661145 f   LIBCMT:winxfltr.obj
 0001:00260165       __setenvp                  00661165 f   LIBCMT:stdenvp.obj
 0001:00260243       __set_pgmptr               00661243 f i LIBCMT:stdargv.obj
 0001:002603ec       __setargv                  006613ec f   LIBCMT:stdargv.obj
 0001:002604a7       ___crtGetEnvironmentStringsA 006614a7 f   LIBCMT:a_env.obj
 0001:002605de       __ioinit                   006615de f   LIBCMT:ioinit.obj
 0001:00260832       __ioterm                   00661832 f   LIBCMT:ioinit.obj
 0001:00260880       __RTC_Initialize           00661880 f   LIBCMT:_initsect_.obj
 0001:002608a6       __RTC_Terminate            006618a6 f   LIBCMT:_initsect_.obj
 0001:002608cc       __crt_wait_module_handle   006618cc f i LIBCMT:tidtable.obj
 0001:002608e6       __encode_pointer           006618e6 f   LIBCMT:tidtable.obj
 0001:00260958       __encoded_null             00661958 f   LIBCMT:tidtable.obj
 0001:00260961       __decode_pointer           00661961 f   LIBCMT:tidtable.obj
 0001:002609d3       ___crtTlsAlloc@4           006619d3 f   LIBCMT:tidtable.obj
 0001:002609dc       ___fls_getvalue@4          006619dc f   LIBCMT:tidtable.obj
 0001:002609f6       ___get_flsindex            006619f6 f   LIBCMT:tidtable.obj
 0001:002609fc       ___set_flsgetvalue         006619fc f   LIBCMT:tidtable.obj
 0001:00260a30       ___fls_setvalue@8          00661a30 f   LIBCMT:tidtable.obj
 0001:00260a4d       __mtterm                   00661a4d f   LIBCMT:tidtable.obj
 0001:00260a8a       __initptd                  00661a8a f   LIBCMT:tidtable.obj
 0001:00260b71       __getptd_noexit            00661b71 f   LIBCMT:tidtable.obj
 0001:00260bea       __getptd                   00661bea f   LIBCMT:tidtable.obj
 0001:00260c04       __freefls@4                00661c04 f   LIBCMT:tidtable.obj
 0001:00260d33       __freeptd                  00661d33 f   LIBCMT:tidtable.obj
 0001:00260da1       ___threadid                00661da1 f   LIBCMT:tidtable.obj
 0001:00260da7       ___threadhandle            00661da7 f   LIBCMT:tidtable.obj
 0001:00260dad       __mtinit                   00661dad f   LIBCMT:tidtable.obj
 0001:00260f3a       ___heap_select             00661f3a f   LIBCMT:heapinit.obj
 0001:00260f3e       __heap_init                00661f3e f   LIBCMT:heapinit.obj
 0001:00260f6e       __heap_term                00661f6e f   LIBCMT:heapinit.obj
 0001:00260fe2       __get_heap_handle          00661fe2 f   LIBCMT:heapinit.obj
 0001:00260fe8       __SEH_prolog4              00661fe8 f   LIBCMT:sehprolg4.obj
 0001:0026102d       __SEH_epilog4              0066202d f   LIBCMT:sehprolg4.obj
 0001:00261080       __except_handler4          00662080 f   LIBCMT:chandler4.obj
 0001:0026120c       ___security_init_cookie    0066220c f   LIBCMT:gs_support.obj
 0001:002612a2       ___report_gsfailure        006622a2 f   LIBCMT:gs_report.obj
 0001:002613a8       __mtinitlocks              006623a8 f   LIBCMT:mlock.obj
 0001:002613f3       __mtdeletelocks            006623f3 f   LIBCMT:mlock.obj
 0001:0026144a       __unlock                   0066244a f   LIBCMT:mlock.obj
 0001:00261461       __lockerr_exit             00662461 f   LIBCMT:mlock.obj
 0001:00261479       __mtinitlocknum            00662479 f   LIBCMT:mlock.obj
 0001:0026153c       __lock                     0066253c f   LIBCMT:mlock.obj
 0001:0026156f       __get_sbh_threshold        0066256f f   LIBCMT:sbheap.obj
 0001:00261590       __set_amblksiz             00662590 f   LIBCMT:sbheap.obj
 0001:002615db       __get_amblksiz             006625db f   LIBCMT:sbheap.obj
 0001:0026161c       ___sbh_heap_init           0066261c f   LIBCMT:sbheap.obj
 0001:0026166a       ___sbh_find_block          0066266a f   LIBCMT:sbheap.obj
 0001:0026169a       ___sbh_free_block          0066269a f   LIBCMT:sbheap.obj
 0001:002619b0       ___sbh_alloc_new_region    006629b0 f   LIBCMT:sbheap.obj
 0001:00261a60       ___sbh_alloc_new_group     00662a60 f   LIBCMT:sbheap.obj
 0001:00261b68       ___sbh_resize_block        00662b68 f   LIBCMT:sbheap.obj
 0001:00261e49       ___sbh_heapmin             00662e49 f   LIBCMT:sbheap.obj
 0001:00261f16       ___sbh_heap_check          00662f16 f   LIBCMT:sbheap.obj
 0001:002621fa       __set_sbh_threshold        006631fa f   LIBCMT:sbheap.obj
 0001:002622a9       ___sbh_alloc_block         006632a9 f   LIBCMT:sbheap.obj
 0001:0026258e       __stbuf                    0066358e f   LIBCMT:_sftbuf.obj
 0001:0026262a       __ftbuf                    0066362a f   LIBCMT:_sftbuf.obj
 0001:00262704       _get_int_arg               00663704 f i LIBCMT:output.obj
 0001:00262716       _get_int64_arg             00663716 f i LIBCMT:output.obj
 0001:0026272b       _get_short_arg             0066372b f i LIBCMT:output.obj
 0001:0026273e       __output_l                 0066373e f   LIBCMT:output.obj
 0001:002632d6       __initp_misc_invarg        006642d6 f   LIBCMT:invarg.obj
 0001:002632e5       __invoke_watson            006642e5 f   LIBCMT:invarg.obj
 0001:0026340d       __set_invalid_parameter_handler 0066440d f   LIBCMT:invarg.obj
 0001:00263434       __get_invalid_parameter_handler 00664434 f   LIBCMT:invarg.obj
 0001:00263441       ?_invoke_watson@@YAXPBG00II@Z 00664441 f   LIBCMT:invarg.obj
 0001:0026344c       __invalid_parameter        0066444c f   LIBCMT:invarg.obj
 0001:00263472       __invalid_parameter_noinfo 00664472 f   LIBCMT:invarg.obj
 0001:00263482       ?_invalid_parameter@@YAXPBG00II@Z 00664482 f   LIBCMT:invarg.obj
 0001:0026348d       _vprintf_helper            0066448d f   LIBCMT:vprintf.obj
 0001:0026351d       __vprintf_l                0066451d f   LIBCMT:vprintf.obj
 0001:0026353a       __vprintf_s_l              0066453a f   LIBCMT:vprintf.obj
 0001:00263557       __vprintf_p_l              00664557 f   LIBCMT:vprintf.obj
 0001:00263574       _vprintf                   00664574 f   LIBCMT:vprintf.obj
 0001:00263590       _vprintf_s                 00664590 f   LIBCMT:vprintf.obj
 0001:002635ac       __vprintf_p                006645ac f   LIBCMT:vprintf.obj
 0001:002635c8       __initp_heap_handler       006645c8 f   LIBCMT:handler.obj
 0001:002635d7       ?_set_new_handler@@YAP6AHI@ZP6AHI@Z@Z 006645d7 f   LIBCMT:handler.obj
 0001:0026360d       ?_set_new_handler@@YAP6AHI@ZH@Z 0066460d f   LIBCMT:handler.obj
 0001:00263616       ?_query_new_handler@@YAP6AHI@ZXZ 00664616 f   LIBCMT:handler.obj
 0001:00263623       __callnewh                 00664623 f   LIBCMT:handler.obj
 0001:00263650       __ValidateImageBase        00664650 f   LIBCMT:pesect.obj
 0001:00263690       __FindPESection            00664690 f   LIBCMT:pesect.obj
 0001:002636e0       __IsNonwritableInCurrentImage 006646e0 f   LIBCMT:pesect.obj
 0001:0026379d       ?terminate@@YAXXZ          0066479d f   LIBCMT:hooks.obj
 0001:002637d6       ?unexpected@@YAXXZ         006647d6 f   LIBCMT:hooks.obj
 0001:002637e9       ?_inconsistency@@YAXXZ     006647e9 f   LIBCMT:hooks.obj
 0001:00263821       __initp_eh_hooks           00664821 f   LIBCMT:hooks.obj
 0001:00263832       __initp_misc_rand_s        00664832 f   LIBCMT:rand_s.obj
 0001:00263841       _rand_s                    00664841 f   LIBCMT:rand_s.obj
 0001:00263949       ___getlocaleinfo           00664949 f   LIBCMT:inithelp.obj
 0001:00263ac8       __initp_misc_purevirt      00664ac8 f   LIBCMT:inithelp.obj
 0001:00263ad7       __initp_misc_initcrit      00664ad7 f   LIBCMT:initcrit.obj
 0001:00263ae6       ___crtInitCritSecAndSpinCount 00664ae6 f   LIBCMT:initcrit.obj
 0001:00263b50       _memset                    00664b50 f   LIBCMT:memset.obj
 0001:00263bca       __flsbuf                   00664bca f   LIBCMT:_flsbuf.obj
 0001:00263d2e       __vsnprintf_helper         00664d2e f   LIBCMT:vsnprnc.obj
 0001:00263dfa       __vsnprintf_c              00664dfa f   LIBCMT:vsnprnc.obj
 0001:00263e23       __vsnprintf_c_l            00664e23 f   LIBCMT:vsnprnc.obj
 0001:00263e4d       __vsprintf_s_l             00664e4d f   LIBCMT:vsnprnc.obj
 0001:00263ed5       _vsprintf_s                00664ed5 f   LIBCMT:vsnprnc.obj
 0001:00263ef2       __vsnprintf_s_l            00664ef2 f   LIBCMT:vsnprnc.obj
 0001:00263ff9       __vsnprintf_s              00664ff9 f   LIBCMT:vsnprnc.obj
 0001:00264019       __vsprintf_p               00665019 f   LIBCMT:vsnprnc.obj
 0001:00264042       __vsprintf_p_l             00665042 f   LIBCMT:vsnprnc.obj
 0001:0026406c       __validate_param_reuseA    0066506c f   LIBCMT:outputp.obj
 0001:0026423d       _get_crtdouble_arg         0066523d f i LIBCMT:outputp.obj
 0001:00264252       __output_p_l               00665252 f   LIBCMT:outputp.obj
 0001:00265512       _wait_a_bit                00666512 f i LIBCMT:crtheap.obj
 0001:00265538       __set_malloc_crt_max_wait  00666538 f   LIBCMT:crtheap.obj
 0001:0026554d       __malloc_crt               0066654d f   LIBCMT:crtheap.obj
 0001:00265592       __calloc_crt               00666592 f   LIBCMT:crtheap.obj
 0001:002655de       __realloc_crt              006665de f   LIBCMT:crtheap.obj
 0001:0026562c       __recalloc_crt             0066662c f   LIBCMT:crtheap.obj
 0001:0026567e       __fcloseall                0066667e f   LIBCMT:closeall.obj
 0001:0026571d       __fileno                   0066671d f   LIBCMT:fileno.obj
 0001:0026574f       __commit                   0066674f f   LIBCMT:commit.obj
 0001:002658d6       __output_s_l               006668d6 f   LIBCMT:outputs.obj
 0001:002664a6       __openfile                 006674a6 f   LIBCMT:_open.obj
 0001:0026676f       __getstream                0066776f f   LIBCMT:stream.obj
 0001:002668a8       __local_unwind4            006678a8 f   LIBCMT:exsup4.obj
 0001:0026697e       __seh_longjmp_unwind4@4    0066797e f   LIBCMT:exsup4.obj
 0001:0026699a       @_EH4_CallFilterFunc@8     0066799a f   LIBCMT:exsup4.obj
 0001:002669b1       @_EH4_TransferToHandler@8  006679b1 f   LIBCMT:exsup4.obj
 0001:002669ca       @_EH4_GlobalUnwind@4       006679ca f   LIBCMT:exsup4.obj
 0001:002669e4       @_EH4_LocalUnwind@16       006679e4 f   LIBCMT:exsup4.obj
 0001:002669fb       __close_nolock             006679fb f   LIBCMT:close.obj
 0001:00266a97       __close                    00667a97 f   LIBCMT:close.obj
 0001:00266b64       __freebuf                  00667b64 f   LIBCMT:_freebuf.obj
 0001:00266dbb       ___updatetmbcinfo          00667dbb f   LIBCMT:mbctype.obj
 0001:00266edb       __setmbcp_nolock           00667edb f   LIBCMT:mbctype.obj
 0001:002670c0       __getmbcp                  006680c0 f   LIBCMT:mbctype.obj
 0001:002670fe       __setmbcp                  006680fe f   LIBCMT:mbctype.obj
 0001:00267298       ___initmbctable            00668298 f   LIBCMT:mbctype.obj
 0001:002672b6       ____setlc_active_func      006682b6 f   LIBCMT:setlocal.obj
 0001:002672bc       ____unguarded_readlc_active_add_func 006682bc f   LIBCMT:setlocal.obj
 0001:002672c2       ___freetlocinfo            006682c2 f   LIBCMT:setlocal.obj
 0001:0026740b       ___addlocaleref            0066840b f   LIBCMT:setlocal.obj
 0001:0026749a       ___removelocaleref         0066849a f   LIBCMT:setlocal.obj
 0001:00267597       ___updatetlocinfo          00668597 f   LIBCMT:setlocal.obj
 0001:0026760d       __configthreadlocale       0066860d f   LIBCMT:setlocal.obj
 0001:002676ca       __free_locale              006686ca f   LIBCMT:setlocal.obj
 0001:0026778c       ___free_locale             0066878c f   LIBCMT:setlocal.obj
 0001:00267797       __get_current_locale       00668797 f   LIBCMT:setlocal.obj
 0001:00267846       ___get_current_locale      00668846 f   LIBCMT:setlocal.obj
 0001:0026784b       ___init_dummy              0066884b f   LIBCMT:setlocal.obj
 0001:0026784e       __strcats                  0066884e f   LIBCMT:setlocal.obj
 0001:0026788e       ___lc_strtolc              0066888e f   LIBCMT:setlocal.obj
 0001:002679b7       ___lc_lctostr              006689b7 f   LIBCMT:setlocal.obj
 0001:00267ba1       __expandlocale             00668ba1 f   LIBCMT:setlocal.obj
 0001:002682ef       __create_locale            006692ef f   LIBCMT:setlocal.obj
 0001:002683e4       ___create_locale           006693e4 f   LIBCMT:setlocal.obj
 0001:002683ef       _setlocale                 006693ef f   LIBCMT:setlocal.obj
 0001:00268922       ___crtLCMapStringA         00669922 f   LIBCMT:a_map.obj
 0001:00268967       __isleadbyte_l             00669967 f i LIBCMT:_wctype.obj
 0001:0026899f       _isleadbyte                0066999f f i LIBCMT:_wctype.obj
 0001:002689b2       __iswalpha_l               006699b2 f i LIBCMT:_wctype.obj
 0001:002689cc       _iswalpha                  006699cc f i LIBCMT:_wctype.obj
 0001:002689e2       __iswupper_l               006699e2 f i LIBCMT:_wctype.obj
 0001:002689f9       _iswupper                  006699f9 f i LIBCMT:_wctype.obj
 0001:00268a0c       __iswlower_l               00669a0c f i LIBCMT:_wctype.obj
 0001:00268a23       _iswlower                  00669a23 f i LIBCMT:_wctype.obj
 0001:00268a36       __iswdigit_l               00669a36 f i LIBCMT:_wctype.obj
 0001:00268a4d       _iswdigit                  00669a4d f i LIBCMT:_wctype.obj
 0001:00268a60       __iswxdigit_l              00669a60 f i LIBCMT:_wctype.obj
 0001:00268a7a       _iswxdigit                 00669a7a f i LIBCMT:_wctype.obj
 0001:00268a90       __iswspace_l               00669a90 f i LIBCMT:_wctype.obj
 0001:00268aa7       _iswspace                  00669aa7 f i LIBCMT:_wctype.obj
 0001:00268aba       __iswpunct_l               00669aba f i LIBCMT:_wctype.obj
 0001:00268ad1       _iswpunct                  00669ad1 f i LIBCMT:_wctype.obj
 0001:00268ae4       __iswalnum_l               00669ae4 f i LIBCMT:_wctype.obj
 0001:00268afe       _iswalnum                  00669afe f i LIBCMT:_wctype.obj
 0001:00268b14       __iswprint_l               00669b14 f i LIBCMT:_wctype.obj
 0001:00268b2e       _iswprint                  00669b2e f i LIBCMT:_wctype.obj
 0001:00268b44       __iswgraph_l               00669b44 f i LIBCMT:_wctype.obj
 0001:00268b5e       _iswgraph                  00669b5e f i LIBCMT:_wctype.obj
 0001:00268b74       __iswcntrl_l               00669b74 f i LIBCMT:_wctype.obj
 0001:00268b8b       _iswcntrl                  00669b8b f i LIBCMT:_wctype.obj
 0001:00268b9e       _iswascii                  00669b9e f i LIBCMT:_wctype.obj
 0001:00268bb2       __iswcsym_l                00669bb2 f i LIBCMT:_wctype.obj
 0001:00268bdc       ___iswcsym                 00669bdc f i LIBCMT:_wctype.obj
 0001:00268c02       __iswcsymf_l               00669c02 f i LIBCMT:_wctype.obj
 0001:00268c2c       ___iswcsymf                00669c2c f i LIBCMT:_wctype.obj
 0001:00268c52       __isctype_l                00669c52 f   LIBCMT:isctype.obj
 0001:00268d0a       __isctype                  00669d0a f   LIBCMT:isctype.obj
 0001:00268d3c       __msize                    00669d3c f   LIBCMT:msize.obj
 0001:00268e5e       __expand                   00669e5e f   LIBCMT:expand.obj
 0001:00268f9e       __mbsnbicoll_l             00669f9e f   LIBCMT:mbsnbico.obj
 0001:0026908c       __mbsnbicoll               0066a08c f   LIBCMT:mbsnbico.obj
 0001:002690b0       _strlen                    0066a0b0 f   LIBCMT:strlen.obj
 0001:0026913b       ___wtomb_environ           0066a13b f   LIBCMT:wtombenv.obj
 0001:002691d2       _strcpy_s                  0066a1d2 f   LIBCMT:strcpy_s.obj
 0001:0026923a       _calloc                    0066a23a f   LIBCMT:calloc.obj
 0001:0026927a       _strnlen                   0066a27a f   LIBCMT:strlen_s.obj
 0001:002694c6       _strtol                    0066a4c6 f   LIBCMT:strtol.obj
 0001:002694f1       __strtol_l                 0066a4f1 f   LIBCMT:strtol.obj
 0001:0026950e       _strtoul                   0066a50e f   LIBCMT:strtol.obj
 0001:0026953a       __strtoul_l                0066a53a f   LIBCMT:strtol.obj
 0001:002697ee       __strtoi64                 0066a7ee f   LIBCMT:strtoq.obj
 0001:00269819       __strtoi64_l               0066a819 f   LIBCMT:strtoq.obj
 0001:00269836       __strtoui64                0066a836 f   LIBCMT:strtoq.obj
 0001:00269862       __strtoui64_l              0066a862 f   LIBCMT:strtoq.obj
 0001:0026987f       __localtime32_s            0066a87f f   LIBCMT:localtim.obj
 0001:00269aae       _localtime                 0066aaae f   LIBCMT:localtim.obj
 0001:00269aae       __localtime32              0066aaae f   LIBCMT:localtim.obj
 0001:00269ad5       __get_daylight             0066aad5 f   LIBCMT:timeset.obj
 0001:00269b0e       __get_dstbias              0066ab0e f   LIBCMT:timeset.obj
 0001:00269b47       __get_timezone             0066ab47 f   LIBCMT:timeset.obj
 0001:00269b80       __get_tzname               0066ab80 f   LIBCMT:timeset.obj
 0001:00269c24       ___daylight                0066ac24 f   LIBCMT:timeset.obj
 0001:00269c2a       ___dstbias                 0066ac2a f   LIBCMT:timeset.obj
 0001:00269c30       ___timezone                0066ac30 f   LIBCMT:timeset.obj
 0001:00269c36       ___tzname                  0066ac36 f   LIBCMT:timeset.obj
 0001:00269c3c       __set_daylight             0066ac3c f i LIBCMT:tzset.obj
 0001:00269c4d       __set_dstbias              0066ac4d f i LIBCMT:tzset.obj
 0001:00269c5e       __set_timezone             0066ac5e f i LIBCMT:tzset.obj
 0001:0026a384       ___tzset                   0066b384 f   LIBCMT:tzset.obj
 0001:0026a3d3       __tzset                    0066b3d3 f   LIBCMT:tzset.obj
 0001:0026a40b       __isindst                  0066b40b f   LIBCMT:tzset.obj
 0001:0026a450       __alloca_probe_16          0066b450 f   LIBCMT:alloca16.obj
 0001:0026a466       __alloca_probe_8           0066b466     LIBCMT:alloca16.obj
 0001:0026a47c       __gmtime32_s               0066b47c f   LIBCMT:gmtime.obj
 0001:0026a5af       ___getgmtimebuf            0066b5af f   LIBCMT:gmtime.obj
 0001:0026a5e6       __gmtime32                 0066b5e6 f   LIBCMT:gmtime.obj
 0001:0026a5e6       _gmtime                    0066b5e6 f   LIBCMT:gmtime.obj
 0001:0026a60d       __fwrite_nolock            0066b60d f   LIBCMT:fwrite.obj
 0001:0026a76f       _fwrite                    0066b76f f   LIBCMT:fwrite.obj
 0001:0026a7f1       ___sys_nerr                0066b7f1 f   LIBCMT:syserr.obj
 0001:0026a7f7       ___sys_errlist             0066b7f7 f   LIBCMT:syserr.obj
 0001:0026a7fd       _strncpy_s                 0066b7fd f   LIBCMT:strncpy_s.obj
 0001:0026a8b2       __putwch_nolock            0066b8b2 f   LIBCMT:putwch.obj
 0001:0026a977       __cputws                   0066b977 f   LIBCMT:putwch.obj
 0001:0026aa16       __putwch                   0066ba16 f   LIBCMT:putwch.obj
 0001:0026aa5c       __mbtowc_l                 0066ba5c f   LIBCMT:mbtowc.obj
 0001:0026ab73       _mbtowc                    0066bb73 f   LIBCMT:mbtowc.obj
 0001:0026ab8d       __isatty                   0066bb8d f   LIBCMT:isatty.obj
 0001:0026abf1       __lseeki64_nolock          0066bbf1 f   LIBCMT:lseeki64.obj
 0001:0026ac76       __lseeki64                 0066bc76 f   LIBCMT:lseeki64.obj
 0001:0026ade6       __INTRN_LOCALE_CONV        0066bde6 f i LIBCMT:input.obj
 0001:0026ae6b       __input_l                  0066be6b f   LIBCMT:input.obj
 0001:0026bef2       __input_s_l                0066cef2 f   LIBCMT:inputs.obj
 0001:0026d016       __controlfp_s              0066e016 f   LIBCMT:_contrlfp_.obj
 0001:0026d082       __statfp                   0066e082 f   LIBCMT:_fpctrl_.obj
 0001:0026d092       __clrfp                    0066e092 f   LIBCMT:_fpctrl_.obj
 0001:0026d0a3       __ctrlfp                   0066e0a3 f   LIBCMT:_fpctrl_.obj
 0001:0026d0cc       __set_statfp               0066e0cc f   LIBCMT:_fpctrl_.obj
 0001:0026d124       ___get_fpsr_sse2           0066e124 f   LIBCMT:_fpctrl_.obj
 0001:0026d142       ___set_fpsr_sse2           0066e142 f   LIBCMT:_fpctrl_.obj
 0001:0026d1b4       ___fclrf_sse2              0066e1b4 f   LIBCMT:_fpctrl_.obj
 0001:0026d1d1       ___statfp_sse2             0066e1d1 f   LIBCMT:_fpctrl_.obj
 0001:0026d1e4       ___clrfp_sse2              0066e1e4 f   LIBCMT:_fpctrl_.obj
 0001:0026d1fc       ___ctrlfp_sse2             0066e1fc f   LIBCMT:_fpctrl_.obj
 0001:0026d233       ___set_statfp_sse2         0066e233 f   LIBCMT:_fpctrl_.obj
 0001:0026d24e       __vsnprintf_l              0066e24e f   LIBCMT:vsnprint.obj
 0001:0026d301       __vsnprintf                0066e301 f   LIBCMT:vsnprint.obj
 0001:0026d320       _strrchr                   0066e320 f   LIBCMT:strrchr.obj
 0001:0026d34d       __atodbl_l                 0066e34d f   LIBCMT:atodbl.obj
 0001:0026d3f5       __atodbl                   0066e3f5 f   LIBCMT:atodbl.obj
 0001:0026d40c       __atoldbl_l                0066e40c f   LIBCMT:atodbl.obj
 0001:0026d4b5       __atoldbl                  0066e4b5 f   LIBCMT:atodbl.obj
 0001:0026d4cc       __atoflt_l                 0066e4cc f   LIBCMT:atodbl.obj
 0001:0026d574       __atoflt                   0066e574 f   LIBCMT:atodbl.obj
 0001:0026d58b       __set_output_format        0066e58b f   LIBCMT:outputformat.obj
 0001:0026d5c7       __get_output_format        0066e5c7 f   LIBCMT:outputformat.obj
 0001:0026d5cd       __fptostr                  0066e5cd f   LIBCMT:_fptostr.obj
 0001:0026d68c       ___dtold                   0066e68c f   LIBCMT:_cfout_.obj
 0001:0026d749       __fltout2                  0066e749 f   LIBCMT:_cfout_.obj
 0001:0026d7e0       __alldvrm                  0066e7e0 f   LIBCMT:lldvrm.obj
 0001:0026d8c0       __aullshr                  0066e8c0 f   LIBCMT:ullshr.obj
 0001:0026d8df       __fptrap                   0066e8df f   LIBCMT:crt0fp.obj
 0001:0026d8e8       ___crtMessageBoxA          0066e8e8 f   LIBCMT:crtmbox.obj
 0001:0026da51       _strcat_s                  0066ea51 f   LIBCMT:strcat_s.obj
 0001:0026dac5       __set_error_mode           0066eac5 f   LIBCMT:errmode.obj
 0001:0026db10       ___set_app_type            0066eb10 f   LIBCMT:errmode.obj
 0001:0026db1f       ___get_app_type            0066eb1f f   LIBCMT:errmode.obj
 0001:0026db78       __ismbbkalnum_l            0066eb78 f   LIBCMT:ismbbyte.obj
 0001:0026db91       __ismbbkalnum              0066eb91 f   LIBCMT:ismbbyte.obj
 0001:0026dba9       __ismbbkprint_l            0066eba9 f   LIBCMT:ismbbyte.obj
 0001:0026dbc2       __ismbbkprint              0066ebc2 f   LIBCMT:ismbbyte.obj
 0001:0026dbda       __ismbbkpunct_l            0066ebda f   LIBCMT:ismbbyte.obj
 0001:0026dbf3       __ismbbkpunct              0066ebf3 f   LIBCMT:ismbbyte.obj
 0001:0026dc0b       __ismbbalnum_l             0066ec0b f   LIBCMT:ismbbyte.obj
 0001:0026dc27       __ismbbalnum               0066ec27 f   LIBCMT:ismbbyte.obj
 0001:0026dc42       __ismbbalpha_l             0066ec42 f   LIBCMT:ismbbyte.obj
 0001:0026dc5e       __ismbbalpha               0066ec5e f   LIBCMT:ismbbyte.obj
 0001:0026dc79       __ismbbgraph_l             0066ec79 f   LIBCMT:ismbbyte.obj
 0001:0026dc95       __ismbbgraph               0066ec95 f   LIBCMT:ismbbyte.obj
 0001:0026dcb0       __ismbbprint_l             0066ecb0 f   LIBCMT:ismbbyte.obj
 0001:0026dccc       __ismbbprint               0066eccc f   LIBCMT:ismbbyte.obj
 0001:0026dce7       __ismbbpunct_l             0066ece7 f   LIBCMT:ismbbyte.obj
 0001:0026dd00       __ismbbpunct               0066ed00 f   LIBCMT:ismbbyte.obj
 0001:0026dd18       __ismbblead_l              0066ed18 f   LIBCMT:ismbbyte.obj
 0001:0026dd31       __ismbblead                0066ed31 f   LIBCMT:ismbbyte.obj
 0001:0026dd49       __ismbbtrail_l             0066ed49 f   LIBCMT:ismbbyte.obj
 0001:0026dd62       __ismbbtrail               0066ed62 f   LIBCMT:ismbbyte.obj
 0001:0026dd7a       __ismbbkana_l              0066ed7a f   LIBCMT:ismbbyte.obj
 0001:0026ddcf       __ismbbkana                0066edcf f   LIBCMT:ismbbyte.obj
 0001:0026dde2       __crt_debugger_hook        0066ede2 f   LIBCMT:dbghook.obj
 0001:0026ddea       __wctomb_s_l               0066edea f   LIBCMT:wctomb.obj
 0001:0026df56       _wctomb_s                  0066ef56 f   LIBCMT:wctomb.obj
 0001:0026df73       __wctomb_l                 0066ef73 f   LIBCMT:wctomb.obj
 0001:0026dfc4       _wctomb                    0066efc4 f   LIBCMT:wctomb.obj
 0001:0026e000       __aulldvrm                 0066f000 f   LIBCMT:ulldvrm.obj
 0001:0026e0ae       ___crtGetLocaleInfoW       0066f0ae f   LIBCMT:w_loc.obj
 0001:0026e221       ___crtGetLocaleInfoA       0066f221 f   LIBCMT:a_loc.obj
 0001:0026e2b5       __VEC_memzero              0066f2b5 f   LIBCMT:p4_memset.obj
 0001:0026e344       __getbuf                   0066f344 f   LIBCMT:_getbuf.obj
 0001:0026e38d       __calloc_impl              0066f38d f   LIBCMT:calloc_impl.obj
 0001:0026e4ab       __recalloc                 0066f4ab f   LIBCMT:recalloc.obj
 0001:0026ec45       __open                     0066fc45 f   LIBCMT:open.obj
 0001:0026ecfb       __sopen_helper             0066fcfb f   LIBCMT:open.obj
 0001:0026edc7       __sopen                    0066fdc7 f   LIBCMT:open.obj
 0001:0026edf9       __sopen_s                  0066fdf9 f   LIBCMT:open.obj
 0001:0026ee19       __mbsnbicmp_l              0066fe19 f   LIBCMT:mbsnbicm.obj
 0001:0026f044       __mbsnbicmp                00670044 f   LIBCMT:mbsnbicm.obj
 0001:0026f05e       __mbsnbcmp_l               0067005e f   LIBCMT:mbsnbcmp.obj
 0001:0026f1c8       __mbsnbcmp                 006701c8 f   LIBCMT:mbsnbcmp.obj
 0001:0026f1e4       __global_unwind2           006701e4 f   LIBCMT:exsup.obj
 0001:0026f249       __local_unwind2            00670249 f   LIBCMT:exsup.obj
 0001:0026f2cd       __abnormal_termination     006702cd f   LIBCMT:exsup.obj
 0001:0026f2f0       __NLG_Notify1              006702f0 f   LIBCMT:exsup.obj
 0001:0026f2f9       __NLG_Notify               006702f9 f   LIBCMT:exsup.obj
 0001:0026f310       __NLG_Dispatch2            00670310     LIBCMT:exsup.obj
 0001:0026f310       __NLG_Dispatch             00670310     LIBCMT:exsup.obj
 0001:0026f318       __NLG_Call                 00670318 f   LIBCMT:exsup.obj
 0001:0026f31a       __NLG_Return2              0067031a     LIBCMT:exsup.obj
 0001:0026f4d5       ___crtGetStringTypeA       006704d5 f   LIBCMT:a_str.obj
 0001:0026f517       ___pwctype_func            00670517 f   LIBCMT:ctype.obj
 0001:0026f51d       ___pctype_func             0067051d f   LIBCMT:ctype.obj
 0001:0026f961       ___free_lc_time            00670961 f   LIBCMT:inittime.obj
 0001:0026faf6       ___init_time               00670af6 f   LIBCMT:inittime.obj
 0001:0026fba2       ___free_lconv_num          00670ba2 f   LIBCMT:initnum.obj
 0001:0026fbe7       ___init_numeric            00670be7 f   LIBCMT:initnum.obj
 0001:0026fde4       ___free_lconv_mon          00670de4 f   LIBCMT:initmon.obj
 0001:0026fe72       ___init_monetary           00670e72 f   LIBCMT:initmon.obj
 0001:00270138       ___init_ctype              00671138 f   LIBCMT:initctyp.obj
 0001:002704da       ____mb_cur_max_func        006714da f   LIBCMT:initctyp.obj
 0001:00270503       ____mb_cur_max_l_func      00671503 f   LIBCMT:initctyp.obj
 0001:0027051f       ____lc_codepage_func       0067151f f   LIBCMT:initctyp.obj
 0001:00270545       ____lc_collate_cp_func     00671545 f   LIBCMT:initctyp.obj
 0001:0027056b       ____lc_handle_func         0067156b f   LIBCMT:initctyp.obj
 0001:00270591       ___init_collate            00671591 f   LIBCMT:initcoll.obj
 0001:00270594       _localeconv                00671594 f   LIBCMT:lconv.obj
 0001:002705c0       _strcmp                    006715c0 f   LIBCMT:strcmp.obj
 0001:00270c43       ___get_qualified_locale    00671c43 f   LIBCMT:getqloc.obj
 0001:002723aa       _memcmp                    006733aa f   LIBCMT:memcmp.obj
 0001:00273a30       _strpbrk                   00674a30 f   LIBCMT:strpbrk.obj
 0001:00273a70       ___ansicp                  00674a70 f   LIBCMT:convrtcp.obj
 0001:00273ab9       ___convertcp               00674ab9 f   LIBCMT:convrtcp.obj
 0001:00273c6d       __iswctype_l               00674c6d f   LIBCMT:iswctype.obj
 0001:00273cf7       _iswctype                  00674cf7 f   LIBCMT:iswctype.obj
 0001:00273d6d       _is_wctype                 00674d6d f   LIBCMT:iswctype.obj
 0001:00274106       ___crtCompareStringA       00675106 f   LIBCMT:a_cmp.obj
 0001:00274148       __strnicoll_l              00675148 f   LIBCMT:strnicol.obj
 0001:00274242       __strnicoll                00675242 f   LIBCMT:strnicol.obj
 0001:00274317       ___crtsetenv               00675317 f   LIBCMT:setenv.obj
 0001:00274562       ___initconin               00675562 f   LIBCMT:initcon.obj
 0001:00274581       ___initconout              00675581 f   LIBCMT:initcon.obj
 0001:002745a0       ___termcon                 006755a0 f   LIBCMT:initcon.obj
 0001:002745cd       _wcslen                    006755cd f   LIBCMT:wcslen.obj
 0001:002745e7       __filbuf                   006755e7 f   LIBCMT:_filbuf.obj
 0001:00274712       __ungetc_nolock            00675712 f   LIBCMT:ungetc.obj
 0001:00274803       _ungetc                    00675803 f   LIBCMT:ungetc.obj
 0001:00274875       ___addl                    00675875 f i LIBCMT:_intrncvt_.obj
 0001:00274899       __ZeroTail                 00675899 f i LIBCMT:_intrncvt_.obj
 0001:002748e2       __IncMan                   006758e2 f i LIBCMT:_intrncvt_.obj
 0001:0027494f       __RoundMan                 0067594f f i LIBCMT:_intrncvt_.obj
 0001:00274a3f       __CopyMan                  00675a3f f i LIBCMT:_intrncvt_.obj
 0001:00274a5e       __FillZeroMan              00675a5e f i LIBCMT:_intrncvt_.obj
 0001:00274a6f       __IsZeroMan                00675a6f f i LIBCMT:_intrncvt_.obj
 0001:00274a8e       __ShrMan                   00675a8e f i LIBCMT:_intrncvt_.obj
 0001:00274b28       __ld12cvt                  00675b28 f i LIBCMT:_intrncvt_.obj
 0001:00275053       __ld12tod                  00676053 f   LIBCMT:_intrncvt_.obj
 0001:00275597       __ld12tof                  00676597 f   LIBCMT:_intrncvt_.obj
 0001:00275adb       __ld12told                 00676adb f   LIBCMT:_intrncvt_.obj
 0001:00275ba2       ___shl_12                  00676ba2 f i LIBCMT:_strgtold_.obj
 0001:00275bd5       ___shr_12                  00676bd5 f i LIBCMT:_strgtold_.obj
 0001:00275c07       ___ld12mul                 00676c07 f i LIBCMT:_strgtold_.obj
 0001:00275e82       ___multtenpow12            00676e82 f i LIBCMT:_strgtold_.obj
 0001:00276187       ___strgtold12_l            00677187 f   LIBCMT:_strgtold_.obj
 0001:0027687f       ___STRINGTOLD_L            0067787f f   LIBCMT:_strgtold_.obj
 0001:002768da       ___add_12                  006778da f i LIBCMT:_x10fout_.obj
 0001:0027694b       _$I10_OUTPUT               0067794b f   LIBCMT:_x10fout_.obj
 0001:0027726f       __chsize_nolock            0067826f f   LIBCMT:chsize.obj
 0001:00277425       __chsize_s                 00678425 f   LIBCMT:chsize.obj
 0001:00277512       __chsize                   00678512 f   LIBCMT:chsize.obj
 0001:0027752e       __read_nolock              0067852e f   LIBCMT:read.obj
 0001:00277af0       __read                     00678af0 f   LIBCMT:read.obj
 0001:00277bed       __lseek_nolock             00678bed f   LIBCMT:lseek.obj
 0001:00277c62       __lseek                    00678c62 f   LIBCMT:lseek.obj
 0001:00277d3e       __setmode_nolock           00678d3e f   LIBCMT:setmode.obj
 0001:00277dfa       __set_fmode                00678dfa f   LIBCMT:setmode.obj
 0001:00277e46       __get_fmode                00678e46 f   LIBCMT:setmode.obj
 0001:00277e7f       __setmode                  00678e7f f   LIBCMT:setmode.obj
 0001:00277f76       __strnicmp_l               00678f76 f   LIBCMT:strnicmp.obj
 0001:00278068       __strnicmp                 00679068 f   LIBCMT:strnicmp.obj
 0001:002781a3       __itoa_s                   006791a3 f   LIBCMT:xtoas.obj
 0001:002781cd       __ltoa_s                   006791cd f   LIBCMT:xtoas.obj
 0001:002781f4       __ultoa_s                  006791f4 f   LIBCMT:xtoas.obj
 0001:00278306       __i64toa_s                 00679306 f   LIBCMT:xtoas.obj
 0001:0027833b       __ui64toa_s                0067933b f   LIBCMT:xtoas.obj
 0001:0027837d       ___crtGetStringTypeW       0067937d f   LIBCMT:w_str.obj
 0001:002783bb       __strdup                   006793bb f   LIBCMT:strdup.obj
 0001:00278410       __mbschr_l                 00679410 f   LIBCMT:mbschr.obj
 0001:002784cc       __mbschr                   006794cc f   LIBCMT:mbschr.obj
 0001:002784e3       ___mtold12                 006794e3 f   LIBCMT:_mantold_.obj
 0001:002786c0       ___ascii_strnicmp          006796c0 f   LIBCMT:_strnicm.obj
 0001:00278730       __intel_fast_memset.A      00679730 f   libirc:fastmemset.obj
 0001:00278750       __intel_fast_memset.J      00679750 f   libirc:fastmemset.obj
 0001:00278760       __intel_fast_memset.H      00679760 f   libirc:fastmemset.obj
 0001:00278770       __intel_fast_memset        00679770 f   libirc:fastmemset.obj
 0001:002787b0       __intel_fast_memcpy.A      006797b0 f   libirc:fastmemcpy.obj
 0001:002787d0       __intel_fast_memcpy.J      006797d0 f   libirc:fastmemcpy.obj
 0001:002787e0       __intel_fast_memcpy.H      006797e0 f   libirc:fastmemcpy.obj
 0001:002787f0       __intel_fast_memcpy        006797f0 f   libirc:fastmemcpy.obj
 0001:00278830       __intel_fast_memcmp        00679830 f   libirc:ia32_memcmp.obj
 0001:00278920       ___qtod                    00679920 f   libirc:q2fp.obj
 0001:00278c90       ___qtol                    00679c90 f   libirc:q2fp.obj
 0001:00278ee0       ___qtof                    00679ee0 f   libirc:q2fp.obj
 0001:00279150       ___qtoj                    0067a150 f   libirc:q2ints.obj
 0001:00279420       ___qtok                    0067a420 f   libirc:q2ints.obj
 0001:002795f0       ___qtoi                    0067a5f0 f   libirc:q2ints.obj
 0001:00279770       ___qtou                    0067a770 f   libirc:q2ints.obj
 0001:00279870       ___intel_f2int             0067a870 f   libirc:intel_f2int.obj
 0001:002798d0       ___intel_cpu_indicator_init 0067a8d0 f   libirc:cpu_disp.obj
 0001:00279aa0       _tbk_string_stack_signal   0067aaa0 f   libirc:tbk_display.obj
 0001:0027a230       _a_mulq                    0067b230 f   libirc:w_mulq.obj
 0001:0027a250       _a_divq                    0067b250 f   libirc:w_divq.obj
 0001:0027a270       ___intel_new_memset        0067b270 f   libirc:fast_memset.obj
 0001:0027acf0       ___intel_new_memcpy        0067bcf0 f   libirc:fast_memcpy.obj
 0001:0027c060       ___intel_new_proc_init     0067d060 f   libirc:proc_init.obj
 0001:0027c090       ___intel_new_proc_init.H   0067d090 f   libirc:proc_init.obj
 0001:0027c170       ___intel_new_proc_init.A   0067d170 f   libirc:proc_init.obj
 0001:0027c180       ___intel_proc_init         0067d180 f   libirc:proc_init.obj
 0001:0027c1b0       ___intel_proc_init.H       0067d1b0 f   libirc:proc_init.obj
 0001:0027c230       ___intel_proc_init.A       0067d230 f   libirc:proc_init.obj
 0001:0027c240       ___intel_new_proc_init_G   0067d240 f   libirc:proc_init.obj
 0001:0027c270       ___intel_new_proc_init_G.R 0067d270 f   libirc:proc_init.obj
 0001:0027c2d0       ___intel_new_proc_init_G.A 0067d2d0 f   libirc:proc_init.obj
 0001:0027c330       ___intel_new_proc_init_H   0067d330 f   libirc:proc_init.obj
 0001:0027c360       ___intel_new_proc_init_H.P 0067d360 f   libirc:proc_init.obj
 0001:0027c3c0       ___intel_new_proc_init_H.A 0067d3c0 f   libirc:proc_init.obj
 0001:0027c420       ___intel_new_proc_init_L   0067d420 f   libirc:proc_init.obj
 0001:0027c460       ___intel_new_proc_init_L.O 0067d460 f   libirc:proc_init.obj
 0001:0027c530       ___intel_new_proc_init_L.M 0067d530 f   libirc:proc_init.obj
 0001:0027c5d0       ___intel_new_proc_init_L.A 0067d5d0 f   libirc:proc_init.obj
 0001:0027c630       ___intel_new_proc_init_S   0067d630 f   libirc:proc_init.obj
 0001:0027c660       ___intel_new_proc_init_S.N 0067d660 f   libirc:proc_init.obj
 0001:0027c730       ___intel_new_proc_init_S.A 0067d730 f   libirc:proc_init.obj
 0001:0027c790       ___intel_new_proc_init_T   0067d790 f   libirc:proc_init.obj
 0001:0027c7c0       ___intel_new_proc_init_T.M 0067d7c0 f   libirc:proc_init.obj
 0001:0027c890       ___intel_new_proc_init_T.A 0067d890 f   libirc:proc_init.obj
 0001:0027c8f0       ___intel_proc_init_T       0067d8f0 f   libirc:proc_init.obj
 0001:0027c920       ___intel_proc_init_T.M     0067d920 f   libirc:proc_init.obj
 0001:0027c950       ___intel_proc_init_T.A     0067d950 f   libirc:proc_init.obj
 0001:0027c9b0       ___intel_new_proc_init_P   0067d9b0 f   libirc:proc_init.obj
 0001:0027c9e0       ___intel_new_proc_init_P.L 0067d9e0 f   libirc:proc_init.obj
 0001:0027cab0       ___intel_new_proc_init_P.A 0067dab0 f   libirc:proc_init.obj
 0001:0027cb10       ___intel_proc_init_P       0067db10 f   libirc:proc_init.obj
 0001:0027cb40       ___intel_proc_init_P.L     0067db40 f   libirc:proc_init.obj
 0001:0027cb70       ___intel_proc_init_P.A     0067db70 f   libirc:proc_init.obj
 0001:0027cbd0       ___intel_new_proc_init_B   0067dbd0 f   libirc:proc_init.obj
 0001:0027cc20       ___intel_new_proc_init_B.L 0067dc20 f   libirc:proc_init.obj
 0001:0027ccf0       ___intel_new_proc_init_B.K 0067dcf0 f   libirc:proc_init.obj
 0001:0027cdc0       ___intel_new_proc_init_B.J 0067ddc0 f   libirc:proc_init.obj
 0001:0027cea0       ___intel_new_proc_init_B.A 0067dea0 f   libirc:proc_init.obj
 0001:0027cf00       ___intel_proc_init_B       0067df00 f   libirc:proc_init.obj
 0001:0027cf50       ___intel_proc_init_B.L     0067df50 f   libirc:proc_init.obj
 0001:0027cf80       ___intel_proc_init_B.K     0067df80 f   libirc:proc_init.obj
 0001:0027cfb0       ___intel_proc_init_B.J     0067dfb0 f   libirc:proc_init.obj
 0001:0027d030       ___intel_proc_init_B.A     0067e030 f   libirc:proc_init.obj
 0001:0027d090       ___intel_new_proc_init_N   0067e090 f   libirc:proc_init.obj
 0001:0027d0e0       ___intel_new_proc_init_N.L 0067e0e0 f   libirc:proc_init.obj
 0001:0027d1b0       ___intel_new_proc_init_N.K 0067e1b0 f   libirc:proc_init.obj
 0001:0027d280       ___intel_new_proc_init_N.J 0067e280 f   libirc:proc_init.obj
 0001:0027d360       ___intel_new_proc_init_N.A 0067e360 f   libirc:proc_init.obj
 0001:0027d3c0       ___intel_proc_init_N       0067e3c0 f   libirc:proc_init.obj
 0001:0027d410       ___intel_proc_init_N.L     0067e410 f   libirc:proc_init.obj
 0001:0027d440       ___intel_proc_init_N.K     0067e440 f   libirc:proc_init.obj
 0001:0027d470       ___intel_proc_init_N.J     0067e470 f   libirc:proc_init.obj
 0001:0027d4f0       ___intel_proc_init_N.A     0067e4f0 f   libirc:proc_init.obj
 0001:0027d550       _tbk_getPC                 0067e550 f   libirc:tbk_backtrace.obj
 0001:0027d560       _tbk_getRetAddr            0067e560 f   libirc:tbk_backtrace.obj
 0001:0027d570       _tbk_getFramePtr           0067e570 f   libirc:tbk_backtrace.obj
 0001:0027d580       _tbk_getSP                 0067e580 f   libirc:tbk_backtrace.obj
 0001:0027d590       _tbk_getBStore             0067e590 f   libirc:tbk_backtrace.obj
 0001:0027d5a0       _tbk_getModuleName         0067e5a0 f   libirc:tbk_backtrace.obj
 0001:0027d650       _tbk_get_pc_info           0067e650 f   libirc:tbk_backtrace.obj
 0001:0027dda0       _tbk_geterrorstring        0067eda0 f   libirc:tbk_backtrace.obj
 0001:0027ddb0       _tbk_trace_stack           0067edb0 f   libirc:tbk_backtrace.obj
 0001:0027e130       ___mulq.J                  0067f130 f   libirc:ia32_mulq.obj
 0001:0027f2b0       ___mulq.A                  006802b0 f   libirc:ia32_mulq.obj
 0001:00280560       ___mulq                    00681560 f   libirc:ia32_mulq.obj
 0001:00280590       ___divq.J                  00681590 f   libirc:ia32_divq.obj
 0001:00281fe0       ___divq.A                  00682fe0 f   libirc:ia32_divq.obj
 0001:00283a50       ___divq                    00684a50 f   libirc:ia32_divq.obj
 0001:00283a80       _get_mem_ops_method        00684a80 f   libirc:fast_mem_ops.obj
 0001:00283aa0       _set_memcpy_largest_cache_size 00684aa0 f   libirc:fast_mem_ops.obj
 0001:00283ad0       _set_memcpy_largest_cachelinesize 00684ad0 f   libirc:fast_mem_ops.obj
 0001:00283b00       _get_memcpy_largest_cache_size 00684b00 f   libirc:fast_mem_ops.obj
 0001:00283b20       _get_memcpy_largest_cachelinesize 00684b20 f   libirc:fast_mem_ops.obj
 0001:00283b40       _init_mem_ops_method       00684b40 f   libirc:fast_mem_ops.obj
 0001:00283d30       _override_mem_ops_method   00684d30 f   libirc:fast_mem_ops.obj
 0001:00283d70       _irc__get_msg              00684d70 f   libirc:irc_msg_support.obj
 0001:00283eb0       _irc__print                00684eb0 f   libirc:irc_msg_support.obj
 0001:00284040       _NF_STRERROR@12            00685040 f   netcdf:netcdf.dll
 0001:00284046       _NF_OPEN@16                00685046 f   netcdf:netcdf.dll
 0001:0028404c       _NF_INQ_VARID@16           0068504c f   netcdf:netcdf.dll
 0001:00284052       _NF_INQ_VARDIMID@12        00685052 f   netcdf:netcdf.dll
 0001:00284058       _NF_INQ_DIMLEN@12          00685058 f   netcdf:netcdf.dll
 0001:0028405e       _NF_GET_VAR_REAL@12        0068505e f   netcdf:netcdf.dll
 0001:00284064       _NF_INQ_ATTLEN@20          00685064 f   netcdf:netcdf.dll
 0001:0028406a       _NF_GET_ATT_INT@20         0068506a f   netcdf:netcdf.dll
 0001:00284070       _NF_CLOSE@4                00685070 f   netcdf:netcdf.dll
 0001:00284076       _NF_GET_VARA_REAL@20       00685076 f   netcdf:netcdf.dll
 0001:0028407c       _NF_GET_VARM_DOUBLE@28     0068507c f   netcdf:netcdf.dll
 0001:00284082       _NF_GET_VARS_DOUBLE@24     00685082 f   netcdf:netcdf.dll
 0001:00284088       _NF_GET_VARA_DOUBLE@20     00685088 f   netcdf:netcdf.dll
 0001:0028408e       _NF_GET_VARM_REAL@28       0068508e f   netcdf:netcdf.dll
 0001:00284094       _NF_GET_VARS_REAL@24       00685094 f   netcdf:netcdf.dll
 0001:0028409a       _NF_GET_VARM_INT1@28       0068509a f   netcdf:netcdf.dll
 0001:002840a0       _NF_GET_VARS_INT2@24       006850a0 f   netcdf:netcdf.dll
 0001:002840a6       _NF_GET_VARA_INT@20        006850a6 f   netcdf:netcdf.dll
 0001:002840ac       _NF_GET_VARM_INT2@28       006850ac f   netcdf:netcdf.dll
 0001:002840b2       _NF_GET_VARA_INT2@20       006850b2 f   netcdf:netcdf.dll
 0001:002840b8       _NF_GET_VARS_INT1@24       006850b8 f   netcdf:netcdf.dll
 0001:002840be       _NF_GET_VARA_INT1@20       006850be f   netcdf:netcdf.dll
 0001:002840c4       _NF_PUT_VARM_DOUBLE@28     006850c4 f   netcdf:netcdf.dll
 0001:002840ca       _NF_PUT_VARS_DOUBLE@24     006850ca f   netcdf:netcdf.dll
 0001:002840d0       _NF_PUT_VARA_DOUBLE@20     006850d0 f   netcdf:netcdf.dll
 0001:002840d6       _NF_PUT_VARM_REAL@28       006850d6 f   netcdf:netcdf.dll
 0001:002840dc       _NF_PUT_VARS_REAL@24       006850dc f   netcdf:netcdf.dll
 0001:002840e2       _NF_PUT_VARA_REAL@20       006850e2 f   netcdf:netcdf.dll
 0001:002840e8       _NF_PUT_VARM_INT@28        006850e8 f   netcdf:netcdf.dll
 0001:002840ee       _NF_PUT_VARS_INT@24        006850ee f   netcdf:netcdf.dll
 0001:002840f4       _NF_PUT_VARA_INT@20        006850f4 f   netcdf:netcdf.dll
 0001:002840fa       _NF_PUT_VARM_INT2@28       006850fa f   netcdf:netcdf.dll
 0001:00284100       _NF_PUT_VARS_INT2@24       00685100 f   netcdf:netcdf.dll
 0001:00284106       _NF_PUT_VARA_INT2@20       00685106 f   netcdf:netcdf.dll
 0001:0028410c       _NF_PUT_VARM_INT1@28       0068510c f   netcdf:netcdf.dll
 0001:00284112       _NF_PUT_VARS_INT1@24       00685112 f   netcdf:netcdf.dll
 0001:00284118       _NF_PUT_VARA_INT1@20       00685118 f   netcdf:netcdf.dll
 0001:0028411e       _NF_GET_VAR1_DOUBLE@16     0068511e f   netcdf:netcdf.dll
 0001:00284124       _NF_GET_VAR1_REAL@16       00685124 f   netcdf:netcdf.dll
 0001:0028412a       _NF_GET_VAR1_INT@16        0068512a f   netcdf:netcdf.dll
 0001:00284130       _NF_GET_VAR1_INT2@16       00685130 f   netcdf:netcdf.dll
 0001:00284136       _NF_GET_VAR1_INT1@16       00685136 f   netcdf:netcdf.dll
 0001:0028413c       _NF_PUT_VAR1_DOUBLE@16     0068513c f   netcdf:netcdf.dll
 0001:00284142       _NF_PUT_VAR1_REAL@16       00685142 f   netcdf:netcdf.dll
 0001:00284148       _NF_PUT_VAR1_INT@16        00685148 f   netcdf:netcdf.dll
 0001:0028414e       _NF_PUT_VAR1_INT2@16       0068514e f   netcdf:netcdf.dll
 0001:00284154       _NF_PUT_VAR1_INT1@16       00685154 f   netcdf:netcdf.dll
 0001:0028415a       _NF_GET_VARM_TEXT@32       0068515a f   netcdf:netcdf.dll
 0001:00284160       _NF_GET_VARS_TEXT@28       00685160 f   netcdf:netcdf.dll
 0001:00284166       _NF_PUT_VARM_TEXT@32       00685166 f   netcdf:netcdf.dll
 0001:0028416c       _NF_PUT_VARS_TEXT@28       0068516c f   netcdf:netcdf.dll
 0001:00284172       _NF_RENAME_VAR@16          00685172 f   netcdf:netcdf.dll
 0001:00284178       _NF_INQ_VAR@32             00685178 f   netcdf:netcdf.dll
 0001:0028417e       _NF_DEF_VAR@28             0068517e f   netcdf:netcdf.dll
 0001:00284184       _NF_GET_ATT_DOUBLE@20      00685184 f   netcdf:netcdf.dll
 0001:0028418a       _NF_PUT_ATT_DOUBLE@28      0068518a f   netcdf:netcdf.dll
 0001:00284190       _NF_GET_ATT_REAL@20        00685190 f   netcdf:netcdf.dll
 0001:00284196       _NF_PUT_ATT_REAL@28        00685196 f   netcdf:netcdf.dll
 0001:0028419c       _NF_PUT_ATT_INT@28         0068519c f   netcdf:netcdf.dll
 0001:002841a2       _NF_GET_ATT_INT2@20        006851a2 f   netcdf:netcdf.dll
 0001:002841a8       _NF_PUT_ATT_INT2@28        006851a8 f   netcdf:netcdf.dll
 0001:002841ae       _NF_GET_ATT_INT1@20        006851ae f   netcdf:netcdf.dll
 0001:002841b4       _NF_PUT_ATT_INT1@28        006851b4 f   netcdf:netcdf.dll
 0001:002841ba       _NF_GET_ATT_TEXT@24        006851ba f   netcdf:netcdf.dll
 0001:002841c0       _NF_PUT_ATT_TEXT@28        006851c0 f   netcdf:netcdf.dll
 0001:002841c6       _NF_INQ_ATTID@20           006851c6 f   netcdf:netcdf.dll
 0001:002841cc       _NF_INQ_ATT@24             006851cc f   netcdf:netcdf.dll
 0001:002841d2       _NF_INQ_ATTNAME@20         006851d2 f   netcdf:netcdf.dll
 0001:002841d8       _NF_DEL_ATT@16             006851d8 f   netcdf:netcdf.dll
 0001:002841de       _NF_RENAME_ATT@24          006851de f   netcdf:netcdf.dll
 0001:002841e4       _NF_COPY_ATT@24            006851e4 f   netcdf:netcdf.dll
 0001:002841ea       _NF_INQ_DIM@20             006851ea f   netcdf:netcdf.dll
 0001:002841f0       _NF_RENAME_DIM@16          006851f0 f   netcdf:netcdf.dll
 0001:002841f6       _NF_INQ_DIMID@16           006851f6 f   netcdf:netcdf.dll
 0001:002841fc       _NF_DEF_DIM@20             006851fc f   netcdf:netcdf.dll
 0001:00284202       _NF_INQ@20                 00685202 f   netcdf:netcdf.dll
 0001:00284208       _NF_DELETE@8               00685208 f   netcdf:netcdf.dll
 0001:0028420e       _NF_SYNC@4                 0068520e f   netcdf:netcdf.dll
 0001:00284214       _NF__ENDDEF@20             00685214 f   netcdf:netcdf.dll
 0001:0028421a       _NF_ENDDEF@4               0068521a f   netcdf:netcdf.dll
 0001:00284220       _NF_REDEF@4                00685220 f   netcdf:netcdf.dll
 0001:00284226       _NF_SET_FILL@12            00685226 f   netcdf:netcdf.dll
 0001:0028422c       _NF__OPEN_MP@24            0068522c f   netcdf:netcdf.dll
 0001:00284232       _NF__OPEN@20               00685232 f   netcdf:netcdf.dll
 0001:00284238       _NF__CREATE_MP@28          00685238 f   netcdf:netcdf.dll
 0001:0028423e       _NF__CREATE@24             0068523e f   netcdf:netcdf.dll
 0001:00284244       _NF_CREATE@16              00685244 f   netcdf:netcdf.dll
 0001:0028424a       _NF_SET_BASE_PE@8          0068524a f   netcdf:netcdf.dll
 0001:00284250       _NF_INQ_BASE_PE@8          00685250 f   netcdf:netcdf.dll
 0001:00284256       _NF_INQ_LIBVERS@8          00685256 f   netcdf:netcdf.dll
 0001:0028425c       _NF_ABORT@4                0068525c f   netcdf:netcdf.dll
 0001:00284262       _GetFileType@4             00685262 f   kernel32:KERNEL32.dll
 0001:00284268       _GetLastError@0            00685268 f   kernel32:KERNEL32.dll
 0001:0028426e       _SetFilePointer@16         0068526e f   kernel32:KERNEL32.dll
 0001:00284274       _WriteFile@20              00685274 f   kernel32:KERNEL32.dll
 0001:0028427a       _VirtualAlloc@16           0068527a f   kernel32:KERNEL32.dll
 0001:00284280       _VirtualFree@12            00685280 f   kernel32:KERNEL32.dll
 0001:00284286       _EnterCriticalSection@4    00685286 f   kernel32:KERNEL32.dll
 0001:0028428c       _LeaveCriticalSection@4    0068528c f   kernel32:KERNEL32.dll
 0001:00284292       _GetFileAttributesExA@12   00685292 f   kernel32:KERNEL32.dll
 0001:00284298       _GetFileSize@8             00685298 f   kernel32:KERNEL32.dll
 0001:0028429e       _GetFileAttributesA@4      0068529e f   kernel32:KERNEL32.dll
 0001:002842a4       _FileTimeToLocalFileTime@8 006852a4 f   kernel32:KERNEL32.dll
 0001:002842aa       _GetLocalTime@4            006852aa f   kernel32:KERNEL32.dll
 0001:002842b0       _SystemTimeToFileTime@8    006852b0 f   kernel32:KERNEL32.dll
 0001:002842b6       _CloseHandle@4             006852b6 f   kernel32:KERNEL32.dll
 0001:002842bc       _InterlockedExchange@8     006852bc f   kernel32:KERNEL32.dll
 0001:002842c2       _Sleep@4                   006852c2 f   kernel32:KERNEL32.dll
 0001:002842c8       _TlsGetValue@4             006852c8 f   kernel32:KERNEL32.dll
 0001:002842ce       _TlsSetValue@8             006852ce f   kernel32:KERNEL32.dll
 0001:002842d4       _TlsFree@4                 006852d4 f   kernel32:KERNEL32.dll
 0001:002842da       _TlsAlloc@0                006852da f   kernel32:KERNEL32.dll
 0001:002842e0       _SetLastError@4            006852e0 f   kernel32:KERNEL32.dll
 0001:002842e6       _WaitForSingleObject@8     006852e6 f   kernel32:KERNEL32.dll
 0001:002842ec       _SetEndOfFile@4            006852ec f   kernel32:KERNEL32.dll
 0001:002842f2       _ReleaseMutex@4            006852f2 f   kernel32:KERNEL32.dll
 0001:002842f8       _CreateMutexA@12           006852f8 f   kernel32:KERNEL32.dll
 0001:002842fe       _GetCurrentThreadId@0      006852fe f   kernel32:KERNEL32.dll
 0001:00284304       _GetStdHandle@4            00685304 f   kernel32:KERNEL32.dll
 0001:0028430a       _GetThreadLocale@0         0068530a f   kernel32:KERNEL32.dll
 0001:00284310       _LoadLibraryA@4            00685310 f   kernel32:KERNEL32.dll
 0001:00284316       _FormatMessageA@28         00685316 f   kernel32:KERNEL32.dll
 0001:0028431c       _IsDebuggerPresent@0       0068531c f   kernel32:KERNEL32.dll
 0001:00284322       _GetModuleHandleA@4        00685322 f   kernel32:KERNEL32.dll
 0001:00284328       _GetProcAddress@8          00685328 f   kernel32:KERNEL32.dll
 0001:0028432e       _CreateFileA@28            0068532e f   kernel32:KERNEL32.dll
 0001:00284334       _FreeLibrary@4             00685334 f   kernel32:KERNEL32.dll
 0001:0028433a       _DeleteCriticalSection@4   0068533a f   kernel32:KERNEL32.dll
 0001:00284340       _InitializeCriticalSection@4 00685340 f   kernel32:KERNEL32.dll
 0001:00284346       _TerminateThread@8         00685346 f   kernel32:KERNEL32.dll
 0001:0028434c       _SetEvent@4                0068534c f   kernel32:KERNEL32.dll
 0001:00284352       _ExitThread@4              00685352 f   kernel32:KERNEL32.dll
 0001:00284358       _CreateEventA@16           00685358 f   kernel32:KERNEL32.dll
 0001:0028435e       _CreateThread@24           0068535e f   kernel32:KERNEL32.dll
 0001:00284364       _OpenFileMappingA@12       00685364 f   kernel32:KERNEL32.dll
 0001:0028436a       _CreateFileMappingA@24     0068536a f   kernel32:KERNEL32.dll
 0001:00284370       _MapViewOfFile@20          00685370 f   kernel32:KERNEL32.dll
 0001:00284376       _IsBadReadPtr@8            00685376 f   kernel32:KERNEL32.dll
 0001:0028437c       _GetHandleInformation@8    0068537c f   kernel32:KERNEL32.dll
 0001:00284382       _UnmapViewOfFile@4         00685382 f   kernel32:KERNEL32.dll
 0001:00284388       _GetFileInformationByHandle@8 00685388 f   kernel32:KERNEL32.dll
 0001:0028438e       _GetFullPathNameA@16       0068538e f   kernel32:KERNEL32.dll
 0001:00284394       _GetTempFileNameA@16       00685394 f   kernel32:KERNEL32.dll
 0001:0028439a       _GetTempPathA@8            0068539a f   kernel32:KERNEL32.dll
 0001:002843a0       _ReadFile@20               006853a0 f   kernel32:KERNEL32.dll
 0001:002843a6       _CreateProcessA@40         006853a6 f   kernel32:KERNEL32.dll
 0001:002843ac       _SetThreadPriority@8       006853ac f   kernel32:KERNEL32.dll
 0001:002843b2       _GetVersionExA@4           006853b2 f   kernel32:KERNEL32.dll
 0001:002843b8       _DeleteFileA@4             006853b8 f   kernel32:KERNEL32.dll
 0001:002843be       _SetConsoleCtrlHandler@8   006853be f   kernel32:KERNEL32.dll
 0001:002843c4       _GetACP@0                  006853c4 f   kernel32:KERNEL32.dll
 0001:002843ca       _GetCommandLineA@0         006853ca f   kernel32:KERNEL32.dll
 0001:002843d0       _SetErrorMode@4            006853d0 f   kernel32:KERNEL32.dll
 0001:002843d6       _FlushFileBuffers@4        006853d6 f   kernel32:KERNEL32.dll
 0001:002843dc       _HeapFree@12               006853dc f   kernel32:KERNEL32.dll
 0001:002843e2       _HeapReAlloc@16            006853e2 f   kernel32:KERNEL32.dll
 0001:002843e8       _HeapAlloc@12              006853e8 f   kernel32:KERNEL32.dll
 0001:002843ee       _GetModuleHandleW@4        006853ee f   kernel32:KERNEL32.dll
 0001:002843f4       _ExitProcess@4             006853f4 f   kernel32:KERNEL32.dll
 0001:002843fa       _UnhandledExceptionFilter@4 006853fa f   kernel32:KERNEL32.dll
 0001:00284400       _SetUnhandledExceptionFilter@4 00685400 f   kernel32:KERNEL32.dll
 0001:00284406       _GetSystemTimeAsFileTime@4 00685406 f   kernel32:KERNEL32.dll
 0001:0028440c       _GetTimeFormatA@24         0068540c f   kernel32:KERNEL32.dll
 0001:00284412       _GetDateFormatA@24         00685412 f   kernel32:KERNEL32.dll
 0001:00284418       _ResumeThread@4            00685418 f   kernel32:KERNEL32.dll
 0001:0028441e       _WideCharToMultiByte@32    0068541e f   kernel32:KERNEL32.dll
 0001:00284424       _GetConsoleCP@0            00685424 f   kernel32:KERNEL32.dll
 0001:0028442a       _GetConsoleMode@8          0068542a f   kernel32:KERNEL32.dll
 0001:00284430       _GetCurrentProcessId@0     00685430 f   kernel32:KERNEL32.dll
 0001:00284436       _SetStdHandle@8            00685436 f   kernel32:KERNEL32.dll
 0001:0028443c       _GetModuleFileNameA@12     0068543c f   kernel32:KERNEL32.dll
 0001:00284442       _FreeEnvironmentStringsA@4 00685442 f   kernel32:KERNEL32.dll
 0001:00284448       _GetEnvironmentStrings@0   00685448 f   kernel32:KERNEL32.dll
 0001:0028444e       _FreeEnvironmentStringsW@4 0068544e f   kernel32:KERNEL32.dll
 0001:00284454       _GetEnvironmentStringsW@0  00685454 f   kernel32:KERNEL32.dll
 0001:0028445a       _SetHandleCount@4          0068545a f   kernel32:KERNEL32.dll
 0001:00284460       _GetStartupInfoA@4         00685460 f   kernel32:KERNEL32.dll
 0001:00284466       _InterlockedIncrement@4    00685466 f   kernel32:KERNEL32.dll
 0001:0028446c       _InterlockedDecrement@4    0068546c f   kernel32:KERNEL32.dll
 0001:00284472       _GetCurrentThread@0        00685472 f   kernel32:KERNEL32.dll
 0001:00284478       _HeapCreate@12             00685478 f   kernel32:KERNEL32.dll
 0001:0028447e       _HeapDestroy@4             0068547e f   kernel32:KERNEL32.dll
 0001:00284484       _QueryPerformanceCounter@4 00685484 f   kernel32:KERNEL32.dll
 0001:0028448a       _GetTickCount@0            0068548a f   kernel32:KERNEL32.dll
 0001:00284490       _TerminateProcess@8        00685490 f   kernel32:KERNEL32.dll
 0001:00284496       _GetCurrentProcess@0       00685496 f   kernel32:KERNEL32.dll
 0001:0028449c       _FatalAppExitA@8           0068549c f   kernel32:KERNEL32.dll
 0001:002844a2       _InitializeCriticalSectionAndSpinCount@8 006854a2 f   kernel32:KERNEL32.dll
 0001:002844a8       _RtlUnwind@16              006854a8 f   kernel32:KERNEL32.dll
 0001:002844ae       _GetCPInfo@8               006854ae f   kernel32:KERNEL32.dll
 0001:002844b4       _GetOEMCP@0                006854b4 f   kernel32:KERNEL32.dll
 0001:002844ba       _IsValidCodePage@4         006854ba f   kernel32:KERNEL32.dll
 0001:002844c0       _LCMapStringA@24           006854c0 f   kernel32:KERNEL32.dll
 0001:002844c6       _MultiByteToWideChar@24    006854c6 f   kernel32:KERNEL32.dll
 0001:002844cc       _LCMapStringW@24           006854cc f   kernel32:KERNEL32.dll
 0001:002844d2       _HeapSize@12               006854d2 f   kernel32:KERNEL32.dll
 0001:002844d8       _GetTimeZoneInformation@4  006854d8 f   kernel32:KERNEL32.dll
 0001:002844de       _WriteConsoleA@20          006854de f   kernel32:KERNEL32.dll
 0001:002844e4       _GetConsoleOutputCP@0      006854e4 f   kernel32:KERNEL32.dll
 0001:002844ea       _WriteConsoleW@20          006854ea f   kernel32:KERNEL32.dll
 0001:002844f0       _GetLocaleInfoW@16         006854f0 f   kernel32:KERNEL32.dll
 0001:002844f6       _GetLocaleInfoA@16         006854f6 f   kernel32:KERNEL32.dll
 0001:002844fc       _GetStringTypeA@20         006854fc f   kernel32:KERNEL32.dll
 0001:00284502       _GetStringTypeW@16         00685502 f   kernel32:KERNEL32.dll
 0001:00284508       _GetUserDefaultLCID@0      00685508 f   kernel32:KERNEL32.dll
 0001:0028450e       _EnumSystemLocalesA@8      0068550e f   kernel32:KERNEL32.dll
 0001:00284514       _IsValidLocale@8           00685514 f   kernel32:KERNEL32.dll
 0001:0028451a       _CompareStringA@24         0068551a f   kernel32:KERNEL32.dll
 0001:00284520       _CompareStringW@24         00685520 f   kernel32:KERNEL32.dll
 0001:00284526       _SetEnvironmentVariableA@8 00685526 f   kernel32:KERNEL32.dll
 0001:0028452c       _GetProcessHeap@0          0068552c f   kernel32:KERNEL32.dll
 0001:00284532       _VirtualQuery@12           00685532 f   kernel32:KERNEL32.dll
 0001:00284538       _SymInitialize@12          00685538 f   ImageHlp:imagehlp.dll
 0001:0028453e       _SymCleanup@4              0068553e f   ImageHlp:imagehlp.dll
 0001:00284544       _StackWalk@36              00685544 f   ImageHlp:imagehlp.dll
 0001:00284550       __QWINGethWnd              00685550 f   ifconsol:for_m_console.obj
 0001:00284570       __QWINTGethFrame           00685570 f   ifconsol:for_m_console.obj
 0001:00284590       __QWINGetFocus             00685590 f   ifconsol:for_m_console.obj
 0001:002845b0       _ChangeQWINCP              006855b0 f   ifconsol:for_m_console.obj
 0001:002845c0       __QWINGetFileName          006855c0 f   ifconsol:for_m_console.obj
 0001:002845e0       __QWINGetTitle             006855e0 f   ifconsol:for_m_console.obj
 0001:00284600       __wgopen                   00685600 f   ifconsol:for_m_console.obj
 0001:00284620       __QWINClose                00685620 f   ifconsol:for_m_console.obj
 0001:00284640       __wgsetactive              00685640 f   ifconsol:for_m_console.obj
 0001:00284660       __wggetactive              00685660 f   ifconsol:for_m_console.obj
 0001:00284680       _RegisterGetHandleQQ       00685680 f   ifconsol:for_m_console.obj
 0001:00284690       _RegisterGetUnitQQ         00685690 f   ifconsol:for_m_console.obj
 0001:002846a0       __QWINWrite                006856a0 f   ifconsol:for_m_console.obj
 0001:002846c0       __QWINSetIOFOCUS           006856c0 f   ifconsol:for_m_console.obj
 0001:002846e0       __QWINRead                 006856e0 f   ifconsol:for_m_console.obj
 0001:00284700       _YIELDQQ                   00685700 f   ifconsol:for_m_console.obj
 0001:00284710       __QWINSetSize              00685710 f   ifconsol:for_m_console.obj
 0001:00284730       __QWINGetSize              00685730 f   ifconsol:for_m_console.obj
 0001:00284750       __QWINMsgBox               00685750 f   ifconsol:for_m_console.obj
 0001:00284770       __QWINRegisterEnd          00685770 f   ifconsol:for_m_console.obj
 0001:00284790       __inchar                   00685790 f   ifconsol:for_m_console.obj
 0001:002847b0       __QWINSetFocus             006857b0 f   ifconsol:for_m_console.obj
 0001:002847d0       __clearscreen              006857d0 f   ifconsol:for_m_console.obj
 0001:002847f0       __displaycursor            006857f0 f   ifconsol:for_m_console.obj
 0001:00284810       __scrolltextwindow         00685810 f   ifconsol:for_m_console.obj
 0001:00284830       __f_gettextposition        00685830 f   ifconsol:for_m_console.obj
 0001:00284850       __f_outtext                00685850 f   ifconsol:for_m_console.obj
 0001:00284870       __f_settextposition        00685870 f   ifconsol:for_m_console.obj
 0001:00284890       __QWINNiceExit             00685890 f   ifconsol:for_m_console.obj
 0001:002848b0       __QWINRegisterInit         006858b0 f   ifconsol:for_m_console.obj
 0001:002848d0       __QWINGetDefaultWindow     006858d0 f   ifconsol:for_m_console.obj
 0001:002848f0       _main                      006858f0 f   libifcoremt:for_main.obj
 0001:002849c0       _for__nt_handler_jacket    006859c0 f   libifcoremt:for_main.obj
 0001:002849c4       _for__nt_handler_jacket.   006859c4 f   libifcoremt:for_main.obj
 0001:00284ad0       _for__nt_user_handler_jacket 00685ad0 f   libifcoremt:for_main.obj
 0001:00284c30       _exception_dump            00685c30 f   libifcoremt:for_main.obj
 0001:00284c40       _strcpy                    00685c40 f   LIBCMT:strcat.obj
 0001:00284c50       _strcat                    00685c50 f   LIBCMT:strcat.obj
 0001:00284d40       _strncat                   00685d40 f   LIBCMT:strncat.obj
 0001:00285067       __splitpath                00686067 f   LIBCMT:splitpat.obj
 0001:002850bc       __except_handler3          006860bc f   LIBCMT:exsup3.obj
 0001:002851ba       __seh_longjmp_unwind@4     006861ba f   LIBCMT:exsup3.obj
 0001:002851d5       __AdjustLocation           006861d5 f   LIBCMT:_filter_.obj
 0001:002851f5       __IsMemoryLocation         006861f5 f   LIBCMT:_filter_.obj
 0001:0028520f       __GetFpRegVal              0068620f f   LIBCMT:_filter_.obj
 0001:0028523c       __SetTag                   0068623c f   LIBCMT:_filter_.obj
 0001:0028525f       __FillOperand              0068625f f   LIBCMT:_filter_.obj
 0001:002853ee       __AdjustStack              006863ee f   LIBCMT:_filter_.obj
 0001:002854d3       __PreventStackOverwrite    006864d3 f   LIBCMT:_filter_.obj
 0001:00285512       __SetFpRegVal              00686512 f   LIBCMT:_filter_.obj
 0001:0028557d       __UpdateResult             0068657d f   LIBCMT:_filter_.obj
 0001:0028569d       __UpdateFpCtxt             0068669d f   LIBCMT:_filter_.obj
 0001:002856d8       __fpieee_flt               006866d8 f   LIBCMT:_filter_.obj
 0001:00285d94       __mbsnbcpy_s               00686d94 f   LIBCMT:mbsnbcpy_s.obj
 0001:00285db1       _CallDestructExceptionObject 00686db1 f   LIBCMT:calldtor.obj
 0001:00285eb0       __ValidateEH3RN            00686eb0 f   LIBCMT:eh3valid.obj
 0001:002861f9       _LoadOperand               006871f9 f   LIBCMT:_filter_simd_.obj
 0001:002863e8       _LoadImm8                  006873e8 f   LIBCMT:_filter_simd_.obj
 0001:0028643c       _AdjustExceptionResult     0068743c f   LIBCMT:_filter_simd_.obj
 0001:00286600       _UpdateResult              00687600 f   LIBCMT:_filter_simd_.obj
 0001:00286730       _ValidateResult            00687730 f   LIBCMT:_filter_simd_.obj
 0001:00286783       _SetPniOperation           00687783 f   LIBCMT:_filter_simd_.obj
 0001:00286dfc       _LoopDppxSimdValue         00687dfc f   LIBCMT:_filter_simd_.obj
 0001:00287064       _DppxEmulationWrapper      00688064 f   LIBCMT:_filter_simd_.obj
 0001:00287214       _fpieee_flt_simd           00688214 f   LIBCMT:_filter_simd_.obj
 0001:00287da5       __mbsnbcpy_s_l             00688da5 f   LIBCMT:mbsnbcpy_s_l.obj
 0001:00287fb4       _fp64_is_qnan              00688fb4 f   LIBCMT:_xmmi2_fp_emul_.obj
 0001:00287fd9       _fp64_is_snan              00688fd9 f   LIBCMT:_xmmi2_fp_emul_.obj
 0001:0028800d       _fp64_is_inf               0068900d f   LIBCMT:_xmmi2_fp_emul_.obj
 0001:00288038       _fp64_is_zero              00689038 f   LIBCMT:_xmmi2_fp_emul_.obj
 0001:00288055       _fp64_is_denormal          00689055 f   LIBCMT:_xmmi2_fp_emul_.obj
 0001:0028807b       _RoundDoubleToIntegral     0068907b f   LIBCMT:_xmmi2_fp_emul_.obj
 0001:0028845d       _XMMI2_FP_Emulation        0068945d f   LIBCMT:_xmmi2_fp_emul_.obj
 0001:00289bb1       _fp32_is_qnan              0068abb1 f   LIBCMT:_xmmi_fp_emul_.obj
 0001:00289bd6       _fp32_is_snan              0068abd6 f   LIBCMT:_xmmi_fp_emul_.obj
 0001:00289c04       _fp32_is_inf               0068ac04 f   LIBCMT:_xmmi_fp_emul_.obj
 0001:00289c29       _fp32_is_zero              0068ac29 f   LIBCMT:_xmmi_fp_emul_.obj
 0001:00289c3c       _fp32_is_denormal          0068ac3c f   LIBCMT:_xmmi_fp_emul_.obj
 0001:00289c5c       _RoundFloatToIntegral      0068ac5c f   LIBCMT:_xmmi_fp_emul_.obj
 0001:00289f35       _XMMI_FP_Emulation         0068af35 f   LIBCMT:_xmmi_fp_emul_.obj
 0001:0028aec0       __allshl                   0068bec0 f   LIBCMT:llshl.obj
 0001:0028aee0       __CIsqrt                   0068bee0 f   libmmt:sqrt_msci.obj
 0001:0028aef0       __ftol2_sse                0068bef0 f   LIBCMT:ftol2.obj
 0001:0028aef9       __ftol2_pentium4           0068bef9 f   LIBCMT:ftol2.obj
 0001:0028af0c       __ftol2_sse_excpt          0068bf0c f   LIBCMT:ftol2.obj
 0001:0028af26       __ftol2                    0068bf26 f   LIBCMT:ftol2.obj
 0002:00000000       __VInfreq__tbk_trace_stack 0068c000     libirc:tbk_backtrace.obj
 0002:00000050       __VInfreq__main            0068c050     libifcoremt:for_main.obj
 0003:00000000       __imp__GetModuleHandleA@4  0068d000     kernel32:KERNEL32.dll
 0003:00000004       __imp__IsDebuggerPresent@0 0068d004     kernel32:KERNEL32.dll
 0003:00000008       __imp__FormatMessageA@28   0068d008     kernel32:KERNEL32.dll
 0003:0000000c       __imp__LoadLibraryA@4      0068d00c     kernel32:KERNEL32.dll
 0003:00000010       __imp__GetThreadLocale@0   0068d010     kernel32:KERNEL32.dll
 0003:00000014       __imp__GetStdHandle@4      0068d014     kernel32:KERNEL32.dll
 0003:00000018       __imp__GetCurrentThreadId@0 0068d018     kernel32:KERNEL32.dll
 0003:0000001c       __imp__CreateMutexA@12     0068d01c     kernel32:KERNEL32.dll
 0003:00000020       __imp__ReleaseMutex@4      0068d020     kernel32:KERNEL32.dll
 0003:00000024       __imp__SetEndOfFile@4      0068d024     kernel32:KERNEL32.dll
 0003:00000028       __imp__WaitForSingleObject@8 0068d028     kernel32:KERNEL32.dll
 0003:0000002c       __imp__SetLastError@4      0068d02c     kernel32:KERNEL32.dll
 0003:00000030       __imp__TlsAlloc@0          0068d030     kernel32:KERNEL32.dll
 0003:00000034       __imp__TlsFree@4           0068d034     kernel32:KERNEL32.dll
 0003:00000038       __imp__TlsSetValue@8       0068d038     kernel32:KERNEL32.dll
 0003:0000003c       __imp__TlsGetValue@4       0068d03c     kernel32:KERNEL32.dll
 0003:00000040       __imp__Sleep@4             0068d040     kernel32:KERNEL32.dll
 0003:00000044       __imp__InterlockedExchange@8 0068d044     kernel32:KERNEL32.dll
 0003:00000048       __imp__CloseHandle@4       0068d048     kernel32:KERNEL32.dll
 0003:0000004c       __imp__SystemTimeToFileTime@8 0068d04c     kernel32:KERNEL32.dll
 0003:00000050       __imp__GetLocalTime@4      0068d050     kernel32:KERNEL32.dll
 0003:00000054       __imp__FileTimeToLocalFileTime@8 0068d054     kernel32:KERNEL32.dll
 0003:00000058       __imp__GetFileAttributesA@4 0068d058     kernel32:KERNEL32.dll
 0003:0000005c       __imp__GetFileSize@8       0068d05c     kernel32:KERNEL32.dll
 0003:00000060       __imp__GetFileAttributesExA@12 0068d060     kernel32:KERNEL32.dll
 0003:00000064       __imp__LeaveCriticalSection@4 0068d064     kernel32:KERNEL32.dll
 0003:00000068       __imp__EnterCriticalSection@4 0068d068     kernel32:KERNEL32.dll
 0003:0000006c       __imp__VirtualFree@12      0068d06c     kernel32:KERNEL32.dll
 0003:00000070       __imp__VirtualAlloc@16     0068d070     kernel32:KERNEL32.dll
 0003:00000074       __imp__WriteFile@20        0068d074     kernel32:KERNEL32.dll
 0003:00000078       __imp__SetFilePointer@16   0068d078     kernel32:KERNEL32.dll
 0003:0000007c       __imp__GetLastError@0      0068d07c     kernel32:KERNEL32.dll
 0003:00000080       __imp__GetFileType@4       0068d080     kernel32:KERNEL32.dll
 0003:00000084       __imp__GetProcAddress@8    0068d084     kernel32:KERNEL32.dll
 0003:00000088       __imp__CreateFileA@28      0068d088     kernel32:KERNEL32.dll
 0003:0000008c       __imp__FreeLibrary@4       0068d08c     kernel32:KERNEL32.dll
 0003:00000090       __imp__DeleteCriticalSection@4 0068d090     kernel32:KERNEL32.dll
 0003:00000094       __imp__InitializeCriticalSection@4 0068d094     kernel32:KERNEL32.dll
 0003:00000098       __imp__TerminateThread@8   0068d098     kernel32:KERNEL32.dll
 0003:0000009c       __imp__SetEvent@4          0068d09c     kernel32:KERNEL32.dll
 0003:000000a0       __imp__ExitThread@4        0068d0a0     kernel32:KERNEL32.dll
 0003:000000a4       __imp__CreateEventA@16     0068d0a4     kernel32:KERNEL32.dll
 0003:000000a8       __imp__CreateThread@24     0068d0a8     kernel32:KERNEL32.dll
 0003:000000ac       __imp__OpenFileMappingA@12 0068d0ac     kernel32:KERNEL32.dll
 0003:000000b0       __imp__CreateFileMappingA@24 0068d0b0     kernel32:KERNEL32.dll
 0003:000000b4       __imp__MapViewOfFile@20    0068d0b4     kernel32:KERNEL32.dll
 0003:000000b8       __imp__IsBadReadPtr@8      0068d0b8     kernel32:KERNEL32.dll
 0003:000000bc       __imp__GetHandleInformation@8 0068d0bc     kernel32:KERNEL32.dll
 0003:000000c0       __imp__UnmapViewOfFile@4   0068d0c0     kernel32:KERNEL32.dll
 0003:000000c4       __imp__GetFileInformationByHandle@8 0068d0c4     kernel32:KERNEL32.dll
 0003:000000c8       __imp__GetFullPathNameA@16 0068d0c8     kernel32:KERNEL32.dll
 0003:000000cc       __imp__GetTempFileNameA@16 0068d0cc     kernel32:KERNEL32.dll
 0003:000000d0       __imp__GetTempPathA@8      0068d0d0     kernel32:KERNEL32.dll
 0003:000000d4       __imp__ReadFile@20         0068d0d4     kernel32:KERNEL32.dll
 0003:000000d8       __imp__CreateProcessA@40   0068d0d8     kernel32:KERNEL32.dll
 0003:000000dc       __imp__SetThreadPriority@8 0068d0dc     kernel32:KERNEL32.dll
 0003:000000e0       __imp__GetVersionExA@4     0068d0e0     kernel32:KERNEL32.dll
 0003:000000e4       __imp__DeleteFileA@4       0068d0e4     kernel32:KERNEL32.dll
 0003:000000e8       __imp__SetConsoleCtrlHandler@8 0068d0e8     kernel32:KERNEL32.dll
 0003:000000ec       __imp__GetACP@0            0068d0ec     kernel32:KERNEL32.dll
 0003:000000f0       __imp__GetCommandLineA@0   0068d0f0     kernel32:KERNEL32.dll
 0003:000000f4       __imp__SetErrorMode@4      0068d0f4     kernel32:KERNEL32.dll
 0003:000000f8       __imp__FlushFileBuffers@4  0068d0f8     kernel32:KERNEL32.dll
 0003:000000fc       __imp__HeapFree@12         0068d0fc     kernel32:KERNEL32.dll
 0003:00000100       __imp__HeapReAlloc@16      0068d100     kernel32:KERNEL32.dll
 0003:00000104       __imp__HeapAlloc@12        0068d104     kernel32:KERNEL32.dll
 0003:00000108       __imp__GetModuleHandleW@4  0068d108     kernel32:KERNEL32.dll
 0003:0000010c       __imp__ExitProcess@4       0068d10c     kernel32:KERNEL32.dll
 0003:00000110       __imp__UnhandledExceptionFilter@4 0068d110     kernel32:KERNEL32.dll
 0003:00000114       __imp__SetUnhandledExceptionFilter@4 0068d114     kernel32:KERNEL32.dll
 0003:00000118       __imp__GetSystemTimeAsFileTime@4 0068d118     kernel32:KERNEL32.dll
 0003:0000011c       __imp__GetTimeFormatA@24   0068d11c     kernel32:KERNEL32.dll
 0003:00000120       __imp__GetDateFormatA@24   0068d120     kernel32:KERNEL32.dll
 0003:00000124       __imp__ResumeThread@4      0068d124     kernel32:KERNEL32.dll
 0003:00000128       __imp__WideCharToMultiByte@32 0068d128     kernel32:KERNEL32.dll
 0003:0000012c       __imp__GetConsoleCP@0      0068d12c     kernel32:KERNEL32.dll
 0003:00000130       __imp__GetConsoleMode@8    0068d130     kernel32:KERNEL32.dll
 0003:00000134       __imp__GetCurrentProcessId@0 0068d134     kernel32:KERNEL32.dll
 0003:00000138       __imp__SetStdHandle@8      0068d138     kernel32:KERNEL32.dll
 0003:0000013c       __imp__GetModuleFileNameA@12 0068d13c     kernel32:KERNEL32.dll
 0003:00000140       __imp__FreeEnvironmentStringsA@4 0068d140     kernel32:KERNEL32.dll
 0003:00000144       __imp__GetEnvironmentStrings@0 0068d144     kernel32:KERNEL32.dll
 0003:00000148       __imp__FreeEnvironmentStringsW@4 0068d148     kernel32:KERNEL32.dll
 0003:0000014c       __imp__GetEnvironmentStringsW@0 0068d14c     kernel32:KERNEL32.dll
 0003:00000150       __imp__SetHandleCount@4    0068d150     kernel32:KERNEL32.dll
 0003:00000154       __imp__GetStartupInfoA@4   0068d154     kernel32:KERNEL32.dll
 0003:00000158       __imp__InterlockedIncrement@4 0068d158     kernel32:KERNEL32.dll
 0003:0000015c       __imp__InterlockedDecrement@4 0068d15c     kernel32:KERNEL32.dll
 0003:00000160       __imp__GetCurrentThread@0  0068d160     kernel32:KERNEL32.dll
 0003:00000164       __imp__HeapCreate@12       0068d164     kernel32:KERNEL32.dll
 0003:00000168       __imp__HeapDestroy@4       0068d168     kernel32:KERNEL32.dll
 0003:0000016c       __imp__QueryPerformanceCounter@4 0068d16c     kernel32:KERNEL32.dll
 0003:00000170       __imp__GetTickCount@0      0068d170     kernel32:KERNEL32.dll
 0003:00000174       __imp__TerminateProcess@8  0068d174     kernel32:KERNEL32.dll
 0003:00000178       __imp__GetCurrentProcess@0 0068d178     kernel32:KERNEL32.dll
 0003:0000017c       __imp__FatalAppExitA@8     0068d17c     kernel32:KERNEL32.dll
 0003:00000180       __imp__InitializeCriticalSectionAndSpinCount@8 0068d180     kernel32:KERNEL32.dll
 0003:00000184       __imp__RtlUnwind@16        0068d184     kernel32:KERNEL32.dll
 0003:00000188       __imp__GetCPInfo@8         0068d188     kernel32:KERNEL32.dll
 0003:0000018c       __imp__GetOEMCP@0          0068d18c     kernel32:KERNEL32.dll
 0003:00000190       __imp__IsValidCodePage@4   0068d190     kernel32:KERNEL32.dll
 0003:00000194       __imp__LCMapStringA@24     0068d194     kernel32:KERNEL32.dll
 0003:00000198       __imp__MultiByteToWideChar@24 0068d198     kernel32:KERNEL32.dll
 0003:0000019c       __imp__LCMapStringW@24     0068d19c     kernel32:KERNEL32.dll
 0003:000001a0       __imp__HeapSize@12         0068d1a0     kernel32:KERNEL32.dll
 0003:000001a4       __imp__GetTimeZoneInformation@4 0068d1a4     kernel32:KERNEL32.dll
 0003:000001a8       __imp__WriteConsoleA@20    0068d1a8     kernel32:KERNEL32.dll
 0003:000001ac       __imp__GetConsoleOutputCP@0 0068d1ac     kernel32:KERNEL32.dll
 0003:000001b0       __imp__WriteConsoleW@20    0068d1b0     kernel32:KERNEL32.dll
 0003:000001b4       __imp__GetLocaleInfoW@16   0068d1b4     kernel32:KERNEL32.dll
 0003:000001b8       __imp__GetLocaleInfoA@16   0068d1b8     kernel32:KERNEL32.dll
 0003:000001bc       __imp__GetStringTypeA@20   0068d1bc     kernel32:KERNEL32.dll
 0003:000001c0       __imp__GetStringTypeW@16   0068d1c0     kernel32:KERNEL32.dll
 0003:000001c4       __imp__GetUserDefaultLCID@0 0068d1c4     kernel32:KERNEL32.dll
 0003:000001c8       __imp__EnumSystemLocalesA@8 0068d1c8     kernel32:KERNEL32.dll
 0003:000001cc       __imp__IsValidLocale@8     0068d1cc     kernel32:KERNEL32.dll
 0003:000001d0       __imp__CompareStringA@24   0068d1d0     kernel32:KERNEL32.dll
 0003:000001d4       __imp__CompareStringW@24   0068d1d4     kernel32:KERNEL32.dll
 0003:000001d8       __imp__SetEnvironmentVariableA@8 0068d1d8     kernel32:KERNEL32.dll
 0003:000001dc       __imp__GetProcessHeap@0    0068d1dc     kernel32:KERNEL32.dll
 0003:000001e0       __imp__VirtualQuery@12     0068d1e0     kernel32:KERNEL32.dll
 0003:000001e4       \177KERNEL32_NULL_THUNK_DATA 0068d1e4     kernel32:KERNEL32.dll
 0003:000001e8       __imp__SymInitialize@12    0068d1e8     ImageHlp:imagehlp.dll
 0003:000001ec       __imp__SymCleanup@4        0068d1ec     ImageHlp:imagehlp.dll
 0003:000001f0       __imp__StackWalk@36        0068d1f0     ImageHlp:imagehlp.dll
 0003:000001f4       \177imagehlp_NULL_THUNK_DATA 0068d1f4     ImageHlp:imagehlp.dll
 0003:000001f8       __imp__MPI_Initialized@4   0068d1f8     ParMETISLib:msmpi.dll
 0003:000001fc       __imp__MPI_Abort@8         0068d1fc     ParMETISLib:msmpi.dll
 0003:00000200       __imp__MPI_Close_port@4    0068d200     ParMETISLib:msmpi.dll
 0003:00000204       __imp__MPI_Comm_accept@20  0068d204     ParMETISLib:msmpi.dll
 0003:00000208       __imp__MPI_Comm_connect@20 0068d208     ParMETISLib:msmpi.dll
 0003:0000020c       __imp__MPI_Comm_disconnect@4 0068d20c     ParMETISLib:msmpi.dll
 0003:00000210       __imp__MPI_Comm_get_parent@4 0068d210     ParMETISLib:msmpi.dll
 0003:00000214       __imp__MPI_Comm_join@8     0068d214     ParMETISLib:msmpi.dll
 0003:00000218       __imp__MPI_Comm_spawn@32   0068d218     ParMETISLib:msmpi.dll
 0003:0000021c       __imp__MPI_Comm_spawn_multiple@36 0068d21c     ParMETISLib:msmpi.dll
 0003:00000220       __imp__MPI_Lookup_name@12  0068d220     ParMETISLib:msmpi.dll
 0003:00000224       __imp__MPI_Open_port@8     0068d224     ParMETISLib:msmpi.dll
 0003:00000228       __imp__MPI_Publish_name@12 0068d228     ParMETISLib:msmpi.dll
 0003:0000022c       __imp__MPI_Unpublish_name@12 0068d22c     ParMETISLib:msmpi.dll
 0003:00000230       __imp__MPI_Accumulate@36   0068d230     ParMETISLib:msmpi.dll
 0003:00000234       __imp__MPI_Get@32          0068d234     ParMETISLib:msmpi.dll
 0003:00000238       __imp__MPI_Put@32          0068d238     ParMETISLib:msmpi.dll
 0003:0000023c       __imp__MPI_Win_complete@4  0068d23c     ParMETISLib:msmpi.dll
 0003:00000240       __imp__MPI_Win_create@24   0068d240     ParMETISLib:msmpi.dll
 0003:00000244       __imp__MPI_Win_fence@8     0068d244     ParMETISLib:msmpi.dll
 0003:00000248       __imp__MPI_Win_free@4      0068d248     ParMETISLib:msmpi.dll
 0003:0000024c       __imp__MPI_Win_get_group@8 0068d24c     ParMETISLib:msmpi.dll
 0003:00000250       __imp__MPI_Win_lock@16     0068d250     ParMETISLib:msmpi.dll
 0003:00000254       __imp__MPI_Win_post@12     0068d254     ParMETISLib:msmpi.dll
 0003:00000258       __imp__MPI_Win_start@12    0068d258     ParMETISLib:msmpi.dll
 0003:0000025c       __imp__MPI_Win_test@8      0068d25c     ParMETISLib:msmpi.dll
 0003:00000260       __imp__MPI_Win_unlock@8    0068d260     ParMETISLib:msmpi.dll
 0003:00000264       __imp__MPI_Win_wait@4      0068d264     ParMETISLib:msmpi.dll
 0003:00000268       __imp__MPI_Alltoallw@36    0068d268     ParMETISLib:msmpi.dll
 0003:0000026c       __imp__MPI_Exscan@24       0068d26c     ParMETISLib:msmpi.dll
 0003:00000270       __imp__MPI_Add_error_class@4 0068d270     ParMETISLib:msmpi.dll
 0003:00000274       __imp__MPI_Add_error_code@8 0068d274     ParMETISLib:msmpi.dll
 0003:00000278       __imp__MPI_Add_error_string@8 0068d278     ParMETISLib:msmpi.dll
 0003:0000027c       __imp__MPI_Comm_call_errhandler@8 0068d27c     ParMETISLib:msmpi.dll
 0003:00000280       __imp__MPIR_Keyval_set_proxy@12 0068d280     ParMETISLib:msmpi.dll
 0003:00000284       __imp__MPI_Comm_create_keyval@16 0068d284     ParMETISLib:msmpi.dll
 0003:00000288       __imp__MPI_Comm_delete_attr@8 0068d288     ParMETISLib:msmpi.dll
 0003:0000028c       __imp__MPI_Comm_free_keyval@4 0068d28c     ParMETISLib:msmpi.dll
 0003:00000290       __imp__MPI_Comm_get_attr@16 0068d290     ParMETISLib:msmpi.dll
 0003:00000294       __imp__MPI_Comm_get_name@12 0068d294     ParMETISLib:msmpi.dll
 0003:00000298       __imp__MPI_Comm_set_attr@12 0068d298     ParMETISLib:msmpi.dll
 0003:0000029c       __imp__MPI_Comm_set_name@8 0068d29c     ParMETISLib:msmpi.dll
 0003:000002a0       __imp__MPI_File_call_errhandler@8 0068d2a0     ParMETISLib:msmpi.dll
 0003:000002a4       __imp__MPI_File_f2c@4      0068d2a4     ParMETISLib:msmpi.dll
 0003:000002a8       __imp__MPI_Grequest_complete@4 0068d2a8     ParMETISLib:msmpi.dll
 0003:000002ac       __imp__MPIR_Grequest_set_proxy@16 0068d2ac     ParMETISLib:msmpi.dll
 0003:000002b0       __imp__MPI_Grequest_start@20 0068d2b0     ParMETISLib:msmpi.dll
 0003:000002b4       __imp__MPI_Is_thread_main@4 0068d2b4     ParMETISLib:msmpi.dll
 0003:000002b8       __imp__MPI_Query_thread@4  0068d2b8     ParMETISLib:msmpi.dll
 0003:000002bc       __imp__MPI_Status_set_cancelled@8 0068d2bc     ParMETISLib:msmpi.dll
 0003:000002c0       __imp__MPI_Status_set_elements@12 0068d2c0     ParMETISLib:msmpi.dll
 0003:000002c4       __imp__MPI_Type_create_keyval@16 0068d2c4     ParMETISLib:msmpi.dll
 0003:000002c8       __imp__MPI_Type_delete_attr@8 0068d2c8     ParMETISLib:msmpi.dll
 0003:000002cc       __imp__MPI_Type_dup@8      0068d2cc     ParMETISLib:msmpi.dll
 0003:000002d0       __imp__MPI_Type_free_keyval@4 0068d2d0     ParMETISLib:msmpi.dll
 0003:000002d4       __imp__MPI_Type_get_attr@16 0068d2d4     ParMETISLib:msmpi.dll
 0003:000002d8       __imp__MPI_Type_get_contents@28 0068d2d8     ParMETISLib:msmpi.dll
 0003:000002dc       __imp__MPI_Type_get_envelope@20 0068d2dc     ParMETISLib:msmpi.dll
 0003:000002e0       __imp__MPI_Type_get_name@12 0068d2e0     ParMETISLib:msmpi.dll
 0003:000002e4       __imp__MPI_Type_set_attr@12 0068d2e4     ParMETISLib:msmpi.dll
 0003:000002e8       __imp__MPI_Type_set_name@8 0068d2e8     ParMETISLib:msmpi.dll
 0003:000002ec       __imp__MPI_Type_match_size@12 0068d2ec     ParMETISLib:msmpi.dll
 0003:000002f0       __imp__MPI_Win_call_errhandler@8 0068d2f0     ParMETISLib:msmpi.dll
 0003:000002f4       __imp__MPI_Win_create_keyval@16 0068d2f4     ParMETISLib:msmpi.dll
 0003:000002f8       __imp__MPI_Win_delete_attr@8 0068d2f8     ParMETISLib:msmpi.dll
 0003:000002fc       __imp__MPI_Win_free_keyval@4 0068d2fc     ParMETISLib:msmpi.dll
 0003:00000300       __imp__MPI_Win_get_attr@16 0068d300     ParMETISLib:msmpi.dll
 0003:00000304       __imp__MPI_Win_get_name@12 0068d304     ParMETISLib:msmpi.dll
 0003:00000308       __imp__MPI_Win_set_attr@12 0068d308     ParMETISLib:msmpi.dll
 0003:0000030c       __imp__MPI_Win_set_name@8  0068d30c     ParMETISLib:msmpi.dll
 0003:00000310       __imp__MPI_Alloc_mem@12    0068d310     ParMETISLib:msmpi.dll
 0003:00000314       __imp__MPIR_Comm_errhandler_set_proxy@8 0068d314     ParMETISLib:msmpi.dll
 0003:00000318       __imp__MPI_Comm_create_errhandler@8 0068d318     ParMETISLib:msmpi.dll
 0003:0000031c       __imp__MPI_Comm_get_errhandler@8 0068d31c     ParMETISLib:msmpi.dll
 0003:00000320       __imp__MPI_Comm_set_errhandler@8 0068d320     ParMETISLib:msmpi.dll
 0003:00000324       __imp__MPIR_File_errhandler_set_proxy@8 0068d324     ParMETISLib:msmpi.dll
 0003:00000328       __imp__MPI_File_create_errhandler@8 0068d328     ParMETISLib:msmpi.dll
 0003:0000032c       __imp__MPI_File_get_errhandler@8 0068d32c     ParMETISLib:msmpi.dll
 0003:00000330       __imp__MPI_File_set_errhandler@8 0068d330     ParMETISLib:msmpi.dll
 0003:00000334       __imp__MPI_Finalized@4     0068d334     ParMETISLib:msmpi.dll
 0003:00000338       __imp__MPI_Free_mem@4      0068d338     ParMETISLib:msmpi.dll
 0003:0000033c       __imp__MPI_Info_create@4   0068d33c     ParMETISLib:msmpi.dll
 0003:00000340       __imp__MPI_Info_delete@8   0068d340     ParMETISLib:msmpi.dll
 0003:00000344       __imp__MPI_Info_dup@8      0068d344     ParMETISLib:msmpi.dll
 0003:00000348       __imp__MPI_Info_free@4     0068d348     ParMETISLib:msmpi.dll
 0003:0000034c       __imp__MPI_Finalize@0      0068d34c     ParMETISLib:msmpi.dll
 0003:00000350       __imp__MPI_Info_get_nkeys@8 0068d350     ParMETISLib:msmpi.dll
 0003:00000354       __imp__MPI_Info_get_nthkey@12 0068d354     ParMETISLib:msmpi.dll
 0003:00000358       __imp__MPI_Info_get_valuelen@16 0068d358     ParMETISLib:msmpi.dll
 0003:0000035c       __imp__MPI_Info_set@12     0068d35c     ParMETISLib:msmpi.dll
 0003:00000360       __imp__MPI_Pack_external@28 0068d360     ParMETISLib:msmpi.dll
 0003:00000364       __imp__MPI_Pack_external_size@16 0068d364     ParMETISLib:msmpi.dll
 0003:00000368       __imp__MPI_Request_get_status@12 0068d368     ParMETISLib:msmpi.dll
 0003:0000036c       __imp__MPI_Status_c2f@8    0068d36c     ParMETISLib:msmpi.dll
 0003:00000370       __imp__MPI_Status_f2c@8    0068d370     ParMETISLib:msmpi.dll
 0003:00000374       __imp__MPI_Type_create_darray@40 0068d374     ParMETISLib:msmpi.dll
 0003:00000378       __imp__MPI_Type_create_hindexed@20 0068d378     ParMETISLib:msmpi.dll
 0003:0000037c       __imp__MPI_Type_create_hvector@20 0068d37c     ParMETISLib:msmpi.dll
 0003:00000380       __imp__MPI_Type_create_indexed_block@20 0068d380     ParMETISLib:msmpi.dll
 0003:00000384       __imp__MPI_Type_create_resized@16 0068d384     ParMETISLib:msmpi.dll
 0003:00000388       __imp__MPI_Type_create_struct@20 0068d388     ParMETISLib:msmpi.dll
 0003:0000038c       __imp__MPI_Type_create_subarray@28 0068d38c     ParMETISLib:msmpi.dll
 0003:00000390       __imp__MPI_Type_get_extent@12 0068d390     ParMETISLib:msmpi.dll
 0003:00000394       __imp__MPI_Type_get_true_extent@12 0068d394     ParMETISLib:msmpi.dll
 0003:00000398       __imp__MPI_Unpack_external@28 0068d398     ParMETISLib:msmpi.dll
 0003:0000039c       __imp__MPIR_Win_errhandler_set_proxy@8 0068d39c     ParMETISLib:msmpi.dll
 0003:000003a0       __imp__MPI_Win_create_errhandler@8 0068d3a0     ParMETISLib:msmpi.dll
 0003:000003a4       __imp__MPI_Win_get_errhandler@8 0068d3a4     ParMETISLib:msmpi.dll
 0003:000003a8       __imp__MPI_Win_set_errhandler@8 0068d3a8     ParMETISLib:msmpi.dll
 0003:000003ac       __imp__MPI_File_c2f@4      0068d3ac     ParMETISLib:msmpi.dll
 0003:000003b0       __imp__MPI_File_open@20    0068d3b0     ParMETISLib:msmpi.dll
 0003:000003b4       __imp__MPI_File_close@4    0068d3b4     ParMETISLib:msmpi.dll
 0003:000003b8       __imp__MPI_File_delete@8   0068d3b8     ParMETISLib:msmpi.dll
 0003:000003bc       __imp__MPI_File_set_size@12 0068d3bc     ParMETISLib:msmpi.dll
 0003:000003c0       __imp__MPI_File_preallocate@12 0068d3c0     ParMETISLib:msmpi.dll
 0003:000003c4       __imp__MPI_File_get_size@8 0068d3c4     ParMETISLib:msmpi.dll
 0003:000003c8       __imp__MPI_File_get_group@8 0068d3c8     ParMETISLib:msmpi.dll
 0003:000003cc       __imp__MPI_File_get_amode@8 0068d3cc     ParMETISLib:msmpi.dll
 0003:000003d0       __imp__MPI_File_set_info@8 0068d3d0     ParMETISLib:msmpi.dll
 0003:000003d4       __imp__MPI_File_get_info@8 0068d3d4     ParMETISLib:msmpi.dll
 0003:000003d8       __imp__MPI_File_set_view@28 0068d3d8     ParMETISLib:msmpi.dll
 0003:000003dc       __imp__MPI_File_get_view@20 0068d3dc     ParMETISLib:msmpi.dll
 0003:000003e0       __imp__MPI_File_read_at@28 0068d3e0     ParMETISLib:msmpi.dll
 0003:000003e4       __imp__MPI_File_read_at_all@28 0068d3e4     ParMETISLib:msmpi.dll
 0003:000003e8       __imp__MPI_File_write_at@28 0068d3e8     ParMETISLib:msmpi.dll
 0003:000003ec       __imp__MPI_File_write_at_all@28 0068d3ec     ParMETISLib:msmpi.dll
 0003:000003f0       __imp__MPI_File_iread_at@28 0068d3f0     ParMETISLib:msmpi.dll
 0003:000003f4       __imp__MPI_File_iwrite_at@28 0068d3f4     ParMETISLib:msmpi.dll
 0003:000003f8       __imp__MPI_File_read@20    0068d3f8     ParMETISLib:msmpi.dll
 0003:000003fc       __imp__MPI_File_read_all@20 0068d3fc     ParMETISLib:msmpi.dll
 0003:00000400       __imp__MPI_File_write@20   0068d400     ParMETISLib:msmpi.dll
 0003:00000404       __imp__MPI_File_write_all@20 0068d404     ParMETISLib:msmpi.dll
 0003:00000408       __imp__MPI_File_iread@20   0068d408     ParMETISLib:msmpi.dll
 0003:0000040c       __imp__MPI_File_iwrite@20  0068d40c     ParMETISLib:msmpi.dll
 0003:00000410       __imp__MPI_File_seek@16    0068d410     ParMETISLib:msmpi.dll
 0003:00000414       __imp__MPI_File_get_position@8 0068d414     ParMETISLib:msmpi.dll
 0003:00000418       __imp__MPI_File_get_byte_offset@16 0068d418     ParMETISLib:msmpi.dll
 0003:0000041c       __imp__MPI_File_read_shared@20 0068d41c     ParMETISLib:msmpi.dll
 0003:00000420       __imp__MPI_File_write_shared@20 0068d420     ParMETISLib:msmpi.dll
 0003:00000424       __imp__MPI_File_iread_shared@20 0068d424     ParMETISLib:msmpi.dll
 0003:00000428       __imp__MPI_File_iwrite_shared@20 0068d428     ParMETISLib:msmpi.dll
 0003:0000042c       __imp__MPI_File_read_ordered@20 0068d42c     ParMETISLib:msmpi.dll
 0003:00000430       __imp__MPI_File_write_ordered@20 0068d430     ParMETISLib:msmpi.dll
 0003:00000434       __imp__MPI_File_seek_shared@16 0068d434     ParMETISLib:msmpi.dll
 0003:00000438       __imp__MPI_File_get_position_shared@8 0068d438     ParMETISLib:msmpi.dll
 0003:0000043c       __imp__MPI_File_read_at_all_begin@24 0068d43c     ParMETISLib:msmpi.dll
 0003:00000440       __imp__MPI_File_read_at_all_end@12 0068d440     ParMETISLib:msmpi.dll
 0003:00000444       __imp__MPI_File_write_at_all_begin@24 0068d444     ParMETISLib:msmpi.dll
 0003:00000448       __imp__MPI_File_write_at_all_end@12 0068d448     ParMETISLib:msmpi.dll
 0003:0000044c       __imp__MPI_File_read_all_begin@16 0068d44c     ParMETISLib:msmpi.dll
 0003:00000450       __imp__MPI_File_read_all_end@12 0068d450     ParMETISLib:msmpi.dll
 0003:00000454       __imp__MPI_File_write_all_begin@16 0068d454     ParMETISLib:msmpi.dll
 0003:00000458       __imp__MPI_File_write_all_end@12 0068d458     ParMETISLib:msmpi.dll
 0003:0000045c       __imp__MPI_File_read_ordered_begin@16 0068d45c     ParMETISLib:msmpi.dll
 0003:00000460       __imp__MPI_File_read_ordered_end@12 0068d460     ParMETISLib:msmpi.dll
 0003:00000464       __imp__MPI_File_write_ordered_begin@16 0068d464     ParMETISLib:msmpi.dll
 0003:00000468       __imp__MPI_File_write_ordered_end@12 0068d468     ParMETISLib:msmpi.dll
 0003:0000046c       __imp__MPI_File_get_type_extent@12 0068d46c     ParMETISLib:msmpi.dll
 0003:00000470       __imp__MPI_Register_datarep@20 0068d470     ParMETISLib:msmpi.dll
 0003:00000474       __imp__MPI_File_set_atomicity@8 0068d474     ParMETISLib:msmpi.dll
 0003:00000478       __imp__MPI_File_get_atomicity@8 0068d478     ParMETISLib:msmpi.dll
 0003:0000047c       __imp__MPI_File_sync@4     0068d47c     ParMETISLib:msmpi.dll
 0003:00000480       __imp__MPI_Init@8          0068d480     ParMETISLib:msmpi.dll
 0003:00000484       __imp__MPI_Init_thread@16  0068d484     ParMETISLib:msmpi.dll
 0003:00000488       __imp__MPI_Pcontrol        0068d488     ParMETISLib:msmpi.dll
 0003:0000048c       __imp__MPI_Address@8       0068d48c     ParMETISLib:msmpi.dll
 0003:00000490       __imp__MPI_Get_address@8   0068d490     ParMETISLib:msmpi.dll
 0003:00000494       __imp__MPI_Wtime@0         0068d494     ParMETISLib:msmpi.dll
 0003:00000498       __imp__MPI_Wtick@0         0068d498     ParMETISLib:msmpi.dll
 0003:0000049c       __imp__MPI_Errhandler_create@8 0068d49c     ParMETISLib:msmpi.dll
 0003:000004a0       __imp__MPI_Error_class@8   0068d4a0     ParMETISLib:msmpi.dll
 0003:000004a4       __imp__MPI_Error_string@12 0068d4a4     ParMETISLib:msmpi.dll
 0003:000004a8       __imp__MPI_Errhandler_free@4 0068d4a8     ParMETISLib:msmpi.dll
 0003:000004ac       __imp__MPI_Errhandler_get@8 0068d4ac     ParMETISLib:msmpi.dll
 0003:000004b0       __imp__MPI_Errhandler_set@8 0068d4b0     ParMETISLib:msmpi.dll
 0003:000004b4       __imp__MPI_Get_version@8   0068d4b4     ParMETISLib:msmpi.dll
 0003:000004b8       __imp__MPI_Get_processor_name@8 0068d4b8     ParMETISLib:msmpi.dll
 0003:000004bc       __imp__MPI_Graph_map@20    0068d4bc     ParMETISLib:msmpi.dll
 0003:000004c0       __imp__MPI_Cart_map@20     0068d4c0     ParMETISLib:msmpi.dll
 0003:000004c4       __imp__MPI_Cart_sub@12     0068d4c4     ParMETISLib:msmpi.dll
 0003:000004c8       __imp__MPI_Cart_shift@20   0068d4c8     ParMETISLib:msmpi.dll
 0003:000004cc       __imp__MPI_Graph_neighbors@16 0068d4cc     ParMETISLib:msmpi.dll
 0003:000004d0       __imp__MPI_Graph_neighbors_count@12 0068d4d0     ParMETISLib:msmpi.dll
 0003:000004d4       __imp__MPI_Cart_coords@16  0068d4d4     ParMETISLib:msmpi.dll
 0003:000004d8       __imp__MPI_Cart_rank@12    0068d4d8     ParMETISLib:msmpi.dll
 0003:000004dc       __imp__MPI_Cart_get@20     0068d4dc     ParMETISLib:msmpi.dll
 0003:000004e0       __imp__MPI_Cartdim_get@8   0068d4e0     ParMETISLib:msmpi.dll
 0003:000004e4       __imp__MPI_Graph_get@20    0068d4e4     ParMETISLib:msmpi.dll
 0003:000004e8       __imp__MPI_Graphdims_get@12 0068d4e8     ParMETISLib:msmpi.dll
 0003:000004ec       __imp__MPI_Graph_create@24 0068d4ec     ParMETISLib:msmpi.dll
 0003:000004f0       __imp__MPI_Dims_create@12  0068d4f0     ParMETISLib:msmpi.dll
 0003:000004f4       __imp__MPIR_Malloc@4       0068d4f4     ParMETISLib:msmpi.dll
 0003:000004f8       __imp__MPIR_Error@8        0068d4f8     ParMETISLib:msmpi.dll
 0003:000004fc       __imp__MPI_Cart_create@24  0068d4fc     ParMETISLib:msmpi.dll
 0003:00000500       __imp__MPIR_Free@4         0068d500     ParMETISLib:msmpi.dll
 0003:00000504       __imp__MPI_Topo_test@8     0068d504     ParMETISLib:msmpi.dll
 0003:00000508       __imp__MPI_Attr_delete@8   0068d508     ParMETISLib:msmpi.dll
 0003:0000050c       __imp__MPI_Attr_get@16     0068d50c     ParMETISLib:msmpi.dll
 0003:00000510       __imp__MPI_Attr_put@12     0068d510     ParMETISLib:msmpi.dll
 0003:00000514       __imp__MPI_Keyval_free@4   0068d514     ParMETISLib:msmpi.dll
 0003:00000518       __imp__MPI_Intercomm_merge@12 0068d518     ParMETISLib:msmpi.dll
 0003:0000051c       __imp__MPI_Intercomm_create@24 0068d51c     ParMETISLib:msmpi.dll
 0003:00000520       __imp__MPI_Comm_remote_group@8 0068d520     ParMETISLib:msmpi.dll
 0003:00000524       __imp__MPI_Comm_remote_size@8 0068d524     ParMETISLib:msmpi.dll
 0003:00000528       __imp__MPI_Comm_test_inter@8 0068d528     ParMETISLib:msmpi.dll
 0003:0000052c       __imp__MPI_Comm_free@4     0068d52c     ParMETISLib:msmpi.dll
 0003:00000530       __imp__MPI_Comm_split@16   0068d530     ParMETISLib:msmpi.dll
 0003:00000534       __imp__MPI_Comm_create@12  0068d534     ParMETISLib:msmpi.dll
 0003:00000538       __imp__MPI_Comm_dup@8      0068d538     ParMETISLib:msmpi.dll
 0003:0000053c       __imp__MPI_Comm_compare@12 0068d53c     ParMETISLib:msmpi.dll
 0003:00000540       __imp__MPI_Comm_rank@8     0068d540     ParMETISLib:msmpi.dll
 0003:00000544       __imp__MPI_Comm_size@8     0068d544     ParMETISLib:msmpi.dll
 0003:00000548       __imp__MPI_Group_free@4    0068d548     ParMETISLib:msmpi.dll
 0003:0000054c       __imp__MPI_Group_range_excl@16 0068d54c     ParMETISLib:msmpi.dll
 0003:00000550       __imp__MPI_Group_range_incl@16 0068d550     ParMETISLib:msmpi.dll
 0003:00000554       __imp__MPI_Group_excl@16   0068d554     ParMETISLib:msmpi.dll
 0003:00000558       __imp__MPI_Group_incl@16   0068d558     ParMETISLib:msmpi.dll
 0003:0000055c       __imp__MPI_Group_difference@12 0068d55c     ParMETISLib:msmpi.dll
 0003:00000560       __imp__MPI_Group_intersection@12 0068d560     ParMETISLib:msmpi.dll
 0003:00000564       __imp__MPI_Group_union@12  0068d564     ParMETISLib:msmpi.dll
 0003:00000568       __imp__MPI_Comm_group@8    0068d568     ParMETISLib:msmpi.dll
 0003:0000056c       __imp__MPI_Group_compare@12 0068d56c     ParMETISLib:msmpi.dll
 0003:00000570       __imp__MPI_Group_translate_ranks@20 0068d570     ParMETISLib:msmpi.dll
 0003:00000574       __imp__MPI_Group_rank@8    0068d574     ParMETISLib:msmpi.dll
 0003:00000578       __imp__MPI_Group_size@8    0068d578     ParMETISLib:msmpi.dll
 0003:0000057c       __imp__MPI_Scan@24         0068d57c     ParMETISLib:msmpi.dll
 0003:00000580       __imp__MPI_Reduce_scatter@24 0068d580     ParMETISLib:msmpi.dll
 0003:00000584       __imp__MPI_Allreduce@24    0068d584     ParMETISLib:msmpi.dll
 0003:00000588       __imp__MPI_Op_free@4       0068d588     ParMETISLib:msmpi.dll
 0003:0000058c       __imp__MPI_Op_create@12    0068d58c     ParMETISLib:msmpi.dll
 0003:00000590       __imp__MPIR_Op_set_proxy@8 0068d590     ParMETISLib:msmpi.dll
 0003:00000594       __imp__MPI_Reduce@28       0068d594     ParMETISLib:msmpi.dll
 0003:00000598       __imp__MPI_Alltoallv@36    0068d598     ParMETISLib:msmpi.dll
 0003:0000059c       __imp__MPI_Alltoall@28     0068d59c     ParMETISLib:msmpi.dll
 0003:000005a0       __imp__MPI_Allgatherv@32   0068d5a0     ParMETISLib:msmpi.dll
 0003:000005a4       __imp__MPI_Allgather@28    0068d5a4     ParMETISLib:msmpi.dll
 0003:000005a8       __imp__MPI_Scatterv@36     0068d5a8     ParMETISLib:msmpi.dll
 0003:000005ac       __imp__MPI_Scatter@32      0068d5ac     ParMETISLib:msmpi.dll
 0003:000005b0       __imp__MPI_Gatherv@36      0068d5b0     ParMETISLib:msmpi.dll
 0003:000005b4       __imp__MPI_Gather@32       0068d5b4     ParMETISLib:msmpi.dll
 0003:000005b8       __imp__MPI_Bcast@20        0068d5b8     ParMETISLib:msmpi.dll
 0003:000005bc       __imp__MPI_Barrier@4       0068d5bc     ParMETISLib:msmpi.dll
 0003:000005c0       __imp__MPI_Pack_size@16    0068d5c0     ParMETISLib:msmpi.dll
 0003:000005c4       __imp__MPI_Unpack@28       0068d5c4     ParMETISLib:msmpi.dll
 0003:000005c8       __imp__MPI_Pack@28         0068d5c8     ParMETISLib:msmpi.dll
 0003:000005cc       __imp__MPI_Get_elements@12 0068d5cc     ParMETISLib:msmpi.dll
 0003:000005d0       __imp__MPI_Type_free@4     0068d5d0     ParMETISLib:msmpi.dll
 0003:000005d4       __imp__MPI_Type_commit@4   0068d5d4     ParMETISLib:msmpi.dll
 0003:000005d8       __imp__MPI_Type_ub@8       0068d5d8     ParMETISLib:msmpi.dll
 0003:000005dc       __imp__MPI_Type_lb@8       0068d5dc     ParMETISLib:msmpi.dll
 0003:000005e0       __imp__MPI_Type_size@8     0068d5e0     ParMETISLib:msmpi.dll
 0003:000005e4       __imp__MPI_Type_extent@8   0068d5e4     ParMETISLib:msmpi.dll
 0003:000005e8       __imp__MPI_Type_struct@20  0068d5e8     ParMETISLib:msmpi.dll
 0003:000005ec       __imp__MPI_Type_hindexed@20 0068d5ec     ParMETISLib:msmpi.dll
 0003:000005f0       __imp__MPI_Type_indexed@20 0068d5f0     ParMETISLib:msmpi.dll
 0003:000005f4       __imp__MPI_Type_hvector@20 0068d5f4     ParMETISLib:msmpi.dll
 0003:000005f8       __imp__MPI_Type_vector@20  0068d5f8     ParMETISLib:msmpi.dll
 0003:000005fc       __imp__MPI_Type_contiguous@12 0068d5fc     ParMETISLib:msmpi.dll
 0003:00000600       __imp__MPI_Sendrecv_replace@36 0068d600     ParMETISLib:msmpi.dll
 0003:00000604       __imp__MPI_Sendrecv@48     0068d604     ParMETISLib:msmpi.dll
 0003:00000608       __imp__MPI_Startall@8      0068d608     ParMETISLib:msmpi.dll
 0003:0000060c       __imp__MPI_Start@4         0068d60c     ParMETISLib:msmpi.dll
 0003:00000610       __imp__MPI_Recv_init@28    0068d610     ParMETISLib:msmpi.dll
 0003:00000614       __imp__MPI_Rsend_init@28   0068d614     ParMETISLib:msmpi.dll
 0003:00000618       __imp__MPI_Ssend_init@28   0068d618     ParMETISLib:msmpi.dll
 0003:0000061c       __imp__MPI_Bsend_init@28   0068d61c     ParMETISLib:msmpi.dll
 0003:00000620       __imp__MPI_Send_init@28    0068d620     ParMETISLib:msmpi.dll
 0003:00000624       __imp__MPI_Test_cancelled@8 0068d624     ParMETISLib:msmpi.dll
 0003:00000628       __imp__MPI_Cancel@4        0068d628     ParMETISLib:msmpi.dll
 0003:0000062c       __imp__MPI_Probe@16        0068d62c     ParMETISLib:msmpi.dll
 0003:00000630       __imp__MPI_Iprobe@20       0068d630     ParMETISLib:msmpi.dll
 0003:00000634       __imp__MPI_Testsome@20     0068d634     ParMETISLib:msmpi.dll
 0003:00000638       __imp__MPI_Waitsome@20     0068d638     ParMETISLib:msmpi.dll
 0003:0000063c       __imp__MPI_Testall@16      0068d63c     ParMETISLib:msmpi.dll
 0003:00000640       __imp__MPI_F_STATUSES_IGNORE 0068d640     ParMETISLib:msmpi.dll
 0003:00000644       __imp__MPI_Waitall@12      0068d644     ParMETISLib:msmpi.dll
 0003:00000648       __imp__MPI_Testany@20      0068d648     ParMETISLib:msmpi.dll
 0003:0000064c       __imp__MPI_Waitany@16      0068d64c     ParMETISLib:msmpi.dll
 0003:00000650       __imp__MPI_Request_free@4  0068d650     ParMETISLib:msmpi.dll
 0003:00000654       __imp__MPI_Test@12         0068d654     ParMETISLib:msmpi.dll
 0003:00000658       __imp__MPI_Wait@8          0068d658     ParMETISLib:msmpi.dll
 0003:0000065c       __imp__MPI_Irecv@28        0068d65c     ParMETISLib:msmpi.dll
 0003:00000660       __imp__MPI_Irsend@28       0068d660     ParMETISLib:msmpi.dll
 0003:00000664       __imp__MPI_Issend@28       0068d664     ParMETISLib:msmpi.dll
 0003:00000668       __imp__MPI_Ibsend@28       0068d668     ParMETISLib:msmpi.dll
 0003:0000066c       __imp__MPI_Isend@28        0068d66c     ParMETISLib:msmpi.dll
 0003:00000670       __imp__MPI_Buffer_detach@8 0068d670     ParMETISLib:msmpi.dll
 0003:00000674       __imp__MPI_Buffer_attach@8 0068d674     ParMETISLib:msmpi.dll
 0003:00000678       __imp__MPI_Rsend@24        0068d678     ParMETISLib:msmpi.dll
 0003:0000067c       __imp__MPI_Ssend@24        0068d67c     ParMETISLib:msmpi.dll
 0003:00000680       __imp__MPI_Bsend@24        0068d680     ParMETISLib:msmpi.dll
 0003:00000684       __imp__MPI_Get_count@12    0068d684     ParMETISLib:msmpi.dll
 0003:00000688       __imp__MPI_F_STATUS_IGNORE 0068d688     ParMETISLib:msmpi.dll
 0003:0000068c       __imp__MPI_Recv@28         0068d68c     ParMETISLib:msmpi.dll
 0003:00000690       __imp__MPI_Info_get@20     0068d690     ParMETISLib:msmpi.dll
 0003:00000694       __imp__MPI_Send@24         0068d694     ParMETISLib:msmpi.dll
 0003:00000698       \177msmpi_NULL_THUNK_DATA  0068d698     ParMETISLib:msmpi.dll
 0003:0000069c       __imp__NF_ABORT@4          0068d69c     netcdf:netcdf.dll
 0003:000006a0       __imp__NF_INQ_LIBVERS@8    0068d6a0     netcdf:netcdf.dll
 0003:000006a4       __imp__NF_INQ_BASE_PE@8    0068d6a4     netcdf:netcdf.dll
 0003:000006a8       __imp__NF_SET_BASE_PE@8    0068d6a8     netcdf:netcdf.dll
 0003:000006ac       __imp__NF_CREATE@16        0068d6ac     netcdf:netcdf.dll
 0003:000006b0       __imp__NF__CREATE@24       0068d6b0     netcdf:netcdf.dll
 0003:000006b4       __imp__NF__CREATE_MP@28    0068d6b4     netcdf:netcdf.dll
 0003:000006b8       __imp__NF__OPEN@20         0068d6b8     netcdf:netcdf.dll
 0003:000006bc       __imp__NF__OPEN_MP@24      0068d6bc     netcdf:netcdf.dll
 0003:000006c0       __imp__NF_SET_FILL@12      0068d6c0     netcdf:netcdf.dll
 0003:000006c4       __imp__NF_REDEF@4          0068d6c4     netcdf:netcdf.dll
 0003:000006c8       __imp__NF_ENDDEF@4         0068d6c8     netcdf:netcdf.dll
 0003:000006cc       __imp__NF__ENDDEF@20       0068d6cc     netcdf:netcdf.dll
 0003:000006d0       __imp__NF_SYNC@4           0068d6d0     netcdf:netcdf.dll
 0003:000006d4       __imp__NF_DELETE@8         0068d6d4     netcdf:netcdf.dll
 0003:000006d8       __imp__NF_INQ@20           0068d6d8     netcdf:netcdf.dll
 0003:000006dc       __imp__NF_DEF_DIM@20       0068d6dc     netcdf:netcdf.dll
 0003:000006e0       __imp__NF_INQ_DIMID@16     0068d6e0     netcdf:netcdf.dll
 0003:000006e4       __imp__NF_RENAME_DIM@16    0068d6e4     netcdf:netcdf.dll
 0003:000006e8       __imp__NF_INQ_DIM@20       0068d6e8     netcdf:netcdf.dll
 0003:000006ec       __imp__NF_COPY_ATT@24      0068d6ec     netcdf:netcdf.dll
 0003:000006f0       __imp__NF_RENAME_ATT@24    0068d6f0     netcdf:netcdf.dll
 0003:000006f4       __imp__NF_DEL_ATT@16       0068d6f4     netcdf:netcdf.dll
 0003:000006f8       __imp__NF_INQ_ATTNAME@20   0068d6f8     netcdf:netcdf.dll
 0003:000006fc       __imp__NF_INQ_ATT@24       0068d6fc     netcdf:netcdf.dll
 0003:00000700       __imp__NF_INQ_ATTID@20     0068d700     netcdf:netcdf.dll
 0003:00000704       __imp__NF_PUT_ATT_TEXT@28  0068d704     netcdf:netcdf.dll
 0003:00000708       __imp__NF_GET_ATT_TEXT@24  0068d708     netcdf:netcdf.dll
 0003:0000070c       __imp__NF_PUT_ATT_INT1@28  0068d70c     netcdf:netcdf.dll
 0003:00000710       __imp__NF_GET_ATT_INT1@20  0068d710     netcdf:netcdf.dll
 0003:00000714       __imp__NF_PUT_ATT_INT2@28  0068d714     netcdf:netcdf.dll
 0003:00000718       __imp__NF_GET_ATT_INT2@20  0068d718     netcdf:netcdf.dll
 0003:0000071c       __imp__NF_PUT_ATT_INT@28   0068d71c     netcdf:netcdf.dll
 0003:00000720       __imp__NF_PUT_ATT_REAL@28  0068d720     netcdf:netcdf.dll
 0003:00000724       __imp__NF_GET_ATT_REAL@20  0068d724     netcdf:netcdf.dll
 0003:00000728       __imp__NF_PUT_ATT_DOUBLE@28 0068d728     netcdf:netcdf.dll
 0003:0000072c       __imp__NF_GET_ATT_DOUBLE@20 0068d72c     netcdf:netcdf.dll
 0003:00000730       __imp__NF_DEF_VAR@28       0068d730     netcdf:netcdf.dll
 0003:00000734       __imp__NF_INQ_VAR@32       0068d734     netcdf:netcdf.dll
 0003:00000738       __imp__NF_RENAME_VAR@16    0068d738     netcdf:netcdf.dll
 0003:0000073c       __imp__NF_PUT_VARS_TEXT@28 0068d73c     netcdf:netcdf.dll
 0003:00000740       __imp__NF_PUT_VARM_TEXT@32 0068d740     netcdf:netcdf.dll
 0003:00000744       __imp__NF_GET_VARS_TEXT@28 0068d744     netcdf:netcdf.dll
 0003:00000748       __imp__NF_GET_VARM_TEXT@32 0068d748     netcdf:netcdf.dll
 0003:0000074c       __imp__NF_PUT_VAR1_INT1@16 0068d74c     netcdf:netcdf.dll
 0003:00000750       __imp__NF_PUT_VAR1_INT2@16 0068d750     netcdf:netcdf.dll
 0003:00000754       __imp__NF_PUT_VAR1_INT@16  0068d754     netcdf:netcdf.dll
 0003:00000758       __imp__NF_PUT_VAR1_REAL@16 0068d758     netcdf:netcdf.dll
 0003:0000075c       __imp__NF_PUT_VAR1_DOUBLE@16 0068d75c     netcdf:netcdf.dll
 0003:00000760       __imp__NF_GET_VAR1_INT1@16 0068d760     netcdf:netcdf.dll
 0003:00000764       __imp__NF_GET_VAR1_INT2@16 0068d764     netcdf:netcdf.dll
 0003:00000768       __imp__NF_GET_VAR1_INT@16  0068d768     netcdf:netcdf.dll
 0003:0000076c       __imp__NF_GET_VAR1_REAL@16 0068d76c     netcdf:netcdf.dll
 0003:00000770       __imp__NF_GET_VAR1_DOUBLE@16 0068d770     netcdf:netcdf.dll
 0003:00000774       __imp__NF_PUT_VARA_INT1@20 0068d774     netcdf:netcdf.dll
 0003:00000778       __imp__NF_PUT_VARS_INT1@24 0068d778     netcdf:netcdf.dll
 0003:0000077c       __imp__NF_PUT_VARM_INT1@28 0068d77c     netcdf:netcdf.dll
 0003:00000780       __imp__NF_PUT_VARA_INT2@20 0068d780     netcdf:netcdf.dll
 0003:00000784       __imp__NF_PUT_VARS_INT2@24 0068d784     netcdf:netcdf.dll
 0003:00000788       __imp__NF_PUT_VARM_INT2@28 0068d788     netcdf:netcdf.dll
 0003:0000078c       __imp__NF_PUT_VARA_INT@20  0068d78c     netcdf:netcdf.dll
 0003:00000790       __imp__NF_PUT_VARS_INT@24  0068d790     netcdf:netcdf.dll
 0003:00000794       __imp__NF_PUT_VARM_INT@28  0068d794     netcdf:netcdf.dll
 0003:00000798       __imp__NF_PUT_VARA_REAL@20 0068d798     netcdf:netcdf.dll
 0003:0000079c       __imp__NF_PUT_VARS_REAL@24 0068d79c     netcdf:netcdf.dll
 0003:000007a0       __imp__NF_PUT_VARM_REAL@28 0068d7a0     netcdf:netcdf.dll
 0003:000007a4       __imp__NF_PUT_VARA_DOUBLE@20 0068d7a4     netcdf:netcdf.dll
 0003:000007a8       __imp__NF_PUT_VARS_DOUBLE@24 0068d7a8     netcdf:netcdf.dll
 0003:000007ac       __imp__NF_PUT_VARM_DOUBLE@28 0068d7ac     netcdf:netcdf.dll
 0003:000007b0       __imp__NF_GET_VARA_INT1@20 0068d7b0     netcdf:netcdf.dll
 0003:000007b4       __imp__NF_GET_VARS_INT1@24 0068d7b4     netcdf:netcdf.dll
 0003:000007b8       __imp__NF_GET_VARA_INT2@20 0068d7b8     netcdf:netcdf.dll
 0003:000007bc       __imp__NF_GET_VARM_INT2@28 0068d7bc     netcdf:netcdf.dll
 0003:000007c0       __imp__NF_GET_VARA_INT@20  0068d7c0     netcdf:netcdf.dll
 0003:000007c4       __imp__NF_GET_VARS_INT2@24 0068d7c4     netcdf:netcdf.dll
 0003:000007c8       __imp__NF_GET_VARM_INT1@28 0068d7c8     netcdf:netcdf.dll
 0003:000007cc       __imp__NF_GET_VARS_REAL@24 0068d7cc     netcdf:netcdf.dll
 0003:000007d0       __imp__NF_GET_VARM_REAL@28 0068d7d0     netcdf:netcdf.dll
 0003:000007d4       __imp__NF_GET_VARA_DOUBLE@20 0068d7d4     netcdf:netcdf.dll
 0003:000007d8       __imp__NF_GET_VARS_DOUBLE@24 0068d7d8     netcdf:netcdf.dll
 0003:000007dc       __imp__NF_GET_VARM_DOUBLE@28 0068d7dc     netcdf:netcdf.dll
 0003:000007e0       __imp__NF_GET_VARA_REAL@20 0068d7e0     netcdf:netcdf.dll
 0003:000007e4       __imp__NF_CLOSE@4          0068d7e4     netcdf:netcdf.dll
 0003:000007e8       __imp__NF_GET_ATT_INT@20   0068d7e8     netcdf:netcdf.dll
 0003:000007ec       __imp__NF_INQ_ATTLEN@20    0068d7ec     netcdf:netcdf.dll
 0003:000007f0       __imp__NF_GET_VAR_REAL@12  0068d7f0     netcdf:netcdf.dll
 0003:000007f4       __imp__NF_INQ_DIMLEN@12    0068d7f4     netcdf:netcdf.dll
 0003:000007f8       __imp__NF_INQ_VARDIMID@12  0068d7f8     netcdf:netcdf.dll
 0003:000007fc       __imp__NF_INQ_VARID@16     0068d7fc     netcdf:netcdf.dll
 0003:00000800       __imp__NF_OPEN@16          0068d800     netcdf:netcdf.dll
 0003:00000804       __imp__NF_STRERROR@12      0068d804     netcdf:netcdf.dll
 0003:00000808       \177netcdf_NULL_THUNK_DATA 0068d808     netcdf:netcdf.dll
 0003:0000080c       ___xc_a                    0068d80c     LIBCMT:crt0init.obj
 0003:00000810       ___for_init_proc           0068d810     libifcoremt:for_init.obj
 0003:00000814       ___xc_z                    0068d814     LIBCMT:crt0init.obj
 0003:00000818       ___xi_a                    0068d818     LIBCMT:crt0init.obj
 0003:00000834       ___xi_z                    0068d834     LIBCMT:crt0init.obj
 0003:00000838       ___xp_a                    0068d838     LIBCMT:crt0init.obj
 0003:00000844       ___xp_z                    0068d844     LIBCMT:crt0init.obj
 0003:00000848       ___xt_a                    0068d848     LIBCMT:crt0init.obj
 0003:0000084c       ___xt_z                    0068d84c     LIBCMT:crt0init.obj
 0003:00000960       DSPTRF$BLK_debug_param_const 0068d960     lap.obj
 0003:00000980       DSPTRI$BLK_debug_param_const 0068d980     lap.obj
 0003:000009d4       DSPMV$BLK_debug_param_const 0068d9d4     lap.obj
 0003:000009e4       DSPR$BLK_debug_param_const 0068d9e4     lap.obj
 0003:00000a34       ELFE_GLBL_debug_param_const 0068da34     elfe_glbl.obj
 0003:00000a68       DATA_TYPE_MOD_debug_param_const 0068da68     data_type_mod.obj
 0003:00004304       ELFE_MSGP_debug_param_const 00691304     elfe_msgp.obj
 0003:00006520       TURB_FLUXES$BLK_debug_param_const 00693520     sflux_9c.obj
 0003:000065e0       ESAT_FLAT_R$BLK_debug_param_const 006935e0     sflux_9c.obj
 0003:00006640       CHECK_ERR$BLK_debug_param_const 00693640     sflux_9c.obj
 0003:00006880       GET_FILE_TIMES$BLK_debug_param_const 00693880     sflux_9c.obj
 0003:00006ac0       GET_DIMS$BLK_debug_param_const 00693ac0     sflux_9c.obj
 0003:00006d00       READ_COORD$BLK_debug_param_const 00693d00     sflux_9c.obj
 0003:00006f40       READ_DATA$BLK_debug_param_const 00693f40     sflux_9c.obj
 0003:000072d0       SURF_FLUXES$BLK_debug_param_const 006942d0     sflux_9c.obj
 0003:000074e0       PSI_M$BLK_debug_param_const 006944e0     sflux_9c.obj
 0003:000074e4       PSI_H$BLK_debug_param_const 006944e4     sflux_9c.obj
 0003:000074e8       ROTATE_WINDS$BLK_debug_param_const 006944e8     sflux_9c.obj
 0003:0000786c       NETCDF_IO_debug_param_const 0069486c     sflux_9c.obj
 0003:00007b20       GET_WIND$BLK_debug_param_const 00694b20     sflux_9c.obj
 0003:00007d9c       GET_RAD$BLK_debug_param_const 00694d9c     sflux_9c.obj
 0003:00007fe8       GET_PRECIP_FLUX$BLK_debug_param_const 00694fe8     sflux_9c.obj
 0003:00008034       GET_DATASET_INFO$BLK_debug_param_const 00695034     sflux_9c.obj
 0003:00008890       GET_TIMES_ETC$BLK_debug_param_const 00695890     sflux_9c.obj
 0003:000090a0       CHECK_TIMES$BLK_debug_param_const 006960a0     sflux_9c.obj
 0003:0000a9b8       GET_WEIGHT$BLK_debug_param_const 006979b8     sflux_9c.obj
 0003:0000a9cc       FIX_COORDS$BLK_debug_param_const 006979cc     sflux_9c.obj
 0003:0000a9d0       GET_SFLUX_INPUTS$BLK_debug_param_const 006979d0     sflux_9c.obj
 0003:0000a9dc       GET_BRACKET$BLK_debug_param_const 006979dc     sflux_9c.obj
 0003:0000aaa8       GET_SFLUX_DATA$BLK_debug_param_const 00697aa8     sflux_9c.obj
 0003:0000aab4       INTERP_TIME$BLK_debug_param_const 00697ab4     sflux_9c.obj
 0003:0000aab8       INTERP_GRID$BLK_debug_param_const 00697ab8     sflux_9c.obj
 0003:0000aabc       COMBINE_SFLUX_DATA$BLK_debug_param_const 00697abc     sflux_9c.obj
 0003:0000abf0       CHECK_ERROR_MOD_debug_param_const 00697bf0     check_error.obj
 0003:0000b220       NSF_CONTAINER_MOD_debug_param_const 00698220     nsf_container.obj
 0003:0000c8d0       NSF_SELF_VARS_MOD_debug_param_const 006998d0     nsf_self_vars.obj
 0003:0000ca08       GET_PARAM$BLK_debug_param_const 00699a08     read_param.obj
 0003:00012920       ELFE$BLK_debug_param_const 0069f920     elfe_main.obj
 0003:00014e10       JET_MODEL$BLK_debug_param_const 006a1e10     jet.obj
 0003:00014e14       AMBIENT$BLK_debug_param_const 006a1e14     jet.obj
 0003:000153b0       SOLVE_JCG$BLK_debug_param_const 006a23b0     solver_subs.obj
 0003:00015508       SOLVE_JCG_QNON$BLK_debug_param_const 006a2508     solver_subs.obj
 0003:00015514       TRIDAG$BLK_debug_param_const 006a2514     solver_subs.obj
 0003:00016720       INIT_INTER_BTRACK$BLK_debug_param_const 006a3720     bktrk_subs.obj
 0003:00016750       INTER_BTRACK$BLK_debug_param_const 006a3750     bktrk_subs.obj
 0003:00016940       BTRACK$BLK_debug_param_const 006a3940     bktrk_subs.obj
 0003:00016bf8       QUICKSEARCH$BLK_debug_param_const 006a3bf8     bktrk_subs.obj
 0003:00016c0c       INTERSECT2$BLK_debug_param_const 006a3c0c     bktrk_subs.obj
 0003:00016c18       AREA_COORD$BLK_debug_param_const 006a3c18     bktrk_subs.obj
 0003:00019110       SUMS$BLK_debug_param_const 006a6110     grid_subs.obj
 0003:00019114       SIGNA$BLK_debug_param_const 006a6114     grid_subs.obj
 0003:00019118       CPP$BLK_debug_param_const  006a6118     grid_subs.obj
 0003:00019520       DUMP_HGRID$BLK_debug_param_const 006a6520     grid_subs.obj
 0003:00019524       PARTITION_HGRID$BLK_debug_param_const 006a6524     grid_subs.obj
 0003:000195e4       AQUIRE_VGRID$BLK_debug_param_const 006a65e4     grid_subs.obj
 0003:00019ab4       AQUIRE_HGRID$BLK_debug_param_const 006a6ab4     grid_subs.obj
 0003:0001a6b4       LEVELS0$BLK_debug_param_const 006a76b4     misc_subs.obj
 0003:0001a700       NODALVEL$BLK_debug_param_const 006a7700     misc_subs.obj
 0003:0001a73c       VINTER$BLK_debug_param_const 006a773c     misc_subs.obj
 0003:0001a798       EQSTATE$BLK_debug_param_const 006a7798     misc_subs.obj
 0003:0001a7c0       ASM$BLK_debug_param_const  006a77c0     misc_subs.obj
 0003:0001a878       RINT_LAG$BLK_debug_param_const 006a7878     misc_subs.obj
 0003:0001a87c       LINDEX_S$BLK_debug_param_const 006a787c     misc_subs.obj
 0003:0001a8bc       COVAR$BLK_debug_param_const 006a78bc     misc_subs.obj
 0003:0001a8dc       EVAL_CUBIC_SPLINE$BLK_debug_param_const 006a78dc     misc_subs.obj
 0003:0001a934       CUBIC_SPLINE$BLK_debug_param_const 006a7934     misc_subs.obj
 0003:0001a938       DO_CUBIC_SPLINE$BLK_debug_param_const 006a7938     misc_subs.obj
 0003:0001a93c       MEAN_DENSITY$BLK_debug_param_const 006a793c     misc_subs.obj
 0003:0001a990       HGRAD_NODES$BLK_debug_param_const 006a7990     misc_subs.obj
 0003:0001b700       DO_TRANSPORT_TVD$BLK_debug_param_const 006a8700     transport.obj
 0003:0001b728       FLUX_LIM$BLK_debug_param_const 006a8728     transport.obj
 0003:0001c6f8       WRITE_HEADER1$BLK_debug_param_const 006a96f8     io_subs.obj
 0003:0001c718       WRITE_HEADER0$BLK_debug_param_const 006a9718     io_subs.obj
 0003:0001ce14       REPORT_TIMERS$BLK_debug_param_const 006a9e14     io_subs.obj
 0003:0001ce40       ??_C@_0BB@HHKNGLPF@mpi_cart_create_?$AA@ 006a9e40     msmpifec:mpif.obj
 0003:0001ce54       ??_C@_0BI@DEJANJFK@mpi_get_processor_name_?$AA@ 006a9e54     msmpifec:mpif.obj
 0003:0001ce6c       ??_C@_0BC@BDLFBECD@mpi_error_string_?$AA@ 006a9e6c     msmpifec:mpif.obj
 0003:0001ce80       ??_C@_0BA@DHJJBKMD@mpi_close_port_?$AA@ 006a9e80     msmpifec:mpif.obj
 0003:0001ce90       ??_C@_0BB@EKPKKJAO@mpi_comm_accept_?$AA@ 006a9e90     msmpifec:mpif.obj
 0003:0001cea4       ??_C@_0BC@PJEOOECK@mpi_comm_connect_?$AA@ 006a9ea4     msmpifec:mpif.obj
 0003:0001ceb8       ??_C@_0BA@ELMDEBLE@mpi_comm_spawn_?$AA@ 006a9eb8     msmpifec:mpif.obj
 0003:0001cec8       ??_C@_0BJ@LNHNNKHL@mpi_comm_spawn_multiple_?$AA@ 006a9ec8     msmpifec:mpif.obj
 0003:0001cee4       ??_C@_0BB@GHMLAAI@mpi_lookup_name_?$AA@ 006a9ee4     msmpifec:mpif.obj
 0003:0001cef8       ??_C@_0P@DHDKGBHO@mpi_open_port_?$AA@ 006a9ef8     msmpifec:mpif.obj
 0003:0001cf08       ??_C@_0BC@BLJIHCJF@mpi_publish_name_?$AA@ 006a9f08     msmpifec:mpif.obj
 0003:0001cf1c       ??_C@_0BE@EFBNDAJF@mpi_unpublish_name_?$AA@ 006a9f1c     msmpifec:mpif.obj
 0003:0001cf30       ??_C@_0BG@PPNGKJGL@mpi_add_error_string_?$AA@ 006a9f30     msmpifec:mpif.obj
 0003:0001cf48       ??_C@_0BD@INCBLELI@mpi_comm_get_name_?$AA@ 006a9f48     msmpifec:mpif.obj
 0003:0001cf5c       ??_C@_0BD@KDGEJFCK@mpi_comm_set_name_?$AA@ 006a9f5c     msmpifec:mpif.obj
 0003:0001cf70       ??_C@_0BD@DJBFODGN@mpi_type_get_name_?$AA@ 006a9f70     msmpifec:mpif.obj
 0003:0001cf84       ??_C@_0BD@BHFAMCPP@mpi_type_set_name_?$AA@ 006a9f84     msmpifec:mpif.obj
 0003:0001cf98       ??_C@_0BC@OGNIIME@mpi_win_get_name_?$AA@ 006a9f98     msmpifec:mpif.obj
 0003:0001cfac       ??_C@_0BC@CACIKJFG@mpi_win_set_name_?$AA@ 006a9fac     msmpifec:mpif.obj
 0003:0001cfc0       ??_C@_0BB@IEDEADKF@mpi_info_delete_?$AA@ 006a9fc0     msmpifec:mpif.obj
 0003:0001cfd4       ??_C@_0O@JHOKANFA@mpi_info_get_?$AA@ 006a9fd4     msmpifec:mpif.obj
 0003:0001cfe4       ??_C@_0BF@GAEAGEKF@mpi_info_get_nthkey_?$AA@ 006a9fe4     msmpifec:mpif.obj
 0003:0001cffc       ??_C@_0BH@LANGAFGA@mpi_info_get_valuelen_?$AA@ 006a9ffc     msmpifec:mpif.obj
 0003:0001d014       ??_C@_0O@CIKDMBC@mpi_info_set_?$AA@ 006aa014     msmpifec:mpif.obj
 0003:0001d024       ??_C@_0BD@OAFEODFP@mpi_pack_external_?$AA@ 006aa024     msmpifec:mpif.obj
 0003:0001d038       ??_C@_0BI@CFGLKBLH@mpi_pack_external_size_?$AA@ 006aa038     msmpifec:mpif.obj
 0003:0001d050       ??_C@_0BF@OAAKGGBN@mpi_unpack_external_?$AA@ 006aa050     msmpifec:mpif.obj
 0003:0001d068       ??_C@_0P@KKEKKGEJ@mpi_file_open_?$AA@ 006aa068     msmpifec:mpif.obj
 0003:0001d078       ??_C@_0BB@CCFBPHFC@mpi_file_delete_?$AA@ 006aa078     msmpifec:mpif.obj
 0003:0001d08c       ??_C@_0BD@LGFIFLKK@mpi_file_set_view_?$AA@ 006aa08c     msmpifec:mpif.obj
 0003:0001d0a0       ??_C@_0BD@JIBNHKDI@mpi_file_get_view_?$AA@ 006aa0a0     msmpifec:mpif.obj
 0003:0001d0b4       ??_C@_0BG@CMPEADFA@mpi_register_datarep_?$AA@ 006aa0b4     msmpifec:mpif.obj
 0003:0001d2c0       ??_C@_07A@unknown?$AA@     006aa2c0     libifcoremt:for_wseq_fmt.obj
 0003:0001d2c8       ??_C@_0P@A@for_wseq_fmt?4c?$AA@ 006aa2c8     libifcoremt:for_wseq_fmt.obj
 0003:0001d2d8       ??_C@_03A@YES?$AA@         006aa2d8     libifcoremt:for_wseq_fmt.obj
 0003:0001d2dc       ??_C@_02A@NO?$AA@          006aa2dc     libifcoremt:for_wseq_fmt.obj
 0003:0001d320       ??_C@_0L@A@for_stop?4c?$AA@ 006aa320     libifcoremt:for_stop.obj
 0003:0001d574       ??_C@_07A@FORTRAN?$AA@     006aa574     libifcoremt:for_inquire.obj
 0003:0001d57c       ??_C@_04A@LIST?$AA@        006aa57c     libifcoremt:for_inquire.obj
 0003:0001d584       ??_C@_04A@NONE?$AA@        006aa584     libifcoremt:for_inquire.obj
 0003:0001d58c       ??_C@_09A@UNDEFINED?$AA@   006aa58c     libifcoremt:for_inquire.obj
 0003:0001d598       ??_C@_07A@UNKNOWN?$AA@     006aa598     libifcoremt:for_inquire.obj
 0003:0001d5a0       ??_C@_0O@A@for_inquire?4c?$AA@ 006aa5a0     libifcoremt:for_inquire.obj
 0003:0001d5b0       ??_C@_0L@A@SEQUENTIAL?$AA@ 006aa5b0     libifcoremt:for_inquire.obj
 0003:0001d5bc       ??_C@_08A@RELATIVE?$AA@    006aa5bc     libifcoremt:for_inquire.obj
 0003:0001d5c8       ??_C@_07A@INDEXED?$AA@     006aa5c8     libifcoremt:for_inquire.obj
 0003:0001d5d0       ??_C@_05A@FIXED?$AA@       006aa5d0     libifcoremt:for_inquire.obj
 0003:0001d5d8       ??_C@_06A@STREAM?$AA@      006aa5d8     libifcoremt:for_inquire.obj
 0003:0001d5e0       ??_C@_09A@STREAM_LF?$AA@   006aa5e0     libifcoremt:for_inquire.obj
 0003:0001d5ec       ??_C@_09A@STREAM_CR?$AA@   006aa5ec     libifcoremt:for_inquire.obj
 0003:0001d5f8       ??_C@_0M@A@STREAM_CRLF?$AA@ 006aa5f8     libifcoremt:for_inquire.obj
 0003:0001d604       ??_C@_08A@VARIABLE?$AA@    006aa604     libifcoremt:for_inquire.obj
 0003:0001d610       ??_C@_09A@SEGMENTED?$AA@   006aa610     libifcoremt:for_inquire.obj
 0003:0001d61c       ??_C@_04A@READ?$AA@        006aa61c     libifcoremt:for_inquire.obj
 0003:0001d624       ??_C@_05A@WRITE?$AA@       006aa624     libifcoremt:for_inquire.obj
 0003:0001d62c       ??_C@_09A@READWRITE?$AA@   006aa62c     libifcoremt:for_inquire.obj
 0003:0001d638       ??_C@_0L@A@APOSTROPHE?$AA@ 006aa638     libifcoremt:for_inquire.obj
 0003:0001d644       ??_C@_05A@QUOTE?$AA@       006aa644     libifcoremt:for_inquire.obj
 0003:0001d64c       ??_C@_06A@REWIND?$AA@      006aa64c     libifcoremt:for_inquire.obj
 0003:0001d654       ??_C@_04A@ASIS?$AA@        006aa654     libifcoremt:for_inquire.obj
 0003:0001d65c       ??_C@_06A@APPEND?$AA@      006aa65c     libifcoremt:for_inquire.obj
 0003:0001d664       ??_C@_06A@DIRECT?$AA@      006aa664     libifcoremt:for_inquire.obj
 0003:0001d66c       ??_C@_05A@KEYED?$AA@       006aa66c     libifcoremt:for_inquire.obj
 0003:0001d674       ??_C@_04A@NULL?$AA@        006aa674     libifcoremt:for_inquire.obj
 0003:0001d67c       ??_C@_04A@ZERO?$AA@        006aa67c     libifcoremt:for_inquire.obj
 0003:0001d684       ??_C@_09A@FORMATTED?$AA@   006aa684     libifcoremt:for_inquire.obj
 0003:0001d690       ??_C@_06A@BINARY?$AA@      006aa690     libifcoremt:for_inquire.obj
 0003:0001d698       ??_C@_0M@A@UNFORMATTED?$AA@ 006aa698     libifcoremt:for_inquire.obj
 0003:0001d6a4       ??_C@_02A@UP?$AA@          006aa6a4     libifcoremt:for_inquire.obj
 0003:0001d6a8       ??_C@_04A@DOWN?$AA@        006aa6a8     libifcoremt:for_inquire.obj
 0003:0001d6b0       ??_C@_07A@NEAREST?$AA@     006aa6b0     libifcoremt:for_inquire.obj
 0003:0001d6b8       ??_C@_0L@A@COMPATIBLE?$AA@ 006aa6b8     libifcoremt:for_inquire.obj
 0003:0001d6c4       ??_C@_0BC@A@PROCESSOR_DEFINED?$AA@ 006aa6c4     libifcoremt:for_inquire.obj
 0003:0001d6d8       ??_C@_05A@POINT?$AA@       006aa6d8     libifcoremt:for_inquire.obj
 0003:0001d6e0       ??_C@_05A@COMMA?$AA@       006aa6e0     libifcoremt:for_inquire.obj
 0003:0001d6e8       ??_C@_04A@PLUS?$AA@        006aa6e8     libifcoremt:for_inquire.obj
 0003:0001d6f0       ??_C@_08A@SUPPRESS?$AA@    006aa6f0     libifcoremt:for_inquire.obj
 0003:0001d6fc       ??_C@_05A@UTF?98?$AA@      006aa6fc     libifcoremt:for_inquire.obj
 0003:0001d718       ??_C@_0P@A@for_wint_lis?4c?$AA@ 006aa718     libifcoremt:for_wint_lis.obj
 0003:0001d728       ??_C@_0BN@A@Internal?5List?9Directed?5Write?$AA@ 006aa728     libifcoremt:for_wint_lis.obj
 0003:0001db20       ??_C@_0GL@A@D?3?2users?2nbtester?2x86win_nightly?2branch?911_1?220090625_000000?2libdev?2frtl?2src?2libfor?2for_array_descriptor?4h?$AA@ 006aab20     libifcoremt:for_contig_array.obj
 0003:0001dbc0       ??_C@_0N@A@for_f90str?4c?$AA@ 006aabc0     libifcoremt:for_f90str.obj
 0003:0001dd20       ??_C@_0P@A@for_wint_fmt?4c?$AA@ 006aad20     libifcoremt:for_wint_fmt.obj
 0003:0001dd30       ??_C@_0CD@A@Internal?5Formatted?5Write?5or?5ENCODE?$AA@ 006aad30     libifcoremt:for_wint_fmt.obj
 0003:0001dd54       ??_C@_06A@ENCODE?$AA@      006aad54     libifcoremt:for_wint_fmt.obj
 0003:0001dd5c       ??_C@_0BJ@A@Internal?5Formatted?5Write?$AA@ 006aad5c     libifcoremt:for_wint_fmt.obj
 0003:0001e7e0       ??_C@_0N@A@F_UFMTENDIAN?$AA@ 006ab7e0     libifcoremt:for_open.obj
 0003:0001e7f0       ??_C@_0BD@A@FOR_FMT_TERMINATOR?$AA@ 006ab7f0     libifcoremt:for_open.obj
 0003:0001e804       ??_C@_06A@little?$AA@      006ab804     libifcoremt:for_open.obj
 0003:0001e80c       ??_C@_03A@big?$AA@         006ab80c     libifcoremt:for_open.obj
 0003:0001e810       ??_C@_07A@little?$DL?$AA@  006ab810     libifcoremt:for_open.obj
 0003:0001e818       ??_C@_04A@big?$DL?$AA@     006ab818     libifcoremt:for_open.obj
 0003:0001e820       ??_C@_07A@little?3?$AA@    006ab820     libifcoremt:for_open.obj
 0003:0001e828       ??_C@_04A@big?3?$AA@       006ab828     libifcoremt:for_open.obj
 0003:0001e830       ??_C@_04A@CRLF?$AA@        006ab830     libifcoremt:for_open.obj
 0003:0001e838       ??_C@_02A@LF?$AA@          006ab838     libifcoremt:for_open.obj
 0003:0001e83c       ??_C@_02A@CR?$AA@          006ab83c     libifcoremt:for_open.obj
 0003:0001e840       ??_C@_05A@CRLF?$DL?$AA@    006ab840     libifcoremt:for_open.obj
 0003:0001e848       ??_C@_03A@LF?$DL?$AA@      006ab848     libifcoremt:for_open.obj
 0003:0001e84c       ??_C@_03A@CR?$DL?$AA@      006ab84c     libifcoremt:for_open.obj
 0003:0001e850       ??_C@_05A@CRLF?3?$AA@      006ab850     libifcoremt:for_open.obj
 0003:0001e858       ??_C@_03A@LF?3?$AA@        006ab858     libifcoremt:for_open.obj
 0003:0001e85c       ??_C@_03A@CR?3?$AA@        006ab85c     libifcoremt:for_open.obj
 0003:0001e860       ??_C@_08A@FOR_TYPE?$AA@    006ab860     libifcoremt:for_open.obj
 0003:0001e86c       ??_C@_09A@FOR_PRINT?$AA@   006ab86c     libifcoremt:for_open.obj
 0003:0001e878       ??_C@_0L@A@FOR_ACCEPT?$AA@ 006ab878     libifcoremt:for_open.obj
 0003:0001e884       ??_C@_08A@FOR_READ?$AA@    006ab884     libifcoremt:for_open.obj
 0003:0001e890       ??_C@_0L@A@for_open?4c?$AA@ 006ab890     libifcoremt:for_open.obj
 0003:0001e89c       ??_C@_04A@SAVE?$AA@        006ab89c     libifcoremt:for_open.obj
 0003:0001e8a4       ??_C@_04A@KEEP?$AA@        006ab8a4     libifcoremt:for_open.obj
 0003:0001e8ac       ??_C@_06A@DELETE?$AA@      006ab8ac     libifcoremt:for_open.obj
 0003:0001e8b4       ??_C@_05A@PRINT?$AA@       006ab8b4     libifcoremt:for_open.obj
 0003:0001e8bc       ??_C@_06A@SUBMIT?$AA@      006ab8bc     libifcoremt:for_open.obj
 0003:0001e8c4       ??_C@_0N@A@PRINT?1DELETE?$AA@ 006ab8c4     libifcoremt:for_open.obj
 0003:0001e8d4       ??_C@_0O@A@SUBMIT?1DELETE?$AA@ 006ab8d4     libifcoremt:for_open.obj
 0003:0001e8e4       ??_C@_03A@OLD?$AA@         006ab8e4     libifcoremt:for_open.obj
 0003:0001e8e8       ??_C@_03A@NEW?$AA@         006ab8e8     libifcoremt:for_open.obj
 0003:0001e8ec       ??_C@_07A@SCRATCH?$AA@     006ab8ec     libifcoremt:for_open.obj
 0003:0001e8f4       ??_C@_07A@REPLACE?$AA@     006ab8f4     libifcoremt:for_open.obj
 0003:0001e8fc       ??_C@_0L@A@BIG_ENDIAN?$AA@ 006ab8fc     libifcoremt:for_open.obj
 0003:0001e908       ??_C@_0O@A@LITTLE_ENDIAN?$AA@ 006ab908     libifcoremt:for_open.obj
 0003:0001e918       ??_C@_04A@VAXD?$AA@        006ab918     libifcoremt:for_open.obj
 0003:0001e920       ??_C@_04A@VAXG?$AA@        006ab920     libifcoremt:for_open.obj
 0003:0001e928       ??_C@_04A@CRAY?$AA@        006ab928     libifcoremt:for_open.obj
 0003:0001e930       ??_C@_03A@IBM?$AA@         006ab930     libifcoremt:for_open.obj
 0003:0001e934       ??_C@_03A@FDX?$AA@         006ab934     libifcoremt:for_open.obj
 0003:0001e938       ??_C@_03A@FGX?$AA@         006ab938     libifcoremt:for_open.obj
 0003:0001e93c       ??_C@_06A@NATIVE?$AA@      006ab93c     libifcoremt:for_open.obj
 0003:0001e944       ??_C@_06A@COMPAT?$AA@      006ab944     libifcoremt:for_open.obj
 0003:0001e94c       ??_C@_08A@DENYNONE?$AA@    006ab94c     libifcoremt:for_open.obj
 0003:0001e958       ??_C@_06A@DENYRD?$AA@      006ab958     libifcoremt:for_open.obj
 0003:0001e960       ??_C@_06A@DENYRW?$AA@      006ab960     libifcoremt:for_open.obj
 0003:0001e968       ??_C@_06A@DENYWR?$AA@      006ab968     libifcoremt:for_open.obj
 0003:0001e970       ??_C@_07A@DEFAULT?$AA@     006ab970     libifcoremt:for_open.obj
 0003:0001e978       ??_C@_07A@ACCESS?$DN?$AA@  006ab978     libifcoremt:for_open.obj
 0003:0001e980       ??_C@_07A@ACTION?$DN?$AA@  006ab980     libifcoremt:for_open.obj
 0003:0001e988       ??_C@_0BD@A@ASSOCIATEVARIABLE?$DN?$AA@ 006ab988     libifcoremt:for_open.obj
 0003:0001e99c       ??_C@_0O@A@ASYNCHRONOUS?$DN?$AA@ 006ab99c     libifcoremt:for_open.obj
 0003:0001e9ac       ??_C@_09A@BUFFERED?$DN?$AA@ 006ab9ac     libifcoremt:for_open.obj
 0003:0001e9b8       ??_C@_08A@DISPOSE?$DN?$AA@ 006ab9b8     libifcoremt:for_open.obj
 0003:0001e9c4       ??_C@_05A@FORM?$DN?$AA@    006ab9c4     libifcoremt:for_open.obj
 0003:0001e9cc       ??_C@_08A@IOFOCUS?$DN?$AA@ 006ab9cc     libifcoremt:for_open.obj
 0003:0001e9d8       ??_C@_07A@MAXREC?$DN?$AA@  006ab9d8     libifcoremt:for_open.obj
 0003:0001e9e0       ??_C@_05A@MODE?$DN?$AA@    006ab9e0     libifcoremt:for_open.obj
 0003:0001e9e8       ??_C@_08A@NOSHARED?$AA@    006ab9e8     libifcoremt:for_open.obj
 0003:0001e9f4       ??_C@_0O@A@ORGANIZATION?$DN?$AA@ 006ab9f4     libifcoremt:for_open.obj
 0003:0001ea04       ??_C@_09A@POSITION?$DN?$AA@ 006aba04     libifcoremt:for_open.obj
 0003:0001ea10       ??_C@_08A@READONLY?$AA@    006aba10     libifcoremt:for_open.obj
 0003:0001ea1c       ??_C@_05A@RECL?$DN?$AA@    006aba1c     libifcoremt:for_open.obj
 0003:0001ea24       ??_C@_0M@A@RECORDTYPE?$DN?$AA@ 006aba24     libifcoremt:for_open.obj
 0003:0001ea30       ??_C@_06A@SHARE?$DN?$AA@   006aba30     libifcoremt:for_open.obj
 0003:0001ea38       ??_C@_06A@SHARED?$AA@      006aba38     libifcoremt:for_open.obj
 0003:0001ea40       ??_C@_07A@STATUS?$DN?$AA@  006aba40     libifcoremt:for_open.obj
 0003:0001ea48       ??_C@_06A@TITLE?$DN?$AA@   006aba48     libifcoremt:for_open.obj
 0003:0001ea50       ??_C@_0N@A@FORT_CONVERT?$AA@ 006aba50     libifcoremt:for_open.obj
 0003:0001ea60       ??_C@_0P@A@FORT_CONVERT?$CFd?$AA@ 006aba60     libifcoremt:for_open.obj
 0003:0001ea70       ??_C@_06A@CONIN$?$AA@      006aba70     libifcoremt:for_open.obj
 0003:0001ea78       ??_C@_07A@CONOUT$?$AA@     006aba78     libifcoremt:for_open.obj
 0003:0001ea80       ??_C@_0N@A@for_rewind?4c?$AA@ 006aba80     libifcoremt:for_rewind.obj
 0003:0001ec04       ??_C@_0P@A@for_wseq_lis?4c?$AA@ 006abc04     libifcoremt:for_wseq_lis.obj
 0003:0001f2e0       ??_C@_0P@A@for_rseq_lis?4c?$AA@ 006ac2e0     libifcoremt:for_rseq_lis.obj
 0003:0001f2f0       ??_C@_08A@INFINITY?$AA@    006ac2f0     libifcoremt:for_rseq_lis.obj
 0003:0001f2fc       ??_C@_03A@NAN?$AA@         006ac2fc     libifcoremt:for_rseq_lis.obj
 0003:0001fe40       ??_C@_00A@?$AA@            006ace40     libifcoremt:for_rseq_nml.obj
 0003:0001fe44       ??_C@_0P@A@for_rseq_nml?4c?$AA@ 006ace44     libifcoremt:for_rseq_nml.obj
 0003:0001fe54       ??_C@_0BM@A@Internal?5Formatted?5NML?5Read?$AA@ 006ace54     libifcoremt:for_rseq_nml.obj
 0003:0001fe70       ??_C@_0L@A@NML?5DECODE?$AA@ 006ace70     libifcoremt:for_rseq_nml.obj
 0003:0001fe7c       ??_C@_05A@?$CFI64d?$AA@    006ace7c     libifcoremt:for_90_date.obj
 0003:0001fe84       ??_C@_06A@?$CFY?$CFm?$CFd?$AA@ 006ace84     libifcoremt:for_90_date.obj
 0003:0001fe8c       ??_C@_07A@?$CFH?$CFM?$CFS?4?$AA@ 006ace8c     libifcoremt:for_90_date.obj
 0003:0001fe94       ??_C@_08A@?$CF3?43I64d?$AA@ 006ace94     libifcoremt:for_90_date.obj
 0003:0001fea0       ??_C@_0N@A@?$CFc?$CF2?42d?$CF2?42d?$AA@ 006acea0     libifcoremt:for_90_date.obj
 0003:000200c0       ??_C@_0P@A@for_rseq_fmt?4c?$AA@ 006ad0c0     libifcoremt:for_rseq_fmt.obj
 0003:000206e0       ??_C@_0P@A@for_rint_lis?4c?$AA@ 006ad6e0     libifcoremt:for_rint_lis.obj
 0003:000206f0       ??_C@_0BM@A@Internal?5List?9Directed?5Read?$AA@ 006ad6f0     libifcoremt:for_rint_lis.obj
 0003:0002070c       ??_C@_0BB@A@for_reentrancy?4c?$AA@ 006ad70c     libifcoremt:for_reentrancy.obj
 0003:00020720       ??_C@_0L@A@for_rseq?4c?$AA@ 006ad720     libifcoremt:for_rseq.obj
 0003:00020790       ??_C@_0L@A@for_rdir?4c?$AA@ 006ad790     libifcoremt:for_rdir.obj
 0003:000208a0       ??_C@_0L@A@for_wseq?4c?$AA@ 006ad8a0     libifcoremt:for_wseq.obj
 0003:000208e0       ??_C@_0L@A@for_wdir?4c?$AA@ 006ad8e0     libifcoremt:for_wdir.obj
 0003:00020a60       ??_C@_0O@A@for_lub_mgt?4c?$AA@ 006ada60     libifcoremt:for_lub_mgt.obj
 0003:00020a70       ??_C@_06A@FORT?$CFd?$AA@   006ada70     libifcoremt:for_lub_mgt.obj
 0003:00020a78       ??_C@_0P@A@FORT_BLOCKSIZE?$AA@ 006ada78     libifcoremt:for_lub_mgt.obj
 0003:00020a88       ??_C@_0BB@A@FORT_BUFFERCOUNT?$AA@ 006ada88     libifcoremt:for_lub_mgt.obj
 0003:00020a9c       ??_C@_0O@A@FORT_FMT_RECL?$AA@ 006ada9c     libifcoremt:for_lub_mgt.obj
 0003:00020aac       ??_C@_0P@A@FORT_UFMT_RECL?$AA@ 006adaac     libifcoremt:for_lub_mgt.obj
 0003:00020af0       ??_C@_0CB@A@operation?5completed?5successfully?$AA@ 006adaf0     libifcoremt:for_diags_intel.obj
 0003:00020b14       ??_C@_0BN@A@not?5a?5FORTRAN?5specific?5error?$AA@ 006adb14     libifcoremt:for_diags_intel.obj
 0003:00020b34       ??_C@_0BA@A@not?5implemented?$AA@ 006adb34     libifcoremt:for_diags_intel.obj
 0003:00020b44       ??_C@_0BO@A@ignored?5requested?5disposition?$AA@ 006adb44     libifcoremt:for_diags_intel.obj
 0003:00020b64       ??_C@_0DA@A@ignored?5requested?5disposition?0?5file?5not?5deleted?$AA@ 006adb64     libifcoremt:for_diags_intel.obj
 0003:00020ba0       ??_C@_0ED@A@requested?5disposition?5modified?0?5file?5not?5deleted?0?5unit?5?$CFd?0?5file?5?$CFs?$AA@ 006adba0     libifcoremt:for_diags_intel.obj
 0003:00020c00       ??_C@_0DM@A@?$EA?$CI?$CD?$CJIntel?5Fortran?5RTL?5Message?5Catalog?7V11?41?9004?513?9Jun?92009?$AA@ 006adc00     libifcoremt:for_diags_intel.obj
 0003:00020c3c       ??_C@_0DF@A@internal?5consistency?5check?5failure?0?5file?5?$CFs?0?5line?5?$CFd?$AA@ 006adc3c     libifcoremt:for_diags_intel.obj
 0003:00020c74       ??_C@_0DD@A@permission?5to?5access?5file?5denied?0?5unit?5?$CFd?0?5file?5?$CFs?$AA@ 006adc74     libifcoremt:for_diags_intel.obj
 0003:00020ca8       ??_C@_0DB@A@cannot?5overwrite?5existing?5file?0?5unit?5?$CFd?0?5file?5?$CFs?$AA@ 006adca8     libifcoremt:for_diags_intel.obj
 0003:00020cdc       ??_C@_0BD@A@unit?5not?5connected?$AA@ 006adcdc     libifcoremt:for_diags_intel.obj
 0003:00020cf0       ??_C@_0DD@A@SOURCE?5length?5?$CFd?5does?5not?5equal?5variable?5length?5?$CFd?$AA@ 006adcf0     libifcoremt:for_diags_intel.obj
 0003:00020d24       ??_C@_0DB@A@syntax?5error?5in?5NAMELIST?5input?0?5unit?5?$CFd?0?5file?5?$CFs?$AA@ 006add24     libifcoremt:for_diags_intel.obj
 0003:00020d58       ??_C@_0DI@A@too?5many?5values?5for?5NAMELIST?5variable?0?5unit?5?$CFd?0?5file?5?$CFs?$AA@ 006add58     libifcoremt:for_diags_intel.obj
 0003:00020da0       ??_C@_0EC@A@invalid?5reference?5to?5variable?5in?5NAMELIST?5input?0?5unit?5?$CFd?0?5file?5?$CFs?$AA@ 006adda0     libifcoremt:for_diags_intel.obj
 0003:00020e00       ??_C@_0BP@A@REWIND?5error?0?5unit?5?$CFd?0?5file?5?$CFs?$AA@ 006ade00     libifcoremt:for_diags_intel.obj
 0003:00020e20       ??_C@_0DA@A@duplicate?5file?5specifications?0?5unit?5?$CFd?0?5file?5?$CFs?$AA@ 006ade20     libifcoremt:for_diags_intel.obj
 0003:00020e50       ??_C@_0CI@A@input?5record?5too?5long?0?5unit?5?$CFd?0?5file?5?$CFs?$AA@ 006ade50     libifcoremt:for_diags_intel.obj
 0003:00020e78       ??_C@_0CC@A@BACKSPACE?5error?0?5unit?5?$CFd?0?5file?5?$CFs?$AA@ 006ade78     libifcoremt:for_diags_intel.obj
 0003:00020e9c       ??_C@_0CK@A@end?9of?9file?5during?5read?0?5unit?5?$CFd?0?5file?5?$CFs?$AA@ 006ade9c     libifcoremt:for_diags_intel.obj
 0003:00020ec8       ??_C@_0CO@A@record?5number?5outside?5range?0?5unit?5?$CFd?0?5file?5?$CFs?$AA@ 006adec8     libifcoremt:for_diags_intel.obj
 0003:00020ef8       ??_C@_0BN@A@OPEN?5or?5DEFINE?5FILE?5required?$AA@ 006adef8     libifcoremt:for_diags_intel.obj
 0003:00020f18       ??_C@_0DE@A@too?5many?5records?5in?5I?1O?5statement?0?5unit?5?$CFd?0?5file?5?$CFs?$AA@ 006adf18     libifcoremt:for_diags_intel.obj
 0003:00020f4c       ??_C@_0BO@A@CLOSE?5error?0?5unit?5?$CFd?0?5file?5?$CFs?$AA@ 006adf4c     libifcoremt:for_diags_intel.obj
 0003:00020f6c       ??_C@_0CB@A@file?5not?5found?0?5unit?5?$CFd?0?5file?5?$CFs?$AA@ 006adf6c     libifcoremt:for_diags_intel.obj
 0003:00020f90       ??_C@_0BP@A@open?5failure?0?5unit?5?$CFd?0?5file?5?$CFs?$AA@ 006adf90     libifcoremt:for_diags_intel.obj
 0003:00020fb0       ??_C@_0CK@A@mixed?5file?5access?5modes?0?5unit?5?$CFd?0?5file?5?$CFs?$AA@ 006adfb0     libifcoremt:for_diags_intel.obj
 0003:00020fdc       ??_C@_0CO@A@invalid?5logical?5unit?5number?0?5unit?5?$CFd?0?5file?5?$CFs?$AA@ 006adfdc     libifcoremt:for_diags_intel.obj
 0003:0002100c       ??_C@_0CA@A@ENDFILE?5error?0?5unit?5?$CFd?0?5file?5?$CFs?$AA@ 006ae00c     libifcoremt:for_diags_intel.obj
 0003:0002102c       ??_C@_0CE@A@unit?5already?5open?0?5unit?5?$CFd?0?5file?5?$CFs?$AA@ 006ae02c     libifcoremt:for_diags_intel.obj
 0003:00021050       ??_C@_0DA@A@segmented?5record?5format?5error?0?5unit?5?$CFd?0?5file?5?$CFs?$AA@ 006ae050     libifcoremt:for_diags_intel.obj
 0003:00021080       ??_C@_0DI@A@attempt?5to?5access?5non?9existent?5record?0?5unit?5?$CFd?0?5file?5?$CFs?$AA@ 006ae080     libifcoremt:for_diags_intel.obj
 0003:000210b8       ??_C@_0CN@A@inconsistent?5record?5length?0?5unit?5?$CFd?0?5file?5?$CFs?$AA@ 006ae0b8     libifcoremt:for_diags_intel.obj
 0003:000210e8       ??_C@_0CF@A@error?5during?5write?0?5unit?5?$CFd?0?5file?5?$CFs?$AA@ 006ae0e8     libifcoremt:for_diags_intel.obj
 0003:00021110       ??_C@_0CE@A@error?5during?5read?0?5unit?5?$CFd?0?5file?5?$CFs?$AA@ 006ae110     libifcoremt:for_diags_intel.obj
 0003:00021134       ??_C@_0CK@A@recursive?5I?1O?5operation?0?5unit?5?$CFd?0?5file?5?$CFs?$AA@ 006ae134     libifcoremt:for_diags_intel.obj
 0003:00021160       ??_C@_0BM@A@insufficient?5virtual?5memory?$AA@ 006ae160     libifcoremt:for_diags_intel.obj
 0003:0002117c       ??_C@_0CB@A@no?5such?5device?0?5unit?5?$CFd?0?5file?5?$CFs?$AA@ 006ae17c     libifcoremt:for_diags_intel.obj
 0003:000211a0       ??_C@_0DA@A@file?5name?5specification?5error?0?5unit?5?$CFd?0?5file?5?$CFs?$AA@ 006ae1a0     libifcoremt:for_diags_intel.obj
 0003:000211d0       ??_C@_0CL@A@inconsistent?5record?5type?0?5unit?5?$CFd?0?5file?5?$CFs?$AA@ 006ae1d0     libifcoremt:for_diags_intel.obj
 0003:000211fc       ??_C@_0DI@A@keyword?5value?5error?5in?5OPEN?5statement?0?5unit?5?$CFd?0?5file?5?$CFs?$AA@ 006ae1fc     libifcoremt:for_diags_intel.obj
 0003:00021234       ??_C@_0DF@A@inconsistent?5OPEN?1CLOSE?5parameters?0?5unit?5?$CFd?0?5file?5?$CFs?$AA@ 006ae234     libifcoremt:for_diags_intel.obj
 0003:0002126c       ??_C@_0CJ@A@write?5to?5READONLY?5file?0?5unit?5?$CFd?0?5file?5?$CFs?$AA@ 006ae26c     libifcoremt:for_diags_intel.obj
 0003:00021298       ??_C@_0CN@A@invalid?5argument?5to?5FORTRAN?5Run?9Time?5Library?$AA@ 006ae298     libifcoremt:for_diags_intel.obj
 0003:000212c8       ??_C@_0CM@A@invalid?5key?5specification?0?5unit?5?$CFd?0?5file?5?$CFs?$AA@ 006ae2c8     libifcoremt:for_diags_intel.obj
 0003:000212f4       ??_C@_0DL@A@inconsistent?5key?5change?5or?5duplicate?5key?0?5unit?5?$CFd?0?5file?5?$CFs?$AA@ 006ae2f4     libifcoremt:for_diags_intel.obj
 0003:00021330       ??_C@_0DB@A@inconsistent?5file?5organization?0?5unit?5?$CFd?0?5file?5?$CFs?$AA@ 006ae330     libifcoremt:for_diags_intel.obj
 0003:00021364       ??_C@_0CK@A@specified?5record?5locked?0?5unit?5?$CFd?0?5file?5?$CFs?$AA@ 006ae364     libifcoremt:for_diags_intel.obj
 0003:00021390       ??_C@_0CE@A@no?5current?5record?0?5unit?5?$CFd?0?5file?5?$CFs?$AA@ 006ae390     libifcoremt:for_diags_intel.obj
 0003:000213b4       ??_C@_0CA@A@REWRITE?5error?0?5unit?5?$CFd?0?5file?5?$CFs?$AA@ 006ae3b4     libifcoremt:for_diags_intel.obj
 0003:000213d4       ??_C@_0BP@A@DELETE?5error?0?5unit?5?$CFd?0?5file?5?$CFs?$AA@ 006ae3d4     libifcoremt:for_diags_intel.obj
 0003:000213f4       ??_C@_0BP@A@UNLOCK?5error?0?5unit?5?$CFd?0?5file?5?$CFs?$AA@ 006ae3f4     libifcoremt:for_diags_intel.obj
 0003:00021414       ??_C@_0BN@A@FIND?5error?0?5unit?5?$CFd?0?5file?5?$CFs?$AA@ 006ae414     libifcoremt:for_diags_intel.obj
 0003:00021434       ??_C@_0CE@A@format?5syntax?5error?5at?5or?5near?5?$CF?4?$CKs?$AA@ 006ae434     libifcoremt:for_diags_intel.obj
 0003:00021458       ??_C@_0DB@A@list?9directed?5I?1O?5syntax?5error?0?5unit?5?$CFd?0?5file?5?$CFs?$AA@ 006ae458     libifcoremt:for_diags_intel.obj
 0003:0002148c       ??_C@_0CH@A@infinite?5format?5loop?0?5unit?5?$CFd?0?5file?5?$CFs?$AA@ 006ae48c     libifcoremt:for_diags_intel.obj
 0003:000214b4       ??_C@_0DA@A@format?1variable?9type?5mismatch?0?5unit?5?$CFd?0?5file?5?$CFs?$AA@ 006ae4b4     libifcoremt:for_diags_intel.obj
 0003:000214e4       ??_C@_0CJ@A@syntax?5error?5in?5format?0?5unit?5?$CFd?0?5file?5?$CFs?$AA@ 006ae4e4     libifcoremt:for_diags_intel.obj
 0003:00021510       ??_C@_0CK@A@output?5conversion?5error?0?5unit?5?$CFd?0?5file?5?$CFs?$AA@ 006ae510     libifcoremt:for_diags_intel.obj
 0003:0002153c       ??_C@_0CJ@A@input?5conversion?5error?0?5unit?5?$CFd?0?5file?5?$CFs?$AA@ 006ae53c     libifcoremt:for_diags_intel.obj
 0003:00021568       ??_C@_0BB@A@floating?5invalid?$AA@ 006ae568     libifcoremt:for_diags_intel.obj
 0003:0002157c       ??_C@_0DE@A@output?5statement?5overflows?5record?0?5unit?5?$CFd?0?5file?5?$CFs?$AA@ 006ae57c     libifcoremt:for_diags_intel.obj
 0003:000215b0       ??_C@_0DJ@A@input?5statement?5requires?5too?5much?5data?0?5unit?5?$CFd?0?5file?5?$CFs?$AA@ 006ae5b0     libifcoremt:for_diags_intel.obj
 0003:000215ec       ??_C@_0DJ@A@variable?5format?5expression?5value?5error?0?5unit?5?$CFd?0?5file?5?$CFs?$AA@ 006ae5ec     libifcoremt:for_diags_intel.obj
 0003:00021628       ??_C@_0BN@A@process?5interrupted?5?$CISIGINT?$CJ?$AA@ 006ae628     libifcoremt:for_diags_intel.obj
 0003:00021648       ??_C@_0BB@A@integer?5overflow?$AA@ 006ae648     libifcoremt:for_diags_intel.obj
 0003:0002165c       ??_C@_0BH@A@integer?5divide?5by?5zero?$AA@ 006ae65c     libifcoremt:for_diags_intel.obj
 0003:00021674       ??_C@_0BC@A@floating?5overflow?$AA@ 006ae674     libifcoremt:for_diags_intel.obj
 0003:00021688       ??_C@_0BI@A@floating?5divide?5by?5zero?$AA@ 006ae688     libifcoremt:for_diags_intel.obj
 0003:000216a0       ??_C@_0BD@A@floating?5underflow?$AA@ 006ae6a0     libifcoremt:for_diags_intel.obj
 0003:000216b4       ??_C@_0BJ@A@floating?5point?5exception?$AA@ 006ae6b4     libifcoremt:for_diags_intel.obj
 0003:000216d0       ??_C@_0BC@A@Abort?5trap?5signal?$AA@ 006ae6d0     libifcoremt:for_diags_intel.obj
 0003:000216e4       ??_C@_0BH@A@subscript?5out?5of?5range?$AA@ 006ae6e4     libifcoremt:for_diags_intel.obj
 0003:000216fc       ??_C@_0BJ@A@process?5killed?5?$CISIGTERM?$CJ?$AA@ 006ae6fc     libifcoremt:for_diags_intel.obj
 0003:00021718       ??_C@_0BH@A@process?5quit?5?$CISIGQUIT?$CJ?$AA@ 006ae718     libifcoremt:for_diags_intel.obj
 0003:00021730       ??_C@_0BK@A@wrong?5number?5of?5arguments?$AA@ 006ae730     libifcoremt:for_diags_intel.obj
 0003:0002174c       ??_C@_0CB@A@invalid?5argument?5to?5math?5library?$AA@ 006ae74c     libifcoremt:for_diags_intel.obj
 0003:00021770       ??_C@_0BJ@A@undefined?5exponentiation?$AA@ 006ae770     libifcoremt:for_diags_intel.obj
 0003:0002178c       ??_C@_0CE@A@logarithm?5of?5zero?5or?5negative?5value?$AA@ 006ae78c     libifcoremt:for_diags_intel.obj
 0003:000217b0       ??_C@_0BO@A@square?5root?5of?5negative?5value?$AA@ 006ae7b0     libifcoremt:for_diags_intel.obj
 0003:000217d0       ??_C@_0CC@A@significance?5lost?5in?5math?5library?$AA@ 006ae7d0     libifcoremt:for_diags_intel.obj
 0003:000217f4       ??_C@_0CC@A@floating?5overflow?5in?5math?5library?$AA@ 006ae7f4     libifcoremt:for_diags_intel.obj
 0003:00021818       ??_C@_0CD@A@floating?5underflow?5in?5math?5library?$AA@ 006ae818     libifcoremt:for_diags_intel.obj
 0003:0002183c       ??_C@_0CB@A@adjustable?5array?5dimension?5error?$AA@ 006ae83c     libifcoremt:for_diags_intel.obj
 0003:00021860       ??_C@_0EA@A@invalid?5key?5match?5specifier?5for?5key?5direction?0?5unit?5?$CFd?0?5file?5?$CFs?$AA@ 006ae860     libifcoremt:for_diags_intel.obj
 0003:000218a0       ??_C@_0CB@A@floating?5point?5conversion?5failed?$AA@ 006ae8a0     libifcoremt:for_diags_intel.obj
 0003:000218c4       ??_C@_0DP@A@F_UFMTENDIAN?5environment?5variable?5was?5ignored?3erroneous?5syntax?$AA@ 006ae8c4     libifcoremt:for_diags_intel.obj
 0003:00021904       ??_C@_0DO@A@write?5exceeds?5the?5record?5length?5of?5the?5file?0?5unit?5?$CFd?0?5file?5?$CFs?$AA@ 006ae904     libifcoremt:for_diags_intel.obj
 0003:00021960       ??_C@_0EN@A@cannot?5allocate?5memory?5for?5the?5file?5buffer?5?9?5out?5of?5memory?0?5unit?5?$CFd?0?5file?5?$CFs?$AA@ 006ae960     libifcoremt:for_diags_intel.obj
 0003:000219c0       ??_C@_0DI@A@FORT_FMT_RECL?5environment?5variable?5has?5erroneous?5syntax?$AA@ 006ae9c0     libifcoremt:for_diags_intel.obj
 0003:000219f8       ??_C@_0DJ@A@FORT_UFMT_RECL?5environment?5variable?5has?5erroneous?5syntax?$AA@ 006ae9f8     libifcoremt:for_diags_intel.obj
 0003:00021a40       ??_C@_0FD@A@Asynchronous?5data?5transfer?5statement?5is?5not?5allowed?5to?5this?5unit?0?5unit?5?$CFd?0?5file?5?$CFs?$AA@ 006aea40     libifcoremt:for_diags_intel.obj
 0003:00021aa0       ??_C@_0CL@A@ID?5value?5is?5out?5of?5range?0?5unit?5?$CFd?0?5file?5?$CFs?$AA@ 006aeaa0     libifcoremt:for_diags_intel.obj
 0003:00021acc       ??_C@_0DM@A@incorrect?5?$CFs?5specifier?5for?5connected?5file?0?5unit?5?$CFd?0?5file?5?$CFs?$AA@ 006aeacc     libifcoremt:for_diags_intel.obj
 0003:00021b20       ??_C@_0EC@A@incorrect?5?$CFs?5specifier?5value?5for?5connected?5file?0?5unit?5?$CFd?0?5file?5?$CFs?$AA@ 006aeb20     libifcoremt:for_diags_intel.obj
 0003:00021b80       ??_C@_0FI@A@there?5is?5no?5data?9edit?9descriptor?5to?5match?5a?5data?9item?5in?5the?5I?1O?5list?0?5unit?5?$CFd?0?5file?5?$CFs?$AA@ 006aeb80     libifcoremt:for_diags_intel.obj
 0003:00021be0       ??_C@_0DJ@A@FORT_BLOCKSIZE?5environment?5variable?5has?5erroneous?5syntax?$AA@ 006aebe0     libifcoremt:for_diags_intel.obj
 0003:00021c1c       ??_C@_0DL@A@FORT_BUFFERCOUNT?5environment?5variable?5has?5erroneous?5syntax?$AA@ 006aec1c     libifcoremt:for_diags_intel.obj
 0003:00021c58       ??_C@_0CD@A@cannot?5stat?5file?0?5unit?5?$CFd?0?5file?5?$CFs?$AA@ 006aec58     libifcoremt:for_diags_intel.obj
 0003:00021c80       ??_C@_0EL@A@stream?5data?5transfer?5statement?5is?5not?5allowed?5to?5an?5unopened?5unit?0?5unit?5?$CFd?$AA@ 006aec80     libifcoremt:for_diags_intel.obj
 0003:00021ce0       ??_C@_0EN@A@stream?5data?5transfer?5statement?5is?5not?5allowed?5to?5this?5unit?0?5unit?5?$CFd?0?5file?5?$CFs?$AA@ 006aece0     libifcoremt:for_diags_intel.obj
 0003:00021d40       ??_C@_0EA@A@position?5number?5is?5outside?5of?5the?5valid?5range?0?5unit?5?$CFd?0?5file?5?$CFs?$AA@ 006aed40     libifcoremt:for_diags_intel.obj
 0003:00021d80       ??_C@_0EL@A@RECL?$DN?5specifier?5may?5not?5be?5applied?5to?5stream?5access?5file?0?5unit?5?$CFd?0?5file?5?$CFs?$AA@ 006aed80     libifcoremt:for_diags_intel.obj
 0003:00021de0       ??_C@_0FL@A@BACKSPACE?5statement?5may?5not?5be?5applied?5to?5unformatted?5stream?5access?5file?0?5unit?5?$CFd?0?5file?5?$CFs?$AA@ 006aede0     libifcoremt:for_diags_intel.obj
 0003:00021e40       ??_C@_0FD@A@A?5keyword?5was?5specified?5that?5is?5not?5allowed?5with?5unformatted?5I?1O?$DL?5unit?5?$CFd?0?5file?5?$CFs?$AA@ 006aee40     libifcoremt:for_diags_intel.obj
 0003:00021ea0       ??_C@_0DL@A@keyword?5value?5error?5in?5a?5CLOSE?5statement?0?5unit?5?$CFd?0?5file?5?$CFs?$AA@ 006aeea0     libifcoremt:for_diags_intel.obj
 0003:00021edc       ??_C@_0DK@A@keyword?5value?5error?5in?5an?5I?1O?5statement?0?5unit?5?$CFd?0?5file?5?$CFs?$AA@ 006aeedc     libifcoremt:for_diags_intel.obj
 0003:00021f18       ??_C@_0DC@A@operation?5requires?5seek?5ability?0?5unit?5?$CFd?0?5file?5?$CFs?$AA@ 006aef18     libifcoremt:for_diags_intel.obj
 0003:00021f60       ??_C@_0EN@A@user?5breakpoint?5?$CISIGTRAP?$CJ?5?9?5obtain?5more?5info?5on?5this?5signal?5via?5the?5debugger?$AA@ 006aef60     libifcoremt:for_diags_intel.obj
 0003:00021fc0       ??_C@_0BM@A@kernel?5breakpoint?5?$CISIGTRAP?$CJ?$AA@ 006aefc0     libifcoremt:for_diags_intel.obj
 0003:00021fdc       ??_C@_0CH@A@taken?5branch?5delay?5emulation?5?$CISIGTRAP?$CJ?$AA@ 006aefdc     libifcoremt:for_diags_intel.obj
 0003:00022004       ??_C@_0CL@A@not?5taken?5branch?5delay?5emulation?5?$CISIGTRAP?$CJ?$AA@ 006af004     libifcoremt:for_diags_intel.obj
 0003:00022030       ??_C@_0BL@A@user?5single?5step?5?$CISIGTRAP?$CJ?$AA@ 006af030     libifcoremt:for_diags_intel.obj
 0003:0002204c       ??_C@_0BJ@A@overflow?5check?5?$CISIGTRAP?$CJ?$AA@ 006af04c     libifcoremt:for_diags_intel.obj
 0003:00022068       ??_C@_0BP@A@divide?5by?5zero?5check?5?$CISIGTRAP?$CJ?$AA@ 006af068     libifcoremt:for_diags_intel.obj
 0003:00022088       ??_C@_0CE@A@array?5index?5out?5of?5bounds?5?$CISIGTRAP?$CJ?$AA@ 006af088     libifcoremt:for_diags_intel.obj
 0003:000220ac       ??_C@_0DB@A@array?5index?5out?5of?5bounds?5for?5index?5?$CFd?5?$CISIGTRAP?$CJ?$AA@ 006af0ac     libifcoremt:for_diags_intel.obj
 0003:000220e0       ??_C@_0BB@A@floating?5inexact?$AA@ 006af0e0     libifcoremt:for_diags_intel.obj
 0003:000220f4       ??_C@_0BB@A@decimal?5overflow?$AA@ 006af0f4     libifcoremt:for_diags_intel.obj
 0003:00022108       ??_C@_0BH@A@decimal?5divide?5by?5zero?$AA@ 006af108     libifcoremt:for_diags_intel.obj
 0003:00022120       ??_C@_0BA@A@decimal?5invalid?$AA@ 006af120     libifcoremt:for_diags_intel.obj
 0003:00022130       ??_C@_0BB@A@reserved?5operand?$AA@ 006af130     libifcoremt:for_diags_intel.obj
 0003:00022144       ??_C@_0BA@A@assertion?5error?$AA@ 006af144     libifcoremt:for_diags_intel.obj
 0003:00022154       ??_C@_0BD@A@null?5pointer?5error?$AA@ 006af154     libifcoremt:for_diags_intel.obj
 0003:00022168       ??_C@_0P@A@stack?5overflow?$AA@ 006af168     libifcoremt:for_diags_intel.obj
 0003:00022178       ??_C@_0BE@A@string?5length?5error?$AA@ 006af178     libifcoremt:for_diags_intel.obj
 0003:0002218c       ??_C@_0BA@A@substring?5error?$AA@ 006af18c     libifcoremt:for_diags_intel.obj
 0003:0002219c       ??_C@_0M@A@range?5error?$AA@ 006af19c     libifcoremt:for_diags_intel.obj
 0003:000221a8       ??_C@_0CH@A@allocatable?5array?5is?5already?5allocated?$AA@ 006af1a8     libifcoremt:for_diags_intel.obj
 0003:000221d0       ??_C@_0DM@A@unresolved?5contention?5for?5Intel?5Fortran?5RTL?5global?5resource?$AA@ 006af1d0     libifcoremt:for_diags_intel.obj
 0003:0002220c       ??_C@_0CO@A@allocatable?5array?5or?5pointer?5is?5not?5allocated?$AA@ 006af20c     libifcoremt:for_diags_intel.obj
 0003:0002223c       ??_C@_0BK@A@array?5index?5out?5of?5bounds?$AA@ 006af23c     libifcoremt:for_diags_intel.obj
 0003:00022258       ??_C@_0CH@A@array?5index?5out?5of?5bounds?5for?5index?5?$CFd?$AA@ 006af258     libifcoremt:for_diags_intel.obj
 0003:00022280       ??_C@_0BL@A@GENTRAP?5code?5?$DN?50x?$CFlx?5?$CI?$CFld?$CJ?$AA@ 006af280     libifcoremt:for_diags_intel.obj
 0003:0002229c       ??_C@_0CF@A@Program?5Exception?5?9?5access?5violation?$AA@ 006af29c     libifcoremt:for_diags_intel.obj
 0003:000222c4       ??_C@_0CK@A@Program?5Exception?5?9?5datatype?5misalignment?$AA@ 006af2c4     libifcoremt:for_diags_intel.obj
 0003:000222f0       ??_C@_0BP@A@Program?5Exception?5?9?5breakpoint?$AA@ 006af2f0     libifcoremt:for_diags_intel.obj
 0003:00022310       ??_C@_0CA@A@Program?5Exception?5?9?5single?5step?$AA@ 006af310     libifcoremt:for_diags_intel.obj
 0003:00022330       ??_C@_0CK@A@Program?5Exception?5?9?5array?5bounds?5exceeded?$AA@ 006af330     libifcoremt:for_diags_intel.obj
 0003:0002235c       ??_C@_0DE@A@Program?5Exception?5?9?5denormal?5floating?9point?5operand?$AA@ 006af35c     libifcoremt:for_diags_intel.obj
 0003:00022390       ??_C@_0CJ@A@Program?5Exception?5?9?5floating?5stack?5check?$AA@ 006af390     libifcoremt:for_diags_intel.obj
 0003:000223bc       ??_C@_0CL@A@Program?5Exception?5?9?5integer?5divide?5by?5zero?$AA@ 006af3bc     libifcoremt:for_diags_intel.obj
 0003:000223e8       ??_C@_0CF@A@Program?5Exception?5?9?5integer?5overflow?$AA@ 006af3e8     libifcoremt:for_diags_intel.obj
 0003:00022410       ??_C@_0CL@A@Program?5Exception?5?9?5privileged?5instruction?$AA@ 006af410     libifcoremt:for_diags_intel.obj
 0003:0002243c       ??_C@_0CC@A@Program?5Exception?5?9?5in?5page?5error?$AA@ 006af43c     libifcoremt:for_diags_intel.obj
 0003:00022460       ??_C@_0CI@A@Program?5Exception?5?9?5illegal?5instruction?$AA@ 006af460     libifcoremt:for_diags_intel.obj
 0003:00022488       ??_C@_0CN@A@Program?5Exception?5?9?5noncontinuable?5exception?$AA@ 006af488     libifcoremt:for_diags_intel.obj
 0003:000224b8       ??_C@_0CD@A@Program?5Exception?5?9?5stack?5overflow?$AA@ 006af4b8     libifcoremt:for_diags_intel.obj
 0003:000224dc       ??_C@_0CI@A@Program?5Exception?5?9?5invalid?5disposition?$AA@ 006af4dc     libifcoremt:for_diags_intel.obj
 0003:00022504       ??_C@_0DB@A@Program?5Exception?5?9?5exception?5code?5?$DN?50x?$CFlx?5?$CI?$CFld?$CJ?$AA@ 006af504     libifcoremt:for_diags_intel.obj
 0003:00022540       ??_C@_0EN@A@A?5pointer?5passed?5to?5DEALLOCATE?5points?5to?5an?5array?5that?5cannot?5be?5deallocated?$AA@ 006af540     libifcoremt:for_diags_intel.obj
 0003:000225a0       ??_C@_0M@A@SIGSEGV?0?5?$CFs?$AA@ 006af5a0     libifcoremt:for_diags_intel.obj
 0003:000225c0       ??_C@_0EF@A@DATE?5argument?5to?5DATE_AND_TIME?5is?5too?5short?5?$CILEN?$DN?$CFd?$CJ?0?5required?5LEN?$DN8?$AA@ 006af5c0     libifcoremt:for_diags_intel.obj
 0003:00022620       ??_C@_0EG@A@TIME?5argument?5to?5DATE_AND_TIME?5is?5too?5short?5?$CILEN?$DN?$CFd?$CJ?0?5required?5LEN?$DN10?$AA@ 006af620     libifcoremt:for_diags_intel.obj
 0003:00022680       ??_C@_0EF@A@ZONE?5argument?5to?5DATE_AND_TIME?5is?5too?5short?5?$CILEN?$DN?$CFd?$CJ?0?5required?5LEN?$DN5?$AA@ 006af680     libifcoremt:for_diags_intel.obj
 0003:000226e0       ??_C@_0P@A@Divide?5by?5zero?$AA@ 006af6e0     libifcoremt:for_diags_intel.obj
 0003:000226f0       ??_C@_0DM@A@Cannot?5allocate?5array?5?9?5overflow?5on?5array?5size?5calculation?4?$AA@ 006af6f0     libifcoremt:for_diags_intel.obj
 0003:0002272c       ??_C@_0L@A@SIGBUS?0?5?$CFs?$AA@ 006af72c     libifcoremt:for_diags_intel.obj
 0003:00022740       ??_C@_0EO@A@Run?9Time?5Check?5Failure?4?5The?5variable?5?8?$CFs?8?5is?5being?5used?5without?5being?5defined?$AA@ 006af740     libifcoremt:for_diags_intel.obj
 0003:000227a0       ??_C@_0CB@A@program?5aborting?5due?5to?5?$CFs?5event?$AA@ 006af7a0     libifcoremt:for_diags_intel.obj
 0003:000227c4       ??_C@_0DO@A@Intel?5Pentium?5fdiv?5flaw?5detected?0?5please?5update?5the?5processor?$AA@ 006af7c4     libifcoremt:for_diags_intel.obj
 0003:00022820       ??_C@_0EH@A@unformatted?5I?1O?5to?5unit?5open?5for?5formatted?5transfers?0?5unit?5?$CFd?0?5file?5?$CFs?$AA@ 006af820     libifcoremt:for_diags_intel.obj
 0003:00022880       ??_C@_0EH@A@formatted?5I?1O?5to?5unit?5open?5for?5unformatted?5transfers?0?5unit?5?$CFd?0?5file?5?$CFs?$AA@ 006af880     libifcoremt:for_diags_intel.obj
 0003:000228e0       ??_C@_0EC@A@direct?9access?5I?1O?5to?5unit?5open?5for?5keyed?5access?0?5unit?5?$CFd?0?5file?5?$CFs?$AA@ 006af8e0     libifcoremt:for_diags_intel.obj
 0003:00022940       ??_C@_0EH@A@sequential?9access?5I?1O?5to?5unit?5open?5for?5direct?5access?0?5unit?5?$CFd?0?5file?5?$CFs?$AA@ 006af940     libifcoremt:for_diags_intel.obj
 0003:000229a0       ??_C@_0EC@A@keyed?9access?5I?1O?5to?5unit?5open?5for?5direct?5access?0?5unit?5?$CFd?0?5file?5?$CFs?$AA@ 006af9a0     libifcoremt:for_diags_intel.obj
 0003:00022a00       ??_C@_0BI@A@I?1O?5to?5non?9FORTRAN?5unit?$AA@ 006afa00     libifcoremt:for_diags_intel.obj
 0003:00022a18       ??_C@_0CH@A@invalid?5text?5is?5?$CFs?5in?5record?5number?5?$CFd?$AA@ 006afa18     libifcoremt:for_diags_intel.obj
 0003:00022a40       ??_C@_0BD@A@invalid?5text?5is?5?$CFs?$AA@ 006afa40     libifcoremt:for_diags_intel.obj
 0003:00022a60       ??_C@_0EA@A@operation?5requires?5file?5to?5be?5on?5disk?5or?5tape?0?5unit?5?$CFd?0?5file?5?$CFs?$AA@ 006afa60     libifcoremt:for_diags_intel.obj
 0003:00022aa0       ??_C@_0EN@A@operation?5requires?5sequential?5file?5organization?5and?5access?0?5unit?5?$CFd?0?5file?5?$CFs?$AA@ 006afaa0     libifcoremt:for_diags_intel.obj
 0003:00022b00       ??_C@_0BN@A@FORTRAN?5abort?5routine?5called?$AA@ 006afb00     libifcoremt:for_diags_intel.obj
 0003:00022b20       ??_C@_0CM@A@end?5of?5record?5during?5read?0?5unit?5?$CFd?0?5file?5?$CFs?$AA@ 006afb20     libifcoremt:for_diags_intel.obj
 0003:00022b60       ??_C@_0FB@A@An?5other?5process?5has?5this?5file?5locked?5for?5shared?1exclusive?5use?0?5unit?5?$CFd?0?5file?5?$CFs?$AA@ 006afb60     libifcoremt:for_diags_intel.obj
 0003:00022bc0       ??_C@_0BK@A@?$CFd?5floating?5inexact?5traps?$AA@ 006afbc0     libifcoremt:for_diags_intel.obj
 0003:00022bdc       ??_C@_0BK@A@?$CFd?5floating?5invalid?5traps?$AA@ 006afbdc     libifcoremt:for_diags_intel.obj
 0003:00022bf8       ??_C@_0BL@A@?$CFd?5floating?5overflow?5traps?$AA@ 006afbf8     libifcoremt:for_diags_intel.obj
 0003:00022c14       ??_C@_0CB@A@?$CFd?5floating?5divide?9by?9zero?5traps?$AA@ 006afc14     libifcoremt:for_diags_intel.obj
 0003:00022c38       ??_C@_0BM@A@?$CFd?5floating?5underflow?5traps?$AA@ 006afc38     libifcoremt:for_diags_intel.obj
 0003:00022c60       ??_C@_0EB@A@Diagnostic?5message?5buffer?5overflow?0?5hex?5message?5number?5was?5?$CF8?48x?$AA@ 006afc60     libifcoremt:for_diags_intel.obj
 0003:00022cc0       ??_C@_02A@?$CFs?$AA@       006afcc0     libifcoremt:for_diags_intel.obj
 0003:00022cc4       ??_C@_08A@forrtl?3?5?$AA@  006afcc4     libifcoremt:for_diags_intel.obj
 0003:00022cd0       ??_C@_0BE@A@forrtl?3?5info?5?$CI?$CFi?$CJ?3?5?$AA@ 006afcd0     libifcoremt:for_diags_intel.obj
 0003:00022ce4       ??_C@_0BH@A@forrtl?3?5warning?5?$CI?$CFi?$CJ?3?5?$AA@ 006afce4     libifcoremt:for_diags_intel.obj
 0003:00022cfc       ??_C@_0BF@A@forrtl?3?5error?5?$CI?$CFi?$CJ?3?5?$AA@ 006afcfc     libifcoremt:for_diags_intel.obj
 0003:00022d14       ??_C@_0BG@A@forrtl?3?5severe?5?$CI?$CFi?$CJ?3?5?$AA@ 006afd14     libifcoremt:for_diags_intel.obj
 0003:00022d2c       ??_C@_06A@forrtl?$AA@      006afd2c     libifcoremt:for_diags_intel.obj
 0003:00022d34       ??_C@_0BC@A@Message?5not?5found?$AA@ 006afd34     libifcoremt:for_diags_intel.obj
 0003:00022d48       ??_C@_0DE@A@Insufficient?5memory?5to?5allocate?5Fortran?5RTL?5message?$AA@ 006afd48     libifcoremt:for_diags_intel.obj
 0003:00022d80       ??_C@_0EI@A@Insufficient?5memory?5to?5allocate?5Fortran?5RTL?5message?5buffer?0?5message?5?$CD?$CFd?$AA@ 006afd80     libifcoremt:for_diags_intel.obj
 0003:00022de0       ??_C@_0FF@A@Insufficient?5memory?5to?5allocate?5Fortran?5RTL?5message?5buffer?0?5message?5?$CD?$CFd?5?$DN?5hex?5?$CF8?48x?4?$AA@ 006afde0     libifcoremt:for_diags_intel.obj
 0003:00022e40       ??_C@_0DC@A@FormatMessage?5failed?5for?5sysmem?5message?5number?5?$CFi?$AA@ 006afe40     libifcoremt:for_diags_intel.obj
 0003:00022e74       ??_C@_0CI@A@Intel?$CIr?$CJ?5Visual?5Fortran?5run?9time?5error?5?$AA@ 006afe74     libifcoremt:for_diags_intel.obj
 0003:00022ea0       ??_C@_0EH@A@?5The?5allocation?5of?5dynamic?5common?5?$CFs?5of?5size?5?$CFs?5in?5procedure?5?$CFs?5failed?$AA@ 006afea0     libifcoremt:for_diags_intel.obj
 0003:00022f00       ??_C@_0CN@A@?5The?5current?5size?5of?5dynamic?5common?5?$CFs?5is?5?$CFs?$AA@ 006aff00     libifcoremt:for_diags_intel.obj
 0003:00022f30       ??_C@_0CP@A@?5The?5declared?5size?5in?5procedure?5?$CFs?5is?5?$CFs?5bytes?$AA@ 006aff30     libifcoremt:for_diags_intel.obj
 0003:00022f60       ??_C@_0EC@A@?5Heap?5Allocation?5Failure?5while?5creating?5common?5?$CFs?5in?5procedure?5?$CFs?$AA@ 006aff60     libifcoremt:for_diags_intel.obj
 0003:00022fc0       ??_C@_07A@Unknown?$AA@     006affc0     libifcoremt:for_diags_intel.obj
 0003:00022fc8       ??_C@_0BH@A@?0?5line?5?$CFs?0?5position?5?$CFd?$AA@ 006affc8     libifcoremt:for_diags_intel.obj
 0003:00022fe0       ??_C@_0CF@A@?$CFsAllocate?5Dynamic?5Common?5Error?5?9?5?$CFs?$AA@ 006affe0     libifcoremt:for_diags_intel.obj
 0003:00023008       ??_C@_0BD@A@Allocation?5Failure?$AA@ 006b0008     libifcoremt:for_diags_intel.obj
 0003:0002301c       ??_C@_0BJ@A@Inconsistent?5Common?5Size?$AA@ 006b001c     libifcoremt:for_diags_intel.obj
 0003:00023038       ??_C@_0L@A@Empty?5Heap?$AA@ 006b0038     libifcoremt:for_diags_intel.obj
 0003:00023044       ??_C@_0DF@A@Incrementally?5linked?5image?9?9PC?5correlation?5disabled?4?$AA@ 006b0044     libifcoremt:for_diags_intel.obj
 0003:0002307c       ??_C@_0CD@A@Stack?5trace?5terminated?5abnormally?4?$AA@ 006b007c     libifcoremt:for_diags_intel.obj
 0003:000230a0       ??_C@_0BL@A@Stop?5?9?5Program?5terminated?4?$AA@ 006b00a0     libifcoremt:for_diags_intel.obj
 0003:000230bc       ??_C@_0N@A@Return?5code?5?$AA@ 006b00bc     libifcoremt:for_diags_intel.obj
 0003:000230cc       ??_C@_0DE@A@File?5name?5missing?5or?5blank?5?9?5please?5enter?5file?5name?$AA@ 006b00cc     libifcoremt:for_diags_intel.obj
 0003:00023100       ??_C@_09A@UNIT?5?$CFd?$DP?5?$AA@ 006b0100     libifcoremt:for_diags_intel.obj
 0003:0002310c       ??_C@_0CB@A@IEEE_DIVIDE_BY_ZERO?5is?5signaling?$AA@ 006b010c     libifcoremt:for_diags_intel.obj
 0003:00023130       ??_C@_0BK@A@IEEE_INVALID?5is?5signaling?$AA@ 006b0130     libifcoremt:for_diags_intel.obj
 0003:0002314c       ??_C@_0BL@A@IEEE_OVERFLOW?5is?5signaling?$AA@ 006b014c     libifcoremt:for_diags_intel.obj
 0003:00023168       ??_C@_0BM@A@IEEE_UNDERFLOW?5is?5signaling?$AA@ 006b0168     libifcoremt:for_diags_intel.obj
 0003:00023184       ??_C@_0DF@A@array?5or?5substring?5subscript?5expression?5out?5of?5range?$AA@ 006b0184     libifcoremt:for_diags_intel.obj
 0003:000231bc       ??_C@_0CM@A@CHARACTER?5substring?5expression?5out?5of?5range?$AA@ 006b01bc     libifcoremt:for_diags_intel.obj
 0003:000231e8       ??_C@_0CG@A@label?5not?5found?5in?5assigned?5GOTO?5list?$AA@ 006b01e8     libifcoremt:for_diags_intel.obj
 0003:00023210       ??_C@_0BM@A@INTEGER?5arithmetic?5overflow?$AA@ 006b0210     libifcoremt:for_diags_intel.obj
 0003:0002322c       ??_C@_0BK@A@INTEGER?5overflow?5on?5input?$AA@ 006b022c     libifcoremt:for_diags_intel.obj
 0003:00023248       ??_C@_0BA@A@invalid?5INTEGER?$AA@ 006b0248     libifcoremt:for_diags_intel.obj
 0003:00023258       ??_C@_0DC@A@REAL?5indefinite?5?$CIuninitialized?5or?5previous?5error?$CJ?$AA@ 006b0258     libifcoremt:for_diags_intel.obj
 0003:0002328c       ??_C@_0N@A@invalid?5REAL?$AA@ 006b028c     libifcoremt:for_diags_intel.obj
 0003:0002329c       ??_C@_0BD@A@REAL?5math?5overflow?$AA@ 006b029c     libifcoremt:for_diags_intel.obj
 0003:000232b0       ??_C@_0CH@A@No?5matching?5CASE?5found?5for?5SELECT?5CASE?$AA@ 006b02b0     libifcoremt:for_diags_intel.obj
 0003:000232d8       ??_C@_0BM@A@INTEGER?5assignment?5overflow?$AA@ 006b02d8     libifcoremt:for_diags_intel.obj
 0003:000232f4       ??_C@_0CP@A@formatted?5I?1O?5not?5consistent?5with?5OPEN?5options?$AA@ 006b02f4     libifcoremt:for_diags_intel.obj
 0003:00023324       ??_C@_0DD@A@list?9directed?5I?1O?5not?5consistent?5with?5OPEN?5options?$AA@ 006b0324     libifcoremt:for_diags_intel.obj
 0003:00023358       ??_C@_0CO@A@terminal?5I?1O?5not?5consistent?5with?5OPEN?5options?$AA@ 006b0358     libifcoremt:for_diags_intel.obj
 0003:00023388       ??_C@_0CM@A@direct?5I?1O?5not?5consistent?5with?5OPEN?5options?$AA@ 006b0388     libifcoremt:for_diags_intel.obj
 0003:000233b4       ??_C@_0DB@A@unformatted?5I?1O?5not?5consistent?5with?5OPEN?5options?$AA@ 006b03b4     libifcoremt:for_diags_intel.obj
 0003:000233e8       ??_C@_0CJ@A@A?5edit?5descriptor?5expected?5for?5CHARACTER?$AA@ 006b03e8     libifcoremt:for_diags_intel.obj
 0003:00023414       ??_C@_0CP@A@E?0?5F?0?5D?5or?5G?5edit?5descriptor?5expected?5for?5REAL?$AA@ 006b0414     libifcoremt:for_diags_intel.obj
 0003:00023444       ??_C@_0CH@A@I?5edit?5descriptor?5expected?5for?5INTEGER?$AA@ 006b0444     libifcoremt:for_diags_intel.obj
 0003:0002346c       ??_C@_0CH@A@L?5edit?5descriptor?5expected?5for?5LOGICAL?$AA@ 006b046c     libifcoremt:for_diags_intel.obj
 0003:00023494       ??_C@_0CH@A@file?5already?5open?5?3?5parameter?5mismatch?$AA@ 006b0494     libifcoremt:for_diags_intel.obj
 0003:000234bc       ??_C@_0CO@A@namelist?5I?1O?5not?5consistent?5with?5OPEN?5options?$AA@ 006b04bc     libifcoremt:for_diags_intel.obj
 0003:000234ec       ??_C@_0CF@A@IOFOCUS?5illegal?5with?5non?9window?5unit?$AA@ 006b04ec     libifcoremt:for_diags_intel.obj
 0003:00023514       ??_C@_0CB@A@IOFOCUS?5illegal?5without?5QuickWin?$AA@ 006b0514     libifcoremt:for_diags_intel.obj
 0003:00023538       ??_C@_0CD@A@TITLE?5illegal?5with?5non?9window?5unit?$AA@ 006b0538     libifcoremt:for_diags_intel.obj
 0003:0002355c       ??_C@_0BP@A@TITLE?5illegal?5without?5QuickWin?$AA@ 006b055c     libifcoremt:for_diags_intel.obj
 0003:0002357c       ??_C@_0BO@A@KEEP?5illegal?5for?5scratch?5file?$AA@ 006b057c     libifcoremt:for_diags_intel.obj
 0003:0002359c       ??_C@_0BP@A@SCRATCH?5illegal?5for?5named?5file?$AA@ 006b059c     libifcoremt:for_diags_intel.obj
 0003:000235bc       ??_C@_0BK@A@multiple?5radix?5specifiers?$AA@ 006b05bc     libifcoremt:for_diags_intel.obj
 0003:000235d8       ??_C@_0BI@A@illegal?5radix?5specifier?$AA@ 006b05d8     libifcoremt:for_diags_intel.obj
 0003:000235f0       ??_C@_0BF@A@illegal?5STATUS?5value?$AA@ 006b05f0     libifcoremt:for_diags_intel.obj
 0003:00023608       ??_C@_0BD@A@illegal?5MODE?5value?$AA@ 006b0608     libifcoremt:for_diags_intel.obj
 0003:0002361c       ??_C@_0BF@A@illegal?5ACCESS?5value?$AA@ 006b061c     libifcoremt:for_diags_intel.obj
 0003:00023634       ??_C@_0BE@A@illegal?5BLANK?5value?$AA@ 006b0634     libifcoremt:for_diags_intel.obj
 0003:00023648       ??_C@_0BD@A@illegal?5FORM?5value?$AA@ 006b0648     libifcoremt:for_diags_intel.obj
 0003:0002365c       ??_C@_0BE@A@illegal?5SHARE?5value?$AA@ 006b065c     libifcoremt:for_diags_intel.obj
 0003:00023670       ??_C@_0BH@A@illegal?5LOCKMODE?5value?$AA@ 006b0670     libifcoremt:for_diags_intel.obj
 0003:00023688       ??_C@_0BG@A@illegal?5record?5number?$AA@ 006b0688     libifcoremt:for_diags_intel.obj
 0003:000236a0       ??_C@_0CB@A@no?5unit?5number?5associated?5with?5?$CK?$AA@ 006b06a0     libifcoremt:for_diags_intel.obj
 0003:000236c4       ??_C@_0BG@A@illegal?5RECORDS?5value?$AA@ 006b06c4     libifcoremt:for_diags_intel.obj
 0003:000236dc       ??_C@_0BE@A@illegal?5unit?5number?$AA@ 006b06dc     libifcoremt:for_diags_intel.obj
 0003:000236f0       ??_C@_0BD@A@illegal?5RECL?5value?$AA@ 006b06f0     libifcoremt:for_diags_intel.obj
 0003:00023704       ??_C@_0BI@A@array?5already?5allocated?$AA@ 006b0704     libifcoremt:for_diags_intel.obj
 0003:0002371c       ??_C@_0BM@A@array?5size?5zero?5or?5negative?$AA@ 006b071c     libifcoremt:for_diags_intel.obj
 0003:00023738       ??_C@_0BL@A@non?9HUGE?5array?5exceeds?564K?$AA@ 006b0738     libifcoremt:for_diags_intel.obj
 0003:00023754       ??_C@_0BE@A@array?5not?5allocated?$AA@ 006b0754     libifcoremt:for_diags_intel.obj
 0003:00023768       ??_C@_0CF@A@BACKSPACE?5illegal?5on?5terminal?5device?$AA@ 006b0768     libifcoremt:for_diags_intel.obj
 0003:00023790       ??_C@_0BP@A@EOF?5illegal?5on?5terminal?5device?$AA@ 006b0790     libifcoremt:for_diags_intel.obj
 0003:000237b0       ??_C@_0CD@A@ENDFILE?5illegal?5on?5terminal?5device?$AA@ 006b07b0     libifcoremt:for_diags_intel.obj
 0003:000237d4       ??_C@_0CC@A@REWIND?5illegal?5on?5terminal?5device?$AA@ 006b07d4     libifcoremt:for_diags_intel.obj
 0003:000237f8       ??_C@_0CC@A@DELETE?5illegal?5for?5read?9only?5file?$AA@ 006b07f8     libifcoremt:for_diags_intel.obj
 0003:0002381c       ??_C@_0CI@A@external?5I?1O?5illegal?5beyond?5end?5of?5file?$AA@ 006b081c     libifcoremt:for_diags_intel.obj
 0003:00023844       ??_C@_0BP@A@truncation?5error?5?3?5file?5closed?$AA@ 006b0844     libifcoremt:for_diags_intel.obj
 0003:00023864       ??_C@_0BJ@A@terminal?5buffer?5overflow?$AA@ 006b0864     libifcoremt:for_diags_intel.obj
 0003:00023880       ??_C@_0DC@A@comma?5delimiter?5disabled?5after?5left?5repositioning?$AA@ 006b0880     libifcoremt:for_diags_intel.obj
 0003:000238b4       ??_C@_0CD@A@LOCKING?5illegal?5on?5sequential?5file?$AA@ 006b08b4     libifcoremt:for_diags_intel.obj
 0003:000238d8       ??_C@_0CA@A@file?5already?5locked?5or?5unlocked?$AA@ 006b08d8     libifcoremt:for_diags_intel.obj
 0003:000238f8       ??_C@_0BA@A@file?5deadlocked?$AA@ 006b08f8     libifcoremt:for_diags_intel.obj
 0003:00023908       ??_C@_0BE@A@SHARE?5not?5installed?$AA@ 006b0908     libifcoremt:for_diags_intel.obj
 0003:0002391c       ??_C@_0CL@A@file?5already?5connected?5to?5a?5different?5unit?$AA@ 006b091c     libifcoremt:for_diags_intel.obj
 0003:00023948       ??_C@_0BD@A@access?5not?5allowed?$AA@ 006b0948     libifcoremt:for_diags_intel.obj
 0003:0002395c       ??_C@_0BE@A@file?5already?5exists?$AA@ 006b095c     libifcoremt:for_diags_intel.obj
 0003:00023970       ??_C@_0P@A@file?5not?5found?$AA@ 006b0970     libifcoremt:for_diags_intel.obj
 0003:00023980       ??_C@_0BE@A@too?5many?5open?5files?$AA@ 006b0980     libifcoremt:for_diags_intel.obj
 0003:00023994       ??_C@_0BJ@A@too?5many?5units?5connected?$AA@ 006b0994     libifcoremt:for_diags_intel.obj
 0003:000239b0       ??_C@_0CH@A@illegal?5structure?5for?5unformatted?5file?$AA@ 006b09b0     libifcoremt:for_diags_intel.obj
 0003:000239d8       ??_C@_0BE@A@unknown?5unit?5number?$AA@ 006b09d8     libifcoremt:for_diags_intel.obj
 0003:000239ec       ??_C@_0CJ@A@file?5read?9only?5or?5locked?5against?5writing?$AA@ 006b09ec     libifcoremt:for_diags_intel.obj
 0003:00023a18       ??_C@_0BI@A@no?5space?5left?5on?5device?$AA@ 006b0a18     libifcoremt:for_diags_intel.obj
 0003:00023a30       ??_C@_0BB@A@too?5many?5threads?$AA@ 006b0a30     libifcoremt:for_diags_intel.obj
 0003:00023a44       ??_C@_0BB@A@invalid?5argument?$AA@ 006b0a44     libifcoremt:for_diags_intel.obj
 0003:00023a58       ??_C@_0DC@A@BACKSPACE?5illegal?5for?5SEQUENTIAL?5WRITE?9only?5files?$AA@ 006b0a58     libifcoremt:for_diags_intel.obj
 0003:00023a8c       ??_C@_0CJ@A@file?5not?5open?5for?5reading?5or?5file?5locked?$AA@ 006b0a8c     libifcoremt:for_diags_intel.obj
 0003:00023ab8       ??_C@_0BI@A@end?5of?5file?5encountered?$AA@ 006b0ab8     libifcoremt:for_diags_intel.obj
 0003:00023ad0       ??_C@_0CK@A@positive?5integer?5expected?5in?5repeat?5field?$AA@ 006b0ad0     libifcoremt:for_diags_intel.obj
 0003:00023afc       ??_C@_0BG@A@multiple?5repeat?5field?$AA@ 006b0afc     libifcoremt:for_diags_intel.obj
 0003:00023b14       ??_C@_0BI@A@invalid?5number?5in?5input?$AA@ 006b0b14     libifcoremt:for_diags_intel.obj
 0003:00023b2c       ??_C@_0BI@A@invalid?5string?5in?5input?$AA@ 006b0b2c     libifcoremt:for_diags_intel.obj
 0003:00023b44       ??_C@_0BP@A@comma?5missing?5in?5COMPLEX?5input?$AA@ 006b0b44     libifcoremt:for_diags_intel.obj
 0003:00023b64       ??_C@_0CA@A@T?5or?5F?5expected?5in?5LOGICAL?5read?$AA@ 006b0b64     libifcoremt:for_diags_intel.obj
 0003:00023b84       ??_C@_0CM@A@too?5many?5bytes?5read?5from?5unformatted?5record?$AA@ 006b0b84     libifcoremt:for_diags_intel.obj
 0003:00023bb0       ??_C@_0DB@A@H?5or?5apostrophe?5edit?5descriptor?5illegal?5on?5input?$AA@ 006b0bb0     libifcoremt:for_diags_intel.obj
 0003:00023be4       ??_C@_0CH@A@illegal?5character?5in?5hexadecimal?5input?$AA@ 006b0be4     libifcoremt:for_diags_intel.obj
 0003:00023c0c       ??_C@_0BI@A@variable?5name?5not?5found?$AA@ 006b0c0c     libifcoremt:for_diags_intel.obj
 0003:00023c24       ??_C@_0BO@A@invalid?5NAMELIST?5input?5format?$AA@ 006b0c24     libifcoremt:for_diags_intel.obj
 0003:00023c44       ??_C@_0CB@A@wrong?5number?5of?5array?5dimensions?$AA@ 006b0c44     libifcoremt:for_diags_intel.obj
 0003:00023c68       ??_C@_0CH@A@array?5subscript?5exceeds?5allocated?5area?$AA@ 006b0c68     libifcoremt:for_diags_intel.obj
 0003:00023c90       ??_C@_0CD@A@invalid?5subrange?5in?5NAMELIST?5input?$AA@ 006b0c90     libifcoremt:for_diags_intel.obj
 0003:00023cb4       ??_C@_0DA@A@substring?5range?5specified?5on?5non?9CHARACTER?5item?$AA@ 006b0cb4     libifcoremt:for_diags_intel.obj
 0003:00023ce4       ??_C@_0BH@A@internal?5file?5overflow?$AA@ 006b0ce4     libifcoremt:for_diags_intel.obj
 0003:00023cfc       ??_C@_0BH@A@direct?5record?5overflow?$AA@ 006b0cfc     libifcoremt:for_diags_intel.obj
 0003:00023d14       ??_C@_0CG@A@numeric?5field?5bigger?5than?5record?5size?$AA@ 006b0d14     libifcoremt:for_diags_intel.obj
 0003:00023d3c       ??_C@_0BK@A@heap?5space?5limit?5exceeded?$AA@ 006b0d3c     libifcoremt:for_diags_intel.obj
 0003:00023d58       ??_C@_0CB@A@scratch?5file?5name?5limit?5exceeded?$AA@ 006b0d58     libifcoremt:for_diags_intel.obj
 0003:00023d7c       ??_C@_0CO@A@D?5field?5exceeds?5W?5field?5in?5ES?5edit?5descriptor?$AA@ 006b0d7c     libifcoremt:for_diags_intel.obj
 0003:00023dac       ??_C@_0CO@A@D?5field?5exceeds?5W?5field?5in?5EN?5edit?5descriptor?$AA@ 006b0dac     libifcoremt:for_diags_intel.obj
 0003:00023ddc       ??_C@_0CE@A@Exponent?5of?50?5not?5allowed?5in?5format?$AA@ 006b0ddc     libifcoremt:for_diags_intel.obj
 0003:00023e00       ??_C@_0BL@A@integer?5expected?5in?5format?$AA@ 006b0e00     libifcoremt:for_diags_intel.obj
 0003:00023e1c       ??_C@_0CM@A@initial?5left?5parenthesis?5expected?5in?5format?$AA@ 006b0e1c     libifcoremt:for_diags_intel.obj
 0003:00023e48       ??_C@_0CE@A@positive?5integer?5expected?5in?5format?$AA@ 006b0e48     libifcoremt:for_diags_intel.obj
 0003:00023e6c       ??_C@_0CJ@A@repeat?5count?5on?5nonrepeatable?5descriptor?$AA@ 006b0e6c     libifcoremt:for_diags_intel.obj
 0003:00023e98       ??_C@_0DG@A@integer?5expected?5preceding?5H?0?5X?0?5or?5P?5edit?5descriptor?$AA@ 006b0e98     libifcoremt:for_diags_intel.obj
 0003:00023ed0       ??_C@_0CC@A@N?5or?5Z?5expected?5after?5B?5in?5format?$AA@ 006b0ed0     libifcoremt:for_diags_intel.obj
 0003:00023ef4       ??_C@_0BO@A@format?5nesting?5limit?5exceeded?$AA@ 006b0ef4     libifcoremt:for_diags_intel.obj
 0003:00023f14       ??_C@_0BH@A@?8?4?8?5expected?5in?5format?$AA@ 006b0f14     libifcoremt:for_diags_intel.obj
 0003:00023f2c       ??_C@_0BJ@A@unexpected?5end?5of?5format?$AA@ 006b0f2c     libifcoremt:for_diags_intel.obj
 0003:00023f48       ??_C@_0BP@A@unexpected?5character?5in?5format?$AA@ 006b0f48     libifcoremt:for_diags_intel.obj
 0003:00023f68       ??_C@_0CN@A@M?5field?5exceeds?5W?5field?5in?5I?5edit?5descriptor?$AA@ 006b0f68     libifcoremt:for_diags_intel.obj
 0003:00023f98       ??_C@_0BP@A@integer?5out?5of?5range?5in?5format?$AA@ 006b0f98     libifcoremt:for_diags_intel.obj
 0003:00023fb8       ??_C@_0BJ@A@format?5not?5set?5by?5ASSIGN?$AA@ 006b0fb8     libifcoremt:for_diags_intel.obj
 0003:00023fd4       ??_C@_0BN@A@separator?5expected?5in?5format?$AA@ 006b0fd4     libifcoremt:for_diags_intel.obj
 0003:00023ff4       ??_C@_0DA@A@?$CFc?5or?5$?5?3?5nonstandard?5edit?5descriptor?5in?5format?$AA@ 006b0ff4     libifcoremt:for_diags_intel.obj
 0003:00024024       ??_C@_0CK@A@Z?5?3?5nonstandard?5edit?5descriptor?5in?5format?$AA@ 006b1024     libifcoremt:for_diags_intel.obj
 0003:00024050       ??_C@_0CM@A@DOS?5graphics?5not?5supported?5under?5Windows?5NT?$AA@ 006b1050     libifcoremt:for_diags_intel.obj
 0003:0002407c       ??_C@_0P@A@Graphics?5error?$AA@ 006b107c     libifcoremt:for_diags_intel.obj
 0003:0002408c       ??_C@_0DB@A@Using?5QuickWin?5is?5illegal?5in?5console?5application?$AA@ 006b108c     libifcoremt:for_diags_intel.obj
 0003:000240c0       ??_C@_0BI@A@Illegal?5?8ADVANCE?8?5value?$AA@ 006b10c0     libifcoremt:for_diags_intel.obj
 0003:000240d8       ??_C@_0CN@A@DIM?5argument?5to?5SIZE?5out?5of?5range?5?$CIvalue?5?$CFd?$CJ?$AA@ 006b10d8     libifcoremt:for_diags_intel.obj
 0003:00024108       ??_C@_0DO@A@Uninitialised?5pointer?5used?5as?5argument?5to?5ASSOCIATED?5function?$AA@ 006b1108     libifcoremt:for_diags_intel.obj
 0003:00024148       ??_C@_0CD@A@Reference?5to?5uninitialised?5POINTER?$AA@ 006b1148     libifcoremt:for_diags_intel.obj
 0003:0002416c       ??_C@_0CN@A@Reference?5to?5POINTER?5which?5is?5not?5ASSOCIATED?$AA@ 006b116c     libifcoremt:for_diags_intel.obj
 0003:0002419c       ??_C@_0CG@A@Reference?5to?5uninitialised?5POINTER?5?$CFs?$AA@ 006b119c     libifcoremt:for_diags_intel.obj
 0003:000241c4       ??_C@_0DA@A@Reference?5to?5POINTER?5?$CFs?5which?5is?5not?5ASSOCIATED?$AA@ 006b11c4     libifcoremt:for_diags_intel.obj
 0003:000241f4       ??_C@_0DM@A@Out?5of?5range?3?5substring?5starting?5position?5?$CFd?5is?5less?5than?51?$AA@ 006b11f4     libifcoremt:for_diags_intel.obj
 0003:00024240       ??_C@_0EF@A@Out?5of?5range?3?5substring?5ending?5position?5?$CFd?5is?5greater?5than?5length?5?$CFd?$AA@ 006b1240     libifcoremt:for_diags_intel.obj
 0003:000242a0       ??_C@_0DG@A@Subscript?5?$CFd?5of?5?$CFs?5?$CIvalue?5?$CFd?$CJ?5is?5out?5of?5range?5?$CI?$CFd?3?$CFd?$CJ?$AA@ 006b12a0     libifcoremt:for_diags_intel.obj
 0003:000242d8       ??_C@_0DF@A@Subscript?5?$CFd?5of?5?$CFs?5?$CIvalue?5?$CFd?$CJ?5is?5out?5of?5range?5?$CI?$CFd?3?$CK?$CJ?$AA@ 006b12d8     libifcoremt:for_diags_intel.obj
 0003:00024310       ??_C@_0DK@A@VECTOR?5argument?5to?5PACK?5has?5incompatible?5character?5length?$AA@ 006b1310     libifcoremt:for_diags_intel.obj
 0003:0002434c       ??_C@_0CF@A@VECTOR?5argument?5to?5PACK?5is?5too?5small?$AA@ 006b134c     libifcoremt:for_diags_intel.obj
 0003:00024380       ??_C@_0EF@A@SOURCE?5and?5PAD?5arguments?5to?5RESHAPE?5have?5different?5character?5lengths?$AA@ 006b1380     libifcoremt:for_diags_intel.obj
 0003:000243e0       ??_C@_0DE@A@Element?5?$CFd?5of?5SHAPE?5argument?5to?5RESHAPE?5is?5negative?$AA@ 006b13e0     libifcoremt:for_diags_intel.obj
 0003:00024414       ??_C@_0DM@A@SOURCE?5too?5small?5for?5specified?5SHAPE?5in?5RESHAPE?0?5and?5no?5PAD?$AA@ 006b1414     libifcoremt:for_diags_intel.obj
 0003:00024450       ??_C@_0O@A@Out?5of?5memory?$AA@ 006b1450     libifcoremt:for_diags_intel.obj
 0003:00024460       ??_C@_0EG@A@SHAPE?5and?5ORDER?5arguments?5to?5RESHAPE?5have?5different?5sizes?5?$CI?$CFd?5and?5?$CFd?$CJ?$AA@ 006b1460     libifcoremt:for_diags_intel.obj
 0003:000244c0       ??_C@_0DN@A@Element?5?$CFd?5of?5ORDER?5argument?5to?5RESHAPE?5is?5out?5of?5range?5?$CI?$CFd?$CJ?$AA@ 006b14c0     libifcoremt:for_diags_intel.obj
 0003:00024500       ??_C@_0DD@A@Value?5?$CFd?5occurs?5twice?5in?5ORDER?5argument?5to?5RESHAPE?$AA@ 006b1500     libifcoremt:for_diags_intel.obj
 0003:00024534       ??_C@_0CH@A@impossible?5nextelt?5overflow?5in?5RESHAPE?$AA@ 006b1534     libifcoremt:for_diags_intel.obj
 0003:0002455c       ??_C@_0DP@A@Invalid?5value?5?$CFd?5for?5argument?5DIM?5for?5SPREAD?5of?5rank?5?$CFd?5source?$AA@ 006b155c     libifcoremt:for_diags_intel.obj
 0003:0002459c       ??_C@_0CC@A@Complex?5zero?5raised?5to?5power?5zero?$AA@ 006b159c     libifcoremt:for_diags_intel.obj
 0003:000245c0       ??_C@_0CG@A@Complex?5zero?5raised?5to?5negative?5power?$AA@ 006b15c0     libifcoremt:for_diags_intel.obj
 0003:000245e8       ??_C@_0CD@A@Impossible?5error?5in?5NAMELIST?5input?$AA@ 006b15e8     libifcoremt:for_diags_intel.obj
 0003:0002460c       ??_C@_0CM@A@DIM?5argument?5to?5CSHIFT?5?$CI?$CFd?$CJ?5is?5out?5of?5range?$AA@ 006b160c     libifcoremt:for_diags_intel.obj
 0003:00024638       ??_C@_0DD@A@DIM?5argument?5?$CI?$CFd?$CJ?5to?5CSHIFT?5is?5out?5of?5range?5?$CI1?3?$CFd?$CJ?$AA@ 006b1638     libifcoremt:for_diags_intel.obj
 0003:00024680       ??_C@_0EA@A@Shape?5mismatch?5?$CIdimension?5?$CFd?$CJ?5between?5ARRAY?5and?5SHIFT?5in?5CSHIFT?$AA@ 006b1680     libifcoremt:for_diags_intel.obj
 0003:000246c0       ??_C@_0CM@A@Internal?5Error?5?9?5bad?5arguments?5to?5cshift_ca?$AA@ 006b16c0     libifcoremt:for_diags_intel.obj
 0003:000246ec       ??_C@_0CN@A@Internal?5error?5?9?5bad?5arguments?5to?5cshift_caa?$AA@ 006b16ec     libifcoremt:for_diags_intel.obj
 0003:0002471c       ??_C@_0DF@A@DATE?5argument?5to?5DATE_AND_TIME?5is?5too?5short?5?$CILEN?$DN?$CFd?$CJ?$AA@ 006b171c     libifcoremt:for_diags_intel.obj
 0003:00024754       ??_C@_0DF@A@TIME?5argument?5to?5DATE_AND_TIME?5is?5too?5short?5?$CILEN?$DN?$CFd?$CJ?$AA@ 006b1754     libifcoremt:for_diags_intel.obj
 0003:0002478c       ??_C@_0DF@A@ZONE?5argument?5to?5DATE_AND_TIME?5is?5too?5short?5?$CILEN?$DN?$CFd?$CJ?$AA@ 006b178c     libifcoremt:for_diags_intel.obj
 0003:000247c4       ??_C@_0DM@A@VALUES?5argument?5to?5DATE_AND_TIME?5is?5too?5small?5?$CI?$CFd?5elements?$CJ?$AA@ 006b17c4     libifcoremt:for_diags_intel.obj
 0003:00024800       ??_C@_0DB@A@Out?5of?5range?3?5DIM?5argument?5to?5COUNT?5has?5value?5?$CFd?$AA@ 006b1800     libifcoremt:for_diags_intel.obj
 0003:00024840       ??_C@_0EG@A@Out?5of?5range?3?5DIM?5argument?5to?5COUNT?5has?5value?5?$CFd?5with?5MASK?5of?5rank?5?$CFd?$AA@ 006b1840     libifcoremt:for_diags_intel.obj
 0003:000248a0       ??_C@_0DD@A@Out?5of?5range?3?5DIM?5argument?5to?5PRODUCT?5has?5value?5?$CFd?$AA@ 006b18a0     libifcoremt:for_diags_intel.obj
 0003:000248e0       ??_C@_0EJ@A@Out?5of?5range?3?5DIM?5argument?5to?5PRODUCT?5has?5value?5?$CFd?5with?5ARRAY?5of?5rank?5?$CFd?$AA@ 006b18e0     libifcoremt:for_diags_intel.obj
 0003:00024940       ??_C@_0EF@A@Out?5of?5range?3?5DIM?5argument?5to?5SUM?5has?5value?5?$CFd?5with?5ARRAY?5of?5rank?5?$CFd?$AA@ 006b1940     libifcoremt:for_diags_intel.obj
 0003:000249a0       ??_C@_0CB@A@Real?5zero?5raised?5to?5zeroth?5power?$AA@ 006b19a0     libifcoremt:for_diags_intel.obj
 0003:000249c4       ??_C@_0CD@A@Real?5zero?5raised?5to?5negative?5power?$AA@ 006b19c4     libifcoremt:for_diags_intel.obj
 0003:000249e8       ??_C@_0CP@A@Out?5of?5range?3?5DIM?5argument?5to?5SUM?5has?5value?5?$CFd?$AA@ 006b19e8     libifcoremt:for_diags_intel.obj
 0003:00024a18       ??_C@_0DE@A@DIM?5argument?5?$CI?$CFd?$CJ?5to?5EOSHIFT?5is?5out?5of?5range?5?$CI1?3?$CFd?$CJ?$AA@ 006b1a18     libifcoremt:for_diags_intel.obj
 0003:00024a60       ??_C@_0EE@A@Shape?5mismatch?5?$CIdimension?5?$CFd?$CJ?5between?5ARRAY?5and?5BOUNDARY?5in?5EOSHIFT?$AA@ 006b1a60     libifcoremt:for_diags_intel.obj
 0003:00024ac0       ??_C@_0CN@A@DIM?5argument?5to?5EOSHIFT?5is?5out?5of?5range?5?$CI?$CFd?$CJ?$AA@ 006b1ac0     libifcoremt:for_diags_intel.obj
 0003:00024b00       ??_C@_0EB@A@Shape?5mismatch?5?$CIdimension?5?$CFd?$CJ?5between?5ARRAY?5and?5SHIFT?5in?5EOSHIFT?$AA@ 006b1b00     libifcoremt:for_diags_intel.obj
 0003:00024b60       ??_C@_0DO@A@BOUNDARY?5argument?5to?5EOSHIFT?5has?5wrong?5LEN?5?$CI?$CFd?5instead?5of?5?$CFd?$CJ?$AA@ 006b1b60     libifcoremt:for_diags_intel.obj
 0003:00024ba0       ??_C@_0CN@A@BOUNDARY?5has?5LEN?5?$CFd?5instead?5of?5?$CFd?5to?5EOSHIFT?$AA@ 006b1ba0     libifcoremt:for_diags_intel.obj
 0003:00024bd0       ??_C@_0CK@A@Internal?5error?5?9?5bad?5arguments?5to?5EOSHIFT?$AA@ 006b1bd0     libifcoremt:for_diags_intel.obj
 0003:00024bfc       ??_C@_0CI@A@GETARG?3?5Value?5of?5K?5?$CI?$CFd?$CJ?5is?5out?5of?5range?$AA@ 006b1bfc     libifcoremt:for_diags_intel.obj
 0003:00024c24       ??_C@_0CL@A@FLUSH?3?5Value?5of?5LUNIT?5?$CI?$CFd?$CJ?5is?5out?5of?5range?$AA@ 006b1c24     libifcoremt:for_diags_intel.obj
 0003:00024c50       ??_C@_0CA@A@FLUSH?3?5Unit?5?$CFd?5is?5not?5connected?$AA@ 006b1c50     libifcoremt:for_diags_intel.obj
 0003:00024c70       ??_C@_0CE@A@Invalid?5string?5length?5?$CI?$CFd?$CJ?5to?5ICHAR?$AA@ 006b1c70     libifcoremt:for_diags_intel.obj
 0003:00024c94       ??_C@_0CF@A@Invalid?5string?5length?5?$CI?$CFd?$CJ?5to?5IACHAR?$AA@ 006b1c94     libifcoremt:for_diags_intel.obj
 0003:00024cbc       ??_C@_0CI@A@Integer?5zero?5raised?5to?5a?5negative?5power?$AA@ 006b1cbc     libifcoremt:for_diags_intel.obj
 0003:00024ce4       ??_C@_0CE@A@Integer?5zero?5raised?5to?5zeroth?5power?$AA@ 006b1ce4     libifcoremt:for_diags_intel.obj
 0003:00024d08       ??_C@_0DE@A@SIZE?5argument?5?$CI?$CFd?$CJ?5to?5ISHFTC?5intrinsic?5out?5of?5range?$AA@ 006b1d08     libifcoremt:for_diags_intel.obj
 0003:00024d3c       ??_C@_0DF@A@SHIFT?5argument?5?$CI?$CFd?$CJ?5to?5ISHFTC?5intrinsic?5out?5of?5range?$AA@ 006b1d3c     libifcoremt:for_diags_intel.obj
 0003:00024d74       ??_C@_0DC@A@Out?5of?5range?3?5DIM?5argument?5to?5LBOUND?5has?5value?5?$CFd?$AA@ 006b1d74     libifcoremt:for_diags_intel.obj
 0003:00024dc0       ??_C@_0EH@A@Out?5of?5range?3?5DIM?5argument?5?$CI?$CFd?$CJ?5to?5LBOUND?5greater?5than?5array?5rank?5?$CI?$CFd?$CJ?$AA@ 006b1dc0     libifcoremt:for_diags_intel.obj
 0003:00024e20       ??_C@_0DC@A@Out?5of?5range?3?5DIM?5argument?5to?5MAXVAL?5has?5value?5?$CFd?$AA@ 006b1e20     libifcoremt:for_diags_intel.obj
 0003:00024e60       ??_C@_0EI@A@Out?5of?5range?3?5DIM?5argument?5to?5MAXVAL?5has?5value?5?$CFd?5with?5ARRAY?5of?5rank?5?$CFd?$AA@ 006b1e60     libifcoremt:for_diags_intel.obj
 0003:00024ec0       ??_C@_0DA@A@Cannot?5allocate?5array?5temporary?5?9?5out?5of?5memory?$AA@ 006b1ec0     libifcoremt:for_diags_intel.obj
 0003:00024ef0       ??_C@_0CO@A@Attempt?5to?5DEALLOCATE?5part?5of?5a?5larger?5object?$AA@ 006b1ef0     libifcoremt:for_diags_intel.obj
 0003:00024f20       ??_C@_0DO@A@Pointer?5in?5DEALLOCATE?5is?5ASSOCIATED?5with?5an?5ALLOCATABLE?5array?$AA@ 006b1f20     libifcoremt:for_diags_intel.obj
 0003:00024f60       ??_C@_0DI@A@Attempt?5to?5DEALLOCATE?5an?5object?5which?5was?5not?5ALLOCATEd?$AA@ 006b1f60     libifcoremt:for_diags_intel.obj
 0003:00024f98       ??_C@_0CP@A@Cannot?5ALLOCATE?5scalar?5POINTER?5?9?5out?5of?5memory?$AA@ 006b1f98     libifcoremt:for_diags_intel.obj
 0003:00024fc8       ??_C@_0CM@A@DEALLOCATE?3?5object?5not?5allocated?1associated?$AA@ 006b1fc8     libifcoremt:for_diags_intel.obj
 0003:00024ff4       ??_C@_0CO@A@Cannot?5allocate?5POINTER?5array?5?9?5out?5of?5memory?$AA@ 006b1ff4     libifcoremt:for_diags_intel.obj
 0003:00025024       ??_C@_0CA@A@DEALLOCATE?3?5Array?5not?5allocated?$AA@ 006b2024     libifcoremt:for_diags_intel.obj
 0003:00025044       ??_C@_0CK@A@DEALLOCATE?3?5Character?5array?5not?5allocated?$AA@ 006b2044     libifcoremt:for_diags_intel.obj
 0003:00025070       ??_C@_0DC@A@Cannot?5ALLOCATE?5ALLOCATABLE?5array?5?9?5out?5of?5memory?$AA@ 006b2070     libifcoremt:for_diags_intel.obj
 0003:000250a4       ??_C@_0DD@A@Cannot?5allocate?5automatic?5variable?5?9?5out?5of?5memory?$AA@ 006b20a4     libifcoremt:for_diags_intel.obj
 0003:000250d8       ??_C@_0DH@A@DEALLOCATE?5failure?3?5ALLOCATABLE?5array?5is?5not?5ALLOCATEd?$AA@ 006b20d8     libifcoremt:for_diags_intel.obj
 0003:00025110       ??_C@_0DC@A@Out?5of?5range?3?5DIM?5argument?5to?5MINVAL?5has?5value?5?$CFd?$AA@ 006b2110     libifcoremt:for_diags_intel.obj
 0003:00025160       ??_C@_0EI@A@Out?5of?5range?3?5DIM?5argument?5to?5MINVAL?5has?5value?5?$CFd?5with?5ARRAY?5of?5rank?5?$CFd?$AA@ 006b2160     libifcoremt:for_diags_intel.obj
 0003:000251c0       ??_C@_0CL@A@P?5argument?5to?5MOD?5is?5double?5precision?5zero?$AA@ 006b21c0     libifcoremt:for_diags_intel.obj
 0003:000251ec       ??_C@_0CC@A@P?5argument?5to?5MOD?5is?5integer?5zero?$AA@ 006b21ec     libifcoremt:for_diags_intel.obj
 0003:00025210       ??_C@_0BP@A@P?5argument?5to?5MOD?5is?5real?5zero?$AA@ 006b2210     libifcoremt:for_diags_intel.obj
 0003:00025230       ??_C@_0CC@A@P?5argument?5to?5MODULO?5is?5real?5zero?$AA@ 006b2230     libifcoremt:for_diags_intel.obj
 0003:00025254       ??_C@_0BN@A@P?5argument?5to?5modulo?5is?5zero?$AA@ 006b2254     libifcoremt:for_diags_intel.obj
 0003:00025274       ??_C@_0BO@A@Argument?5S?5to?5NEAREST?5is?5zero?$AA@ 006b2274     libifcoremt:for_diags_intel.obj
 0003:00025294       ??_C@_0BH@A@Heap?5Storage?5Exhausted?$AA@ 006b2294     libifcoremt:for_diags_intel.obj
 0003:000252ac       ??_C@_0CJ@A@PUT?5argument?5to?5RANDOM_SEED?5is?5too?5small?$AA@ 006b22ac     libifcoremt:for_diags_intel.obj
 0003:000252d8       ??_C@_0CJ@A@GET?5argument?5to?5RANDOM_SEED?5is?5too?5small?$AA@ 006b22d8     libifcoremt:for_diags_intel.obj
 0003:00025304       ??_C@_0BI@A@Recursive?5i?1o?5reference?$AA@ 006b2304     libifcoremt:for_diags_intel.obj
 0003:0002531c       ??_C@_0CL@A@Argument?5to?5SHAPE?5intrinsic?5is?5not?5PRESENT?$AA@ 006b231c     libifcoremt:for_diags_intel.obj
 0003:00025348       ??_C@_0DC@A@Out?5of?5range?3?5DIM?5argument?5to?5UBOUND?5has?5value?5?$CFd?$AA@ 006b2348     libifcoremt:for_diags_intel.obj
 0003:00025380       ??_C@_0EH@A@Out?5of?5range?3?5DIM?5argument?5?$CI?$CFd?$CJ?5to?5UBOUND?5greater?5than?5array?5rank?5?$CI?$CFd?$CJ?$AA@ 006b2380     libifcoremt:for_diags_intel.obj
 0003:000253e0       ??_C@_0DP@A@Out?5of?5range?3?5UBOUND?5of?5assumed?9size?5array?5with?5DIM?$DN?$DNrank?5?$CI?$CFd?$CJ?$AA@ 006b23e0     libifcoremt:for_diags_intel.obj
 0003:00025420       ??_C@_0EC@A@Out?5of?5range?3?5DIM?5argument?5?$CI?$CFd?$CJ?5to?5UBOUND?5greater?5than?5array?5rank?$AA@ 006b2420     libifcoremt:for_diags_intel.obj
 0003:00025480       ??_C@_0DD@A@Shape?5mismatch?3?5Dimension?5?$CFd?5extents?5are?5?$CFd?5and?5?$CFd?$AA@ 006b2480     libifcoremt:for_diags_intel.obj
 0003:000254b4       ??_C@_0BH@A@Illegal?5POSITION?5value?$AA@ 006b24b4     libifcoremt:for_diags_intel.obj
 0003:000254cc       ??_C@_0BF@A@Illegal?5ACTION?5value?$AA@ 006b24cc     libifcoremt:for_diags_intel.obj
 0003:000254e4       ??_C@_0DF@A@DELIM?$DN?5specifier?5not?5allowed?5for?5an?5UNFORMATTED?5file?$AA@ 006b24e4     libifcoremt:for_diags_intel.obj
 0003:0002551c       ??_C@_0BE@A@Illegal?5DELIM?5value?$AA@ 006b251c     libifcoremt:for_diags_intel.obj
 0003:00025530       ??_C@_0DD@A@PAD?$DN?5specifier?5not?5allowed?5for?5an?5UNFORMATTED?5file?$AA@ 006b2530     libifcoremt:for_diags_intel.obj
 0003:00025564       ??_C@_0BC@A@illegal?5PAD?5value?$AA@ 006b2564     libifcoremt:for_diags_intel.obj
 0003:00025578       ??_C@_0BO@A@illegal?5CARRIAGECONTROL?5value?$AA@ 006b2578     libifcoremt:for_diags_intel.obj
 0003:00025598       ??_C@_0CM@A@SIZE?5specifier?5only?5allowed?5with?5ADVANCE?$DNNO?$AA@ 006b2598     libifcoremt:for_diags_intel.obj
 0003:000255c4       ??_C@_0CC@A@illegal?5character?5in?5binary?5input?$AA@ 006b25c4     libifcoremt:for_diags_intel.obj
 0003:000255e8       ??_C@_0CB@A@illegal?5character?5in?5octal?5input?$AA@ 006b25e8     libifcoremt:for_diags_intel.obj
 0003:0002560c       ??_C@_0BK@A@End?5of?5record?5encountered?$AA@ 006b260c     libifcoremt:for_diags_intel.obj
 0003:00025628       ??_C@_0CK@A@Illegal?5subcript?5in?5namelist?5input?5record?$AA@ 006b2628     libifcoremt:for_diags_intel.obj
 0003:00025654       ??_C@_0BI@A@FOR_DEBUGGER_IS_PRESENT?$AA@ 006b2654     libifcoremt:for_diags_intel.obj
 0003:0002566c       ??_C@_0BJ@A@FOR__IS_DEBUGGER_PRESENT?$AA@ 006b266c     libifcoremt:for_diags_intel.obj
 0003:00025688       ??_C@_0BI@A@FOR_DISABLE_STACK_TRACE?$AA@ 006b2688     libifcoremt:for_diags_intel.obj
 0003:000256a0       ??_C@_03A@?$CFs?6?$AA@     006b26a0     libifcoremt:for_diags_intel.obj
 0003:000256a4       ??_C@_06A@?$CFs?$CFs?$AN?6?$AA@ 006b26a4     libifcoremt:for_diags_intel.obj
 0003:000256ac       ??_C@_0BC@A@decfort_dump_flag?$AA@ 006b26ac     libifcoremt:for_diags_intel.obj
 0003:000256c0       ??_C@_0O@A@f77_dump_flag?$AA@ 006b26c0     libifcoremt:for_diags_intel.obj
 0003:000256d0       ??_C@_04A@?$CC?$CFs?$CC?$AA@ 006b26d0     libifcoremt:for_diags_intel.obj
 0003:000256d8       ??_C@_0BC@A@for_diags_intel?4c?$AA@ 006b26d8     libifcoremt:for_diags_intel.obj
 0003:000256ec       ??_C@_08A@No?5error?$AA@   006b26ec     libifcoremt:for_diags_intel.obj
 0003:000256f8       ??_C@_07A@Success?$AA@     006b26f8     libifcoremt:for_diags_intel.obj
 0003:00025700       ??_C@_0O@A@Unknown?5error?$AA@ 006b2700     libifcoremt:for_diags_intel.obj
 0003:00025710       ??_C@_09A@?$CFs?5?3?5?$CFs?6?5?$AA@ 006b2710     libifcoremt:for_diags_intel.obj
 0003:0002571c       ??_C@_07A@?$CI1H?5?0A?$CJ?$AA@ 006b271c     libifcoremt:for_diags_intel.obj
 0003:00025724       ??_C@_05A@FORT0?$AA@       006b2724     libifcoremt:for_diags_intel.obj
 0003:0002572c       ??_C@_01A@a?$AA@           006b272c     libifcoremt:for_diags_intel.obj
 0003:00025730       ??_C@_0M@A@MessageBoxA?$AA@ 006b2730     libifcoremt:for_diags_intel.obj
 0003:0002573c       ??_C@_0BI@A@FOR_DIAGNOSTIC_LOG_FILE?$AA@ 006b273c     libifcoremt:for_diags_intel.obj
 0003:00025754       ??_C@_0BP@A@FOR_DISABLE_DIAGNOSTIC_DISPLAY?$AA@ 006b2754     libifcoremt:for_diags_intel.obj
 0003:00025774       ??_C@_0L@A@user32?4dll?$AA@ 006b2774     libifcoremt:for_diags_intel.obj
 0003:00025780       ??_C@_06A@?$CFs?3?5?$CFs?$AA@ 006b2780     libifcoremt:for_diags_intel.obj
 0003:00025788       ??_C@_06A@?$CFlu?1?$CFs?$AA@ 006b2788     libifcoremt:for_diags_intel.obj
 0003:00025790       ??_C@_0P@A@ifcore_msg?4dll?$AA@ 006b2790     libifcoremt:for_diags_intel.obj
 0003:000257a0       ??_C@_0N@A@kernel32?4dll?$AA@ 006b27a0     libifcoremt:for_aio.obj
 0003:000257b0       ??_C@_0L@A@OpenThread?$AA@ 006b27b0     libifcoremt:for_aio.obj
 0003:000257bc       ??_C@_09A@for_aio?4c?$AA@  006b27bc     libifcoremt:for_aio.obj
 0003:00025a20       ??_C@_0P@A@for_fmt_comp?4c?$AA@ 006b2a20     libifcoremt:for_fmt_comp.obj
 0003:00025b60       ??_C@_09A@for_put?4c?$AA@  006b2b60     libifcoremt:for_put.obj
 0003:00025f80       _for__b_fmt_table          006b2f80     libifcoremt:for_intrp_fmt.obj
 0003:00026000       _for__fedg_fmt_table       006b3000     libifcoremt:for_intrp_fmt.obj
 0003:000260e0       _for__coerce_data_types    006b30e0     libifcoremt:for_intrp_fmt.obj
 0003:00026340       _for__i_fmt_table          006b3340     libifcoremt:for_intrp_fmt.obj
 0003:00026350       _for__oz_fmt_table         006b3350     libifcoremt:for_intrp_fmt.obj
 0003:000263a0       ??_C@_0BA@A@for_intrp_fmt?4c?$AA@ 006b33a0     libifcoremt:for_intrp_fmt.obj
 0003:00026600       ??_C@_02A@?$CFu?$AA@       006b3600     libifcoremt:for_io_util.obj
 0003:00026660       _for__dsc_itm_table        006b3660     libifcoremt:for_desc_item.obj
 0003:000266e0       ??_C@_0BA@A@for_desc_item?4c?$AA@ 006b36e0     libifcoremt:for_desc_item.obj
 0003:00027040       ??_C@_0BD@A@for_exit_handler?4c?$AA@ 006b4040     libifcoremt:for_exit_handler.obj
 0003:00027054       _nAvSignature              006b4054     libifcoremt:for_avalloc.obj
 0003:00027058       ??_C@_01A@?$HL?$AA@        006b4058     libifcoremt:for_avalloc.obj
 0003:0002705c       ??_C@_04A@?$CF08X?$AA@     006b405c     libifcoremt:for_avalloc.obj
 0003:00027064       ??_C@_0M@A@?90000?90000?9?$AA@ 006b4064     libifcoremt:for_avalloc.obj
 0003:00027070       ??_C@_04A@?$CF02X?$AA@     006b4070     libifcoremt:for_avalloc.obj
 0003:00027078       ??_C@_01A@?9?$AA@          006b4078     libifcoremt:for_avalloc.obj
 0003:0002707c       ??_C@_01A@?$HN?$AA@        006b407c     libifcoremt:for_avalloc.obj
 0003:00027340       ??_C@_0BF@A@for_common_inquire?4c?$AA@ 006b4340     libifcoremt:for_common_inquire.obj
 0003:00027358       ??_C@_06A@NODENY?$AA@      006b4358     libifcoremt:for_common_inquire.obj
 0003:000274b4       ??_C@_04A@USER?$AA@        006b44b4     libifcoremt:for_nt_open_proc.obj
 0003:000274bc       ??_C@_0BD@A@for_nt_open_proc?4c?$AA@ 006b44bc     libifcoremt:for_nt_open_proc.obj
 0003:000274d0       ??_C@_03A@CON?$AA@         006b44d0     libifcoremt:for_nt_open_proc.obj
 0003:000274d4       ??_C@_0O@A@FORT_BUFFERED?$AA@ 006b44d4     libifcoremt:for_nt_open_proc.obj
 0003:000274e4       ??_C@_04A@COM1?$AA@        006b44e4     libifcoremt:for_nt_open_proc.obj
 0003:000274ec       ??_C@_07A@Unit?5?$CFi?$AA@ 006b44ec     libifcoremt:for_nt_open_proc.obj
 0003:000274f4       ??_C@_07A@fort?4?$CFd?$AA@ 006b44f4     libifcoremt:for_nt_open_proc.obj
 0003:000274fc       ??_C@_01A@?2?$AA@          006b44fc     libifcoremt:for_nt_open_proc.obj
 0003:00027500       ??_C@_0M@A@FORT_TMPDIR?$AA@ 006b4500     libifcoremt:for_nt_open_proc.obj
 0003:0002750c       ??_C@_03A@FOR?$AA@         006b450c     libifcoremt:for_nt_open_proc.obj
 0003:00027510       ??_C@_04A@?$CFs?$CFd?$AA@  006b4510     libifcoremt:for_nt_open_proc.obj
 0003:00027518       ??_C@_0BM@A@Open?3?5Select?5File?5for?5Unit?5?$AA@ 006b4518     libifcoremt:for_nt_open_proc.obj
 0003:00027534       ??_C@_0CM@A@A?5File?5Must?5be?5Selected?$AN?$ANTerminate?5Program?$DP?$AA@ 006b4534     libifcoremt:for_nt_open_proc.obj
 0003:00027560       ??_C@_0BA@A@File?5Open?5Error?$AA@ 006b4560     libifcoremt:for_nt_open_proc.obj
 0003:00027570       ??_C@_04A@?$CFs?$AN?6?$AA@ 006b4570     libifcoremt:for_nt_open_proc.obj
 0003:000275a0       ??_C@_0N@A@?$CFs?5?$CG?$CG?5DEL?5?$CFs?$AA@ 006b45a0     libifcoremt:for_close_proc.obj
 0003:000275b0       ??_C@_0BJ@A@FOR_DEFAULT_PRINT_DEVICE?$AA@ 006b45b0     libifcoremt:for_close_proc.obj
 0003:000275cc       ??_C@_03A@PRN?$AA@         006b45cc     libifcoremt:for_close_proc.obj
 0003:000275d0       ??_C@_0BM@A@Command?4com?5?1C?5COPY?5?$CC?$CFs?$CC?5?$CFs?$AA@ 006b45d0     libifcoremt:for_close_proc.obj
 0003:000275ec       ??_C@_0BI@A@Cmd?4exe?5?1C?5COPY?5?$CC?$CFs?$CC?5?$CFs?$AA@ 006b45ec     libifcoremt:for_close_proc.obj
 0003:00027620       _for__wfs_table            006b4620     libifcoremt:for_ldir_wfs.obj
 0003:00027720       _for__wfs_msf_table        006b4720     libifcoremt:for_ldir_wfs.obj
 0003:00027840       ??_C@_09A@for_get?4c?$AA@  006b4840     libifcoremt:for_get.obj
 0003:0002784c       ??_C@_02A@?$AN?6?$AA@      006b484c     libifcoremt:for_get.obj
 0003:00027980       ??_C@_0P@A@for_wseq_nml?4c?$AA@ 006b4980     libifcoremt:for_wseq_nml.obj
 0003:00027990       ??_C@_0BN@A@Internal?5NML?5Write?5or?5ENCODE?$AA@ 006b4990     libifcoremt:for_wseq_nml.obj
 0003:000279b0       ??_C@_0L@A@NML?5ENCODE?$AA@ 006b49b0     libifcoremt:for_wseq_nml.obj
 0003:000279bc       ??_C@_0BD@A@Internal?5NML?5Write?$AA@ 006b49bc     libifcoremt:for_wseq_nml.obj
 0003:000279d0       ??_C@_04A@$end?$AA@        006b49d0     libifcoremt:for_wseq_nml.obj
 0003:000279d8       ??_C@_04A@$END?$AA@        006b49d8     libifcoremt:for_wseq_nml.obj
 0003:000279e0       ??_C@_02A@?$CF?$CJ?$AA@    006b49e0     libifcoremt:for_wseq_nml.obj
 0003:00027ac0       ??_C@_0BE@A@FOR_NOERROR_DIALOGS?$AA@ 006b4ac0     libifcoremt:for_init.obj
 0003:00027ad4       ??_C@_09A@control?9C?$AA@  006b4ad4     libifcoremt:for_init.obj
 0003:00027ae0       ??_C@_0O@A@control?9BREAK?$AA@ 006b4ae0     libifcoremt:for_init.obj
 0003:00027af0       ??_C@_0N@A@window?9CLOSE?$AA@ 006b4af0     libifcoremt:for_init.obj
 0003:00027b00       ??_C@_0BG@A@FOR_IGNORE_EXCEPTIONS?$AA@ 006b4b00     libifcoremt:for_init.obj
 0003:00027cc0       ??_C@_0BP@A@FOR_ENABLE_VERBOSE_STACK_TRACE?$AA@ 006b4cc0     libifcoremt:tbk_traceback.obj
 0003:00027ce0       ??_C@_0BP@A@TBK_ENABLE_VERBOSE_STACK_TRACE?$AA@ 006b4ce0     libifcoremt:tbk_traceback.obj
 0003:00027d00       ??_C@_0DF@A@?6Hex?5Dump?5Of?5Exception?5Record?5Context?5Information?3?6?6?$AA@ 006b4d00     libifcoremt:tbk_traceback.obj
 0003:00027d38       ??_C@_0DI@A@?$CFs?6?6?$CFs?$CF8?48lX?6?$CFs?$CF8?48lX?$CFs?$CF8?48lX?$CFs?$CF8?48lX?$CFs?$CF8?48lX?$CFs?$CF8?48lX?6?6?$AA@ 006b4d38     libifcoremt:tbk_traceback.obj
 0003:00027d70       ??_C@_0DM@A@Exception?5Context?3?5?5Processor?5Control?5and?5Status?5Registers?4?$AA@ 006b4d70     libifcoremt:tbk_traceback.obj
 0003:00027dac       ??_C@_09A@EFlags?3?5?5?$AA@ 006b4dac     libifcoremt:tbk_traceback.obj
 0003:00027db8       ??_C@_05A@CS?3?5?5?$AA@    006b4db8     libifcoremt:tbk_traceback.obj
 0003:00027dc0       ??_C@_08A@?5?5EIP?3?5?5?$AA@ 006b4dc0     libifcoremt:tbk_traceback.obj
 0003:00027dcc       ??_C@_08A@?5?5SS?3?5?5?5?$AA@ 006b4dcc     libifcoremt:tbk_traceback.obj
 0003:00027dd8       ??_C@_08A@?5?5ESP?3?5?5?$AA@ 006b4dd8     libifcoremt:tbk_traceback.obj
 0003:00027de4       ??_C@_08A@?5?5EBP?3?5?5?$AA@ 006b4de4     libifcoremt:tbk_traceback.obj
 0003:00027df0       ??_C@_0DI@A@?$CFs?6?6?$CFs?$CF8?48lX?$CFs?$CF8?48lX?$CFs?$CF8?48lX?$CFs?$CF8?48lX?6?$CFs?$CF8?48lX?$CFs?$CF8?48lX?6?6?$AA@ 006b4df0     libifcoremt:tbk_traceback.obj
 0003:00027e28       ??_C@_0DB@A@Exception?5Context?3?5?5Processor?5Integer?5Registers?4?$AA@ 006b4e28     libifcoremt:tbk_traceback.obj
 0003:00027e5c       ??_C@_05A@EAX?3?5?$AA@     006b4e5c     libifcoremt:tbk_traceback.obj
 0003:00027e64       ??_C@_08A@?5?5EBX?3?5?5?$AA@ 006b4e64     libifcoremt:tbk_traceback.obj
 0003:00027e70       ??_C@_08A@?5?5ECX?3?5?5?$AA@ 006b4e70     libifcoremt:tbk_traceback.obj
 0003:00027e7c       ??_C@_08A@?5?5EDX?3?5?5?$AA@ 006b4e7c     libifcoremt:tbk_traceback.obj
 0003:00027e88       ??_C@_05A@ESI?3?5?$AA@     006b4e88     libifcoremt:tbk_traceback.obj
 0003:00027e90       ??_C@_08A@?5?5EDI?3?5?5?$AA@ 006b4e90     libifcoremt:tbk_traceback.obj
 0003:00027e9c       ??_C@_0CH@A@?$CFs?6?6?$CFs?$CF8?48lX?$CFs?$CF8?48lX?$CFs?$CF8?48lX?$CFs?$CF8?48lX?6?6?$AA@ 006b4e9c     libifcoremt:tbk_traceback.obj
 0003:00027ec4       ??_C@_0DB@A@Exception?5Context?3?5?5Processor?5Segment?5Registers?4?$AA@ 006b4ec4     libifcoremt:tbk_traceback.obj
 0003:00027ef8       ??_C@_05A@DS?3?5?5?$AA@    006b4ef8     libifcoremt:tbk_traceback.obj
 0003:00027f00       ??_C@_08A@?5?5ES?3?5?5?5?$AA@ 006b4f00     libifcoremt:tbk_traceback.obj
 0003:00027f0c       ??_C@_08A@?5?5FS?3?5?5?5?$AA@ 006b4f0c     libifcoremt:tbk_traceback.obj
 0003:00027f18       ??_C@_08A@?5?5GS?3?5?5?5?$AA@ 006b4f18     libifcoremt:tbk_traceback.obj
 0003:00027f40       ??_C@_0PB@A@?$CFs?6?6?$CFs?$CF8?48lX?$CFs?$CF8?48lX?$CFs?$CF8?48lX?6?$CFs?$CF8?48lX?$CFs?$CF8?48lX?$CFs?$CF8?48lX?6?$CFs?$CF8?48lX?$CFs?$CF8?48lX?6?6?$CFs?6?6?$CFs?$CF4?44hX?$CF8?48lX?$CF8?48lX?$CFs?$CF4?44hX?$CF8?48lX?$CF8?48lX?6?$CFs?$CF4?44hX?$CF8?48lX?$CF8?48lX?$CFs?$CF4?44hX?$CF8?48lX?$CF8?48lX?6?$CFs?$CF4?44hX?$CF8?48lX?$CF8?48lX?$CFs?$CF4?44hX?$CF8?48lX?$CF8?48lX?6?$CFs?$CF4?44hX?$CF8?48lX?$CF8?48lX?$CFs?$CF4?44hX?$CF8?48lX?$CF8?48lX?6?$AA@ 006b4f40     libifcoremt:tbk_traceback.obj
 0003:00028040       ??_C@_0EB@A@Exception?5Context?3?5?5Floating?5Point?5Control?5and?5Status?5Registers?4?$AA@ 006b5040     libifcoremt:tbk_traceback.obj
 0003:000280a0       ??_C@_0P@A@ControlWord?3?5?5?$AA@ 006b50a0     libifcoremt:tbk_traceback.obj
 0003:000280b0       ??_C@_0BD@A@?5?5ErrorOffset?3?5?5?5?5?$AA@ 006b50b0     libifcoremt:tbk_traceback.obj
 0003:000280c4       ??_C@_0BC@A@?5?5DataOffset?3?5?5?5?5?$AA@ 006b50c4     libifcoremt:tbk_traceback.obj
 0003:000280d8       ??_C@_0P@A@StatusWord?3?5?5?5?$AA@ 006b50d8     libifcoremt:tbk_traceback.obj
 0003:000280e8       ??_C@_0BD@A@?5?5ErrorSelector?3?5?5?$AA@ 006b50e8     libifcoremt:tbk_traceback.obj
 0003:000280fc       ??_C@_0BC@A@?5?5DataSelector?3?5?5?$AA@ 006b50fc     libifcoremt:tbk_traceback.obj
 0003:00028110       ??_C@_0P@A@TagWord?3?5?5?5?5?5?5?$AA@ 006b5110     libifcoremt:tbk_traceback.obj
 0003:00028120       ??_C@_0BD@A@?5?5Cr0NpxState?3?5?5?5?5?$AA@ 006b5120     libifcoremt:tbk_traceback.obj
 0003:00028134       ??_C@_0DB@A@Exception?5Context?3?5?5Floating?5Point?5RegisterArea?4?$AA@ 006b5134     libifcoremt:tbk_traceback.obj
 0003:00028168       ??_C@_0BE@A@RegisterArea?$FL00?$FN?3?5?5?$AA@ 006b5168     libifcoremt:tbk_traceback.obj
 0003:0002817c       ??_C@_0BG@A@?5?5RegisterArea?$FL10?$FN?3?5?5?$AA@ 006b517c     libifcoremt:tbk_traceback.obj
 0003:00028194       ??_C@_0BE@A@RegisterArea?$FL20?$FN?3?5?5?$AA@ 006b5194     libifcoremt:tbk_traceback.obj
 0003:000281a8       ??_C@_0BG@A@?5?5RegisterArea?$FL30?$FN?3?5?5?$AA@ 006b51a8     libifcoremt:tbk_traceback.obj
 0003:000281c0       ??_C@_0BE@A@RegisterArea?$FL40?$FN?3?5?5?$AA@ 006b51c0     libifcoremt:tbk_traceback.obj
 0003:000281d4       ??_C@_0BG@A@?5?5RegisterArea?$FL50?$FN?3?5?5?$AA@ 006b51d4     libifcoremt:tbk_traceback.obj
 0003:000281ec       ??_C@_0BE@A@RegisterArea?$FL60?$FN?3?5?5?$AA@ 006b51ec     libifcoremt:tbk_traceback.obj
 0003:00028200       ??_C@_0BG@A@?5?5RegisterArea?$FL70?$FN?3?5?5?$AA@ 006b5200     libifcoremt:tbk_traceback.obj
 0003:00028218       ??_C@_01A@?6?$AA@          006b5218     libifcoremt:tbk_traceback.obj
 0003:000287c0       ??_C@_0BB@A@0123456789ABCDEF?$AA@ 006b57c0     libifcoremt:cvt_data_to_text.obj
 0003:00028a00       ??_C@_0O@A@for_portlib?4c?$AA@ 006b5a00     libifcoremt:for_portlib.obj
 0003:00028a20       _vax_c                     006b5a20     libifcoremt:cvt__globals.obj
 0003:00028a60       _ieee_t                    006b5a60     libifcoremt:cvt__globals.obj
 0003:00028ad0       _ieee_s                    006b5ad0     libifcoremt:cvt__globals.obj
 0003:00028b08       _ibm_s                     006b5b08     libifcoremt:cvt__globals.obj
 0003:00028b24       _ibm_l                     006b5b24     libifcoremt:cvt__globals.obj
 0003:00028b5c       _cray                      006b5b5c     libifcoremt:cvt__globals.obj
 0003:00028b94       _int_c                     006b5b94     libifcoremt:cvt__globals.obj
 0003:00028be0       ??_C@_03A@nan?$AA@         006b5be0     libifcoremt:cvtas_x_to_a.obj
 0003:00028be4       ??_C@_03A@NaN?$AA@         006b5be4     libifcoremt:cvtas_x_to_a.obj
 0003:00028be8       ??_C@_08A@infinity?$AA@    006b5be8     libifcoremt:cvtas_x_to_a.obj
 0003:00028bf4       ??_C@_08A@Infinity?$AA@    006b5bf4     libifcoremt:cvtas_x_to_a.obj
 0003:000295a0       _cvtas_pten_64             006b65a0     libifcoremt:cvtas_pow_ten_64.obj
 0003:000298a0       _cvtas_pten_64_bexp        006b68a0     libifcoremt:cvtas_pow_ten_64.obj
 0003:00029960       _cvtas_tiny_pten_64        006b6960     libifcoremt:cvtas_pow_ten_64.obj
 0003:000299e0       _cvtas_tiny_pten_64_map    006b69e0     libifcoremt:cvtas_pow_ten_64.obj
 0003:00029a60       _cvtas_huge_pten_64        006b6a60     libifcoremt:cvtas_pow_ten_64.obj
 0003:00029ae0       _cvtas_huge_pten_64_map    006b6ae0     libifcoremt:cvtas_pow_ten_64.obj
 0003:00029b3c       _cvtas_tiny_pten_64_bexp   006b6b3c     libifcoremt:cvtas_pow_ten_64.obj
 0003:00029b5c       _cvtas_huge_pten_64_bexp   006b6b5c     libifcoremt:cvtas_pow_ten_64.obj
 0003:00029b80       _cvtas_pten_128            006b6b80     libifcoremt:cvtas_pow_ten_128.obj
 0003:00029d40       _cvtas_tiny_tiny_pten_128  006b6d40     libifcoremt:cvtas_pow_ten_128.obj
 0003:00029d80       _cvtas_tiny_pten_128       006b6d80     libifcoremt:cvtas_pow_ten_128.obj
 0003:00029e20       _cvtas_tiny_pten_128_map   006b6e20     libifcoremt:cvtas_pow_ten_128.obj
 0003:00029ec0       _cvtas_huge_huge_pten_128  006b6ec0     libifcoremt:cvtas_pow_ten_128.obj
 0003:00029f00       _cvtas_huge_pten_128       006b6f00     libifcoremt:cvtas_pow_ten_128.obj
 0003:00029fa0       _cvtas_huge_pten_128_map   006b6fa0     libifcoremt:cvtas_pow_ten_128.obj
 0003:0002a028       _cvtas_pten_128_bexp       006b7028     libifcoremt:cvtas_pow_ten_128.obj
 0003:0002a060       _cvtas_tiny_tiny_pten_128_bexp 006b7060     libifcoremt:cvtas_pow_ten_128.obj
 0003:0002a068       _cvtas_tiny_pten_128_bexp  006b7068     libifcoremt:cvtas_pow_ten_128.obj
 0003:0002a07c       _cvtas_huge_huge_pten_128_bexp 006b707c     libifcoremt:cvtas_pow_ten_128.obj
 0003:0002a084       _cvtas_huge_pten_128_bexp  006b7084     libifcoremt:cvtas_pow_ten_128.obj
 0003:0002a0a0       _cvtas_globals_t           006b70a0     libifcoremt:cvtas_globals.obj
 0003:0002a100       _cvtas_globals_x           006b7100     libifcoremt:cvtas_globals.obj
 0003:0002a160       _cvtas_pten_word           006b7160     libifcoremt:cvtas_globals.obj
 0003:0002a188       _cvtas_globals_s           006b7188     libifcoremt:cvtas_globals.obj
 0003:0002a380       _cvtas_pten_t              006b7380     libifcoremt:cvtas_pow_ten_t.obj
 0003:0002a680       _cvtas_tiny_pten_t         006b7680     libifcoremt:cvtas_pow_ten_t.obj
 0003:0002a720       _cvtas_tiny_pten_t_map     006b7720     libifcoremt:cvtas_pow_ten_t.obj
 0003:0002a780       _cvtas_huge_pten_t         006b7780     libifcoremt:cvtas_pow_ten_t.obj
 0003:0002a800       _cvtas_huge_pten_t_map     006b7800     libifcoremt:cvtas_pow_ten_t.obj
 0003:000387fc       ___libm_float_zero         006c57fc     libmmt:libm_error.obj
 0003:00038804       ___libm_float_one          006c5804     libmmt:libm_error.obj
 0003:0003880c       ___libm_float_inf          006c580c     libmmt:libm_error.obj
 0003:00038814       ___libm_float_huge         006c5814     libmmt:libm_error.obj
 0003:0003881c       ___libm_double_zero        006c581c     libmmt:libm_error.obj
 0003:0003882c       ___libm_double_one         006c582c     libmmt:libm_error.obj
 0003:0003883c       ___libm_double_inf         006c583c     libmmt:libm_error.obj
 0003:0003884c       ___libm_double_huge        006c584c     libmmt:libm_error.obj
 0003:0003885c       ___libm_ldouble_zero       006c585c     libmmt:libm_error.obj
 0003:0003886c       ___libm_ldouble_neg_zero   006c586c     libmmt:libm_error.obj
 0003:0003887c       ___libm_ldouble_one        006c587c     libmmt:libm_error.obj
 0003:0003888c       ___libm_ldouble_neg_one    006c588c     libmmt:libm_error.obj
 0003:0003889c       ___libm_ldouble_inf        006c589c     libmmt:libm_error.obj
 0003:000388ac       ___libm_ldouble_neg_inf    006c58ac     libmmt:libm_error.obj
 0003:000388bc       ___libm_ldouble_huge       006c58bc     libmmt:libm_error.obj
 0003:000388cc       ___libm_ldouble_neg_huge   006c58cc     libmmt:libm_error.obj
 0003:000388e0       ??_C@_0BC@A@?$ANUn?9used?5message?6?$AA@ 006c58e0     libmmt:libm_error.obj
 0003:000388f4       ??_C@_0BD@A@?$ANlogl?3?5SING?5error?6?$AA@ 006c58f4     libmmt:libm_error.obj
 0003:00038908       ??_C@_0BC@A@?$ANlog?3?5SING?5error?6?$AA@ 006c5908     libmmt:libm_error.obj
 0003:0003891c       ??_C@_0BD@A@?$ANlogf?3?5SING?5error?6?$AA@ 006c591c     libmmt:libm_error.obj
 0003:00038930       ??_C@_0BF@A@?$ANlogl?3?5DOMAIN?5error?6?$AA@ 006c5930     libmmt:libm_error.obj
 0003:00038948       ??_C@_0BE@A@?$ANlog?3?5DOMAIN?5error?6?$AA@ 006c5948     libmmt:libm_error.obj
 0003:0003895c       ??_C@_0BF@A@?$ANlogf?3?5DOMAIN?5error?6?$AA@ 006c595c     libmmt:libm_error.obj
 0003:00038974       ??_C@_0BE@A@?$ANy0l?3?5DOMAIN?5error?6?$AA@ 006c5974     libmmt:libm_error.obj
 0003:00038988       ??_C@_0BD@A@?$ANy0?3?5DOMAIN?5error?6?$AA@ 006c5988     libmmt:libm_error.obj
 0003:0003899c       ??_C@_0BE@A@?$ANy0f?3?5DOMAIN?5error?6?$AA@ 006c599c     libmmt:libm_error.obj
 0003:000389b0       ??_C@_0BE@A@?$ANy1l?3?5DOMAIN?5error?6?$AA@ 006c59b0     libmmt:libm_error.obj
 0003:000389c4       ??_C@_0BD@A@?$ANy1?3?5DOMAIN?5error?6?$AA@ 006c59c4     libmmt:libm_error.obj
 0003:000389d8       ??_C@_0BE@A@?$ANy1f?3?5DOMAIN?5error?6?$AA@ 006c59d8     libmmt:libm_error.obj
 0003:000389ec       ??_C@_0BE@A@?$ANynl?3?5DOMAIN?5error?6?$AA@ 006c59ec     libmmt:libm_error.obj
 0003:00038a00       ??_C@_0BD@A@?$ANyn?3?5DOMAIN?5error?6?$AA@ 006c5a00     libmmt:libm_error.obj
 0003:00038a14       ??_C@_0BE@A@?$ANynf?3?5DOMAIN?5error?6?$AA@ 006c5a14     libmmt:libm_error.obj
 0003:00038a28       ??_C@_0BF@A@?$ANlog1pl?3?5SING?5error?6?$AA@ 006c5a28     libmmt:libm_error.obj
 0003:00038a40       ??_C@_0BE@A@?$ANlog1p?3?5SING?5error?6?$AA@ 006c5a40     libmmt:libm_error.obj
 0003:00038a54       ??_C@_0BF@A@?$ANlog1pf?3?5SING?5error?6?$AA@ 006c5a54     libmmt:libm_error.obj
 0003:00038a6c       ??_C@_0BH@A@?$ANlog1pl?3?5DOMAIN?5error?6?$AA@ 006c5a6c     libmmt:libm_error.obj
 0003:00038a84       ??_C@_0BG@A@?$ANlog1p?3?5DOMAIN?5error?6?$AA@ 006c5a84     libmmt:libm_error.obj
 0003:00038a9c       ??_C@_0BH@A@?$ANlog1pf?3?5DOMAIN?5error?6?$AA@ 006c5a9c     libmmt:libm_error.obj
 0003:00038ab4       ??_C@_0BF@A@?$ANlog10l?3?5SING?5error?6?$AA@ 006c5ab4     libmmt:libm_error.obj
 0003:00038acc       ??_C@_0BE@A@?$ANlog10?3?5SING?5error?6?$AA@ 006c5acc     libmmt:libm_error.obj
 0003:00038ae0       ??_C@_0BF@A@?$ANlog10f?3?5SING?5error?6?$AA@ 006c5ae0     libmmt:libm_error.obj
 0003:00038af8       ??_C@_0BH@A@?$ANlog10l?3?5DOMAIN?5error?6?$AA@ 006c5af8     libmmt:libm_error.obj
 0003:00038b10       ??_C@_0BG@A@?$ANlog10?3?5DOMAIN?5error?6?$AA@ 006c5b10     libmmt:libm_error.obj
 0003:00038b28       ??_C@_0BH@A@?$ANlog10f?3?5DOMAIN?5error?6?$AA@ 006c5b28     libmmt:libm_error.obj
 0003:00038b40       ??_C@_0BE@A@?$ANlog2l?3?5SING?5error?6?$AA@ 006c5b40     libmmt:libm_error.obj
 0003:00038b54       ??_C@_0BD@A@?$ANlog2?3?5SING?5error?6?$AA@ 006c5b54     libmmt:libm_error.obj
 0003:00038b68       ??_C@_0BE@A@?$ANlog2f?3?5SING?5error?6?$AA@ 006c5b68     libmmt:libm_error.obj
 0003:00038b7c       ??_C@_0BG@A@?$ANlog2l?3?5DOMAIN?5error?6?$AA@ 006c5b7c     libmmt:libm_error.obj
 0003:00038b94       ??_C@_0BF@A@?$ANlog2?3?5DOMAIN?5error?6?$AA@ 006c5b94     libmmt:libm_error.obj
 0003:00038bac       ??_C@_0BG@A@?$ANlog2f?3?5DOMAIN?5error?6?$AA@ 006c5bac     libmmt:libm_error.obj
 0003:00038bc4       ??_C@_0BK@A@?$ANpowl?$CI0?00?$CJ?3?5DOMAIN?5error?6?$AA@ 006c5bc4     libmmt:libm_error.obj
 0003:00038be0       ??_C@_0BJ@A@?$ANpow?$CI0?00?$CJ?3?5DOMAIN?5error?6?$AA@ 006c5be0     libmmt:libm_error.obj
 0003:00038bfc       ??_C@_0BK@A@?$ANpowf?$CI0?00?$CJ?3?5DOMAIN?5error?6?$AA@ 006c5bfc     libmmt:libm_error.obj
 0003:00038c18       ??_C@_0CB@A@?$ANpowl?$CI0?0negative?$CJ?3?5DOMAIN?5error?6?$AA@ 006c5c18     libmmt:libm_error.obj
 0003:00038c3c       ??_C@_0CA@A@?$ANpow?$CI0?0negative?$CJ?3?5DOMAIN?5error?6?$AA@ 006c5c3c     libmmt:libm_error.obj
 0003:00038c5c       ??_C@_0CB@A@?$ANpowf?$CI0?0negative?$CJ?3?5DOMAIN?5error?6?$AA@ 006c5c5c     libmmt:libm_error.obj
 0003:00038c80       ??_C@_0CL@A@?$ANpowl?$CInegative?0non?9integer?$CJ?3?5DOMAIN?5error?6?$AA@ 006c5c80     libmmt:libm_error.obj
 0003:00038cac       ??_C@_0CK@A@?$ANpow?$CInegative?0non?9integer?$CJ?3?5DOMAIN?5error?6?$AA@ 006c5cac     libmmt:libm_error.obj
 0003:00038cd8       ??_C@_0CL@A@?$ANpowf?$CInegative?0non?9integer?$CJ?3?5DOMAIN?5error?6?$AA@ 006c5cd8     libmmt:libm_error.obj
 0003:00038d04       ??_C@_0BH@A@?$ANatan2l?3?5DOMAIN?5error?6?$AA@ 006c5d04     libmmt:libm_error.obj
 0003:00038d1c       ??_C@_0BG@A@?$ANatan2?3?5DOMAIN?5error?6?$AA@ 006c5d1c     libmmt:libm_error.obj
 0003:00038d34       ??_C@_0BH@A@?$ANatan2f?3?5DOMAIN?5error?6?$AA@ 006c5d34     libmmt:libm_error.obj
 0003:00038d4c       ??_C@_0BG@A@?$ANsqrtl?3?5DOMAIN?5error?6?$AA@ 006c5d4c     libmmt:libm_error.obj
 0003:00038d64       ??_C@_0BF@A@?$ANsqrt?3?5DOMAIN?5error?6?$AA@ 006c5d64     libmmt:libm_error.obj
 0003:00038d7c       ??_C@_0BG@A@?$ANsqrtf?3?5DOMAIN?5error?6?$AA@ 006c5d7c     libmmt:libm_error.obj
 0003:00038d94       ??_C@_0BG@A@?$ANfmodl?3?5DOMAIN?5error?6?$AA@ 006c5d94     libmmt:libm_error.obj
 0003:00038dac       ??_C@_0BF@A@?$ANfmod?3?5DOMAIN?5error?6?$AA@ 006c5dac     libmmt:libm_error.obj
 0003:00038dc4       ??_C@_0BG@A@?$ANfmodf?3?5DOMAIN?5error?6?$AA@ 006c5dc4     libmmt:libm_error.obj
 0003:00038ddc       ??_C@_0BL@A@?$ANremainderl?3?5DOMAIN?5error?6?$AA@ 006c5ddc     libmmt:libm_error.obj
 0003:00038df8       ??_C@_0BK@A@?$ANremainder?3?5DOMAIN?5error?6?$AA@ 006c5df8     libmmt:libm_error.obj
 0003:00038e14       ??_C@_0BL@A@?$ANremainderf?3?5DOMAIN?5error?6?$AA@ 006c5e14     libmmt:libm_error.obj
 0003:00038e30       ??_C@_0BG@A@?$ANacosl?3?5DOMAIN?5error?6?$AA@ 006c5e30     libmmt:libm_error.obj
 0003:00038e48       ??_C@_0BF@A@?$ANacos?3?5DOMAIN?5error?6?$AA@ 006c5e48     libmmt:libm_error.obj
 0003:00038e60       ??_C@_0BG@A@?$ANacosf?3?5DOMAIN?5error?6?$AA@ 006c5e60     libmmt:libm_error.obj
 0003:00038e78       ??_C@_0BG@A@?$ANasinl?3?5DOMAIN?5error?6?$AA@ 006c5e78     libmmt:libm_error.obj
 0003:00038e90       ??_C@_0BF@A@?$ANasin?3?5DOMAIN?5error?6?$AA@ 006c5e90     libmmt:libm_error.obj
 0003:00038ea8       ??_C@_0BG@A@?$ANasinf?3?5DOMAIN?5error?6?$AA@ 006c5ea8     libmmt:libm_error.obj
 0003:00038ec0       ??_C@_0BH@A@?$ANacoshl?3?5DOMAIN?5error?6?$AA@ 006c5ec0     libmmt:libm_error.obj
 0003:00038ed8       ??_C@_0BG@A@?$ANacosh?3?5DOMAIN?5error?6?$AA@ 006c5ed8     libmmt:libm_error.obj
 0003:00038ef0       ??_C@_0BH@A@?$ANacoshf?3?5DOMAIN?5error?6?$AA@ 006c5ef0     libmmt:libm_error.obj
 0003:00038f08       ??_C@_0BH@A@?$ANatanhl?3?5DOMAIN?5error?6?$AA@ 006c5f08     libmmt:libm_error.obj
 0003:00038f20       ??_C@_0BG@A@?$ANatanh?3?5DOMAIN?5error?6?$AA@ 006c5f20     libmmt:libm_error.obj
 0003:00038f38       ??_C@_0BH@A@?$ANatanhf?3?5DOMAIN?5error?6?$AA@ 006c5f38     libmmt:libm_error.obj
 0003:00038f50       ??_C@_0BF@A@?$ANatanhl?3?5SING?5error?6?$AA@ 006c5f50     libmmt:libm_error.obj
 0003:00038f68       ??_C@_0BE@A@?$ANatanh?3?5SING?5error?6?$AA@ 006c5f68     libmmt:libm_error.obj
 0003:00038f7c       ??_C@_0BF@A@?$ANatanhf?3?5SING?5error?6?$AA@ 006c5f7c     libmmt:libm_error.obj
 0003:00038f94       ??_C@_0BG@A@?$ANlgammal?3?5SING?5error?6?$AA@ 006c5f94     libmmt:libm_error.obj
 0003:00038fac       ??_C@_0BF@A@?$ANlgamma?3?5SING?5error?6?$AA@ 006c5fac     libmmt:libm_error.obj
 0003:00038fc4       ??_C@_0BG@A@?$ANlgammaf?3?5SING?5error?6?$AA@ 006c5fc4     libmmt:libm_error.obj
 0003:00038fdc       ??_C@_0BF@A@?$ANgammal?3?5SING?5error?6?$AA@ 006c5fdc     libmmt:libm_error.obj
 0003:00038ff4       ??_C@_0BE@A@?$ANgamma?3?5SING?5error?6?$AA@ 006c5ff4     libmmt:libm_error.obj
 0003:00039008       ??_C@_0BF@A@?$ANgammaf?3?5SING?5error?6?$AA@ 006c6008     libmmt:libm_error.obj
 0003:00039020       ??_C@_0BI@A@?$ANtgammal?3?5DOMAIN?5error?6?$AA@ 006c6020     libmmt:libm_error.obj
 0003:00039038       ??_C@_0BH@A@?$ANtgamma?3?5DOMAIN?5error?6?$AA@ 006c6038     libmmt:libm_error.obj
 0003:00039050       ??_C@_0BI@A@?$ANtgammaf?3?5DOMAIN?5error?6?$AA@ 006c6050     libmmt:libm_error.obj
 0003:00039068       ??_C@_0BD@A@?$ANj0l?3?5TLOSS?5error?6?$AA@ 006c6068     libmmt:libm_error.obj
 0003:0003907c       ??_C@_0BD@A@?$ANy0l?3?5TLOSS?5error?6?$AA@ 006c607c     libmmt:libm_error.obj
 0003:00039090       ??_C@_0BD@A@?$ANj1l?3?5TLOSS?5error?6?$AA@ 006c6090     libmmt:libm_error.obj
 0003:000390a4       ??_C@_0BD@A@?$ANy1l?3?5TLOSS?5error?6?$AA@ 006c60a4     libmmt:libm_error.obj
 0003:000390b8       ??_C@_0BD@A@?$ANjnl?3?5TLOSS?5error?6?$AA@ 006c60b8     libmmt:libm_error.obj
 0003:000390cc       ??_C@_0BD@A@?$ANynl?3?5TLOSS?5error?6?$AA@ 006c60cc     libmmt:libm_error.obj
 0003:000390e0       ??_C@_0BC@A@?$ANj0?3?5TLOSS?5error?6?$AA@ 006c60e0     libmmt:libm_error.obj
 0003:000390f4       ??_C@_0BC@A@?$ANy0?3?5TLOSS?5error?6?$AA@ 006c60f4     libmmt:libm_error.obj
 0003:00039108       ??_C@_0BC@A@?$ANj1?3?5TLOSS?5error?6?$AA@ 006c6108     libmmt:libm_error.obj
 0003:0003911c       ??_C@_0BC@A@?$ANy1?3?5TLOSS?5error?6?$AA@ 006c611c     libmmt:libm_error.obj
 0003:00039130       ??_C@_0BC@A@?$ANjn?3?5TLOSS?5error?6?$AA@ 006c6130     libmmt:libm_error.obj
 0003:00039144       ??_C@_0BC@A@?$ANyn?3?5TLOSS?5error?6?$AA@ 006c6144     libmmt:libm_error.obj
 0003:00039158       ??_C@_0BD@A@?$ANj0f?3?5TLOSS?5error?6?$AA@ 006c6158     libmmt:libm_error.obj
 0003:0003916c       ??_C@_0BD@A@?$ANy0f?3?5TLOSS?5error?6?$AA@ 006c616c     libmmt:libm_error.obj
 0003:00039180       ??_C@_0BD@A@?$ANj1f?3?5TLOSS?5error?6?$AA@ 006c6180     libmmt:libm_error.obj
 0003:00039194       ??_C@_0BD@A@?$ANy1f?3?5TLOSS?5error?6?$AA@ 006c6194     libmmt:libm_error.obj
 0003:000391a8       ??_C@_0BD@A@?$ANjnf?3?5TLOSS?5error?6?$AA@ 006c61a8     libmmt:libm_error.obj
 0003:000391bc       ??_C@_0BD@A@?$ANynf?3?5TLOSS?5error?6?$AA@ 006c61bc     libmmt:libm_error.obj
 0003:000391d0       ??_C@_0BH@A@?$ANacosdl?3?5DOMAIN?5error?6?$AA@ 006c61d0     libmmt:libm_error.obj
 0003:000391e8       ??_C@_0BG@A@?$ANacosd?3?5DOMAIN?5error?6?$AA@ 006c61e8     libmmt:libm_error.obj
 0003:00039200       ??_C@_0BH@A@?$ANacosdf?3?5DOMAIN?5error?6?$AA@ 006c6200     libmmt:libm_error.obj
 0003:00039218       ??_C@_0BH@A@?$ANasindl?3?5DOMAIN?5error?6?$AA@ 006c6218     libmmt:libm_error.obj
 0003:00039230       ??_C@_0BG@A@?$ANasind?3?5DOMAIN?5error?6?$AA@ 006c6230     libmmt:libm_error.obj
 0003:00039248       ??_C@_0BH@A@?$ANasindf?3?5DOMAIN?5error?6?$AA@ 006c6248     libmmt:libm_error.obj
 0003:00039260       ??_C@_0BI@A@?$ANatan2dl?3?5DOMAIN?5error?6?$AA@ 006c6260     libmmt:libm_error.obj
 0003:00039278       ??_C@_0BH@A@?$ANatan2d?3?5DOMAIN?5error?6?$AA@ 006c6278     libmmt:libm_error.obj
 0003:00039290       ??_C@_0BI@A@?$ANatan2df?3?5DOMAIN?5error?6?$AA@ 006c6290     libmmt:libm_error.obj
 0003:000392a8       ??_C@_0BJ@A@?$ANannuityl?3?5DOMAIN?5error?6?$AA@ 006c62a8     libmmt:libm_error.obj
 0003:000392c4       ??_C@_0BI@A@?$ANannuity?3?5DOMAIN?5error?6?$AA@ 006c62c4     libmmt:libm_error.obj
 0003:000392dc       ??_C@_0BJ@A@?$ANannuityf?3?5DOMAIN?5error?6?$AA@ 006c62dc     libmmt:libm_error.obj
 0003:000392f8       ??_C@_0BK@A@?$ANcompoundl?3?5DOMAIN?5error?6?$AA@ 006c62f8     libmmt:libm_error.obj
 0003:00039314       ??_C@_0BJ@A@?$ANcompound?3?5DOMAIN?5error?6?$AA@ 006c6314     libmmt:libm_error.obj
 0003:00039330       ??_C@_0BK@A@?$ANcompoundf?3?5DOMAIN?5error?6?$AA@ 006c6330     libmmt:libm_error.obj
 0003:0003934c       ??_C@_0BI@A@?$ANerfinvl?3?5DOMAIN?5error?6?$AA@ 006c634c     libmmt:libm_error.obj
 0003:00039364       ??_C@_0BH@A@?$ANerfinv?3?5DOMAIN?5error?6?$AA@ 006c6364     libmmt:libm_error.obj
 0003:0003937c       ??_C@_0BI@A@?$ANerfinvf?3?5DOMAIN?5error?6?$AA@ 006c637c     libmmt:libm_error.obj
 0003:00039394       ??_C@_0BG@A@?$ANerfinvl?3?5SING?5error?6?$AA@ 006c6394     libmmt:libm_error.obj
 0003:000393ac       ??_C@_0BF@A@?$ANerfinv?3?5SING?5error?6?$AA@ 006c63ac     libmmt:libm_error.obj
 0003:000393c4       ??_C@_0BG@A@?$ANerfinvf?3?5SING?5error?6?$AA@ 006c63c4     libmmt:libm_error.obj
 0003:000393dc       ??_C@_0L@A@libmUI?4dll?$AA@ 006c63dc     libmmt:libm_error.obj
 0003:000393e8       ??_C@_0CA@A@Cannot?5open?5message?5catalog?5?$CFs?6?$AA@ 006c63e8     libmmt:libm_error.obj
 0003:00039408       ??_C@_05A@sqrtl?$AA@       006c6408     libmmt:libm_error.obj
 0003:00039410       ??_C@_04A@sqrt?$AA@        006c6410     libmmt:libm_error.obj
 0003:00039418       ??_C@_05A@sqrtf?$AA@       006c6418     libmmt:libm_error.obj
 0003:00039420       ??_C@_04A@logl?$AA@        006c6420     libmmt:libm_error.obj
 0003:00039428       ??_C@_03A@log?$AA@         006c6428     libmmt:libm_error.obj
 0003:0003942c       ??_C@_04A@logf?$AA@        006c642c     libmmt:libm_error.obj
 0003:00039434       ??_C@_06A@log1pl?$AA@      006c6434     libmmt:libm_error.obj
 0003:0003943c       ??_C@_05A@log1p?$AA@       006c643c     libmmt:libm_error.obj
 0003:00039444       ??_C@_06A@log1pf?$AA@      006c6444     libmmt:libm_error.obj
 0003:0003944c       ??_C@_06A@log10l?$AA@      006c644c     libmmt:libm_error.obj
 0003:00039454       ??_C@_05A@log10?$AA@       006c6454     libmmt:libm_error.obj
 0003:0003945c       ??_C@_06A@log10f?$AA@      006c645c     libmmt:libm_error.obj
 0003:00039464       ??_C@_05A@log2l?$AA@       006c6464     libmmt:libm_error.obj
 0003:0003946c       ??_C@_04A@log2?$AA@        006c646c     libmmt:libm_error.obj
 0003:00039474       ??_C@_05A@log2f?$AA@       006c6474     libmmt:libm_error.obj
 0003:0003947c       ??_C@_04A@expl?$AA@        006c647c     libmmt:libm_error.obj
 0003:00039484       ??_C@_03A@exp?$AA@         006c6484     libmmt:libm_error.obj
 0003:00039488       ??_C@_04A@expf?$AA@        006c6488     libmmt:libm_error.obj
 0003:00039490       ??_C@_04A@powl?$AA@        006c6490     libmmt:libm_error.obj
 0003:00039498       ??_C@_03A@pow?$AA@         006c6498     libmmt:libm_error.obj
 0003:0003949c       ??_C@_04A@powf?$AA@        006c649c     libmmt:libm_error.obj
 0003:000394a4       ??_C@_06A@atan2l?$AA@      006c64a4     libmmt:libm_error.obj
 0003:000394ac       ??_C@_05A@atan2?$AA@       006c64ac     libmmt:libm_error.obj
 0003:000394b4       ??_C@_06A@atan2f?$AA@      006c64b4     libmmt:libm_error.obj
 0003:000394bc       ??_C@_07A@atan2dl?$AA@     006c64bc     libmmt:libm_error.obj
 0003:000394c4       ??_C@_06A@atan2d?$AA@      006c64c4     libmmt:libm_error.obj
 0003:000394cc       ??_C@_07A@atan2df?$AA@     006c64cc     libmmt:libm_error.obj
 0003:000394d4       ??_C@_06A@scalbl?$AA@      006c64d4     libmmt:libm_error.obj
 0003:000394dc       ??_C@_05A@scalb?$AA@       006c64dc     libmmt:libm_error.obj
 0003:000394e4       ??_C@_06A@scalbf?$AA@      006c64e4     libmmt:libm_error.obj
 0003:000394ec       ??_C@_06A@hypotl?$AA@      006c64ec     libmmt:libm_error.obj
 0003:000394f4       ??_C@_05A@hypot?$AA@       006c64f4     libmmt:libm_error.obj
 0003:000394fc       ??_C@_06A@hypotf?$AA@      006c64fc     libmmt:libm_error.obj
 0003:00039504       ??_C@_05A@acosl?$AA@       006c6504     libmmt:libm_error.obj
 0003:0003950c       ??_C@_04A@acos?$AA@        006c650c     libmmt:libm_error.obj
 0003:00039514       ??_C@_05A@acosf?$AA@       006c6514     libmmt:libm_error.obj
 0003:0003951c       ??_C@_05A@asinl?$AA@       006c651c     libmmt:libm_error.obj
 0003:00039524       ??_C@_04A@asin?$AA@        006c6524     libmmt:libm_error.obj
 0003:0003952c       ??_C@_05A@asinf?$AA@       006c652c     libmmt:libm_error.obj
 0003:00039534       ??_C@_06A@acosdl?$AA@      006c6534     libmmt:libm_error.obj
 0003:0003953c       ??_C@_05A@acosd?$AA@       006c653c     libmmt:libm_error.obj
 0003:00039544       ??_C@_06A@acosdf?$AA@      006c6544     libmmt:libm_error.obj
 0003:0003954c       ??_C@_06A@asindl?$AA@      006c654c     libmmt:libm_error.obj
 0003:00039554       ??_C@_05A@asind?$AA@       006c6554     libmmt:libm_error.obj
 0003:0003955c       ??_C@_06A@asindf?$AA@      006c655c     libmmt:libm_error.obj
 0003:00039564       ??_C@_05A@coshl?$AA@       006c6564     libmmt:libm_error.obj
 0003:0003956c       ??_C@_04A@cosh?$AA@        006c656c     libmmt:libm_error.obj
 0003:00039574       ??_C@_05A@coshf?$AA@       006c6574     libmmt:libm_error.obj
 0003:0003957c       ??_C@_05A@sinhl?$AA@       006c657c     libmmt:libm_error.obj
 0003:00039584       ??_C@_04A@sinh?$AA@        006c6584     libmmt:libm_error.obj
 0003:0003958c       ??_C@_05A@sinhf?$AA@       006c658c     libmmt:libm_error.obj
 0003:00039594       ??_C@_06A@acoshl?$AA@      006c6594     libmmt:libm_error.obj
 0003:0003959c       ??_C@_05A@acosh?$AA@       006c659c     libmmt:libm_error.obj
 0003:000395a4       ??_C@_06A@acoshf?$AA@      006c65a4     libmmt:libm_error.obj
 0003:000395ac       ??_C@_06A@atanhl?$AA@      006c65ac     libmmt:libm_error.obj
 0003:000395b4       ??_C@_05A@atanh?$AA@       006c65b4     libmmt:libm_error.obj
 0003:000395bc       ??_C@_06A@atanhf?$AA@      006c65bc     libmmt:libm_error.obj
 0003:000395c4       ??_C@_07A@erfinvl?$AA@     006c65c4     libmmt:libm_error.obj
 0003:000395cc       ??_C@_06A@erfinv?$AA@      006c65cc     libmmt:libm_error.obj
 0003:000395d4       ??_C@_07A@erfinvf?$AA@     006c65d4     libmmt:libm_error.obj
 0003:000395dc       ??_C@_06A@gammal?$AA@      006c65dc     libmmt:libm_error.obj
 0003:000395e4       ??_C@_05A@gamma?$AA@       006c65e4     libmmt:libm_error.obj
 0003:000395ec       ??_C@_06A@gammaf?$AA@      006c65ec     libmmt:libm_error.obj
 0003:000395f4       ??_C@_07A@lgammal?$AA@     006c65f4     libmmt:libm_error.obj
 0003:000395fc       ??_C@_06A@lgamma?$AA@      006c65fc     libmmt:libm_error.obj
 0003:00039604       ??_C@_07A@lgammaf?$AA@     006c6604     libmmt:libm_error.obj
 0003:0003960c       ??_C@_07A@tgammal?$AA@     006c660c     libmmt:libm_error.obj
 0003:00039614       ??_C@_06A@tgamma?$AA@      006c6614     libmmt:libm_error.obj
 0003:0003961c       ??_C@_07A@tgammaf?$AA@     006c661c     libmmt:libm_error.obj
 0003:00039624       ??_C@_03A@j0l?$AA@         006c6624     libmmt:libm_error.obj
 0003:00039628       ??_C@_02A@j0?$AA@          006c6628     libmmt:libm_error.obj
 0003:0003962c       ??_C@_03A@j0f?$AA@         006c662c     libmmt:libm_error.obj
 0003:00039630       ??_C@_03A@j1l?$AA@         006c6630     libmmt:libm_error.obj
 0003:00039634       ??_C@_02A@j1?$AA@          006c6634     libmmt:libm_error.obj
 0003:00039638       ??_C@_03A@j1f?$AA@         006c6638     libmmt:libm_error.obj
 0003:0003963c       ??_C@_03A@jnl?$AA@         006c663c     libmmt:libm_error.obj
 0003:00039640       ??_C@_02A@jn?$AA@          006c6640     libmmt:libm_error.obj
 0003:00039644       ??_C@_03A@jnf?$AA@         006c6644     libmmt:libm_error.obj
 0003:00039648       ??_C@_03A@y0l?$AA@         006c6648     libmmt:libm_error.obj
 0003:0003964c       ??_C@_02A@y0?$AA@          006c664c     libmmt:libm_error.obj
 0003:00039650       ??_C@_03A@y0f?$AA@         006c6650     libmmt:libm_error.obj
 0003:00039654       ??_C@_03A@y1l?$AA@         006c6654     libmmt:libm_error.obj
 0003:00039658       ??_C@_02A@y1?$AA@          006c6658     libmmt:libm_error.obj
 0003:0003965c       ??_C@_03A@y1f?$AA@         006c665c     libmmt:libm_error.obj
 0003:00039660       ??_C@_03A@ynl?$AA@         006c6660     libmmt:libm_error.obj
 0003:00039664       ??_C@_02A@yn?$AA@          006c6664     libmmt:libm_error.obj
 0003:00039668       ??_C@_03A@ynf?$AA@         006c6668     libmmt:libm_error.obj
 0003:0003966c       ??_C@_05A@fmodl?$AA@       006c666c     libmmt:libm_error.obj
 0003:00039674       ??_C@_04A@fmod?$AA@        006c6674     libmmt:libm_error.obj
 0003:0003967c       ??_C@_05A@fmodf?$AA@       006c667c     libmmt:libm_error.obj
 0003:00039684       ??_C@_0L@A@remainderl?$AA@ 006c6684     libmmt:libm_error.obj
 0003:00039690       ??_C@_09A@remainder?$AA@   006c6690     libmmt:libm_error.obj
 0003:0003969c       ??_C@_0L@A@remainderf?$AA@ 006c669c     libmmt:libm_error.obj
 0003:000396c0       ___libm_log_table_256      006c66c0     libmmt:log_table.obj
 0003:0003a6c0       ___libm_rcp_table_256      006c76c0     libmmt:rcp_table.obj
 0003:0003aac0       ___libm_double_rcp_table_256 006c7ac0     libmmt:rcp_table.obj
 0003:0003b2c0       ___libm_exp_hi_table_64    006c82c0     libmmt:exp_table.obj
 0003:0003b4e0       ___libm_exp_mi_table_64    006c84e0     libmmt:exp_table.obj
 0003:0003b700       ___libm_exp_lo_table_64    006c8700     libmmt:exp_table.obj
 0003:0003b920       ___libm_exp_table_128      006c8920     libmmt:exp_table.obj
 0003:0003e4c0       ___libm_sindl_cosdl_table  006cb4c0     libmmt:sincosdl_table.obj
 0003:0003f000       __FPinit                   006cc000     LIBCMT:_fpinit_.obj
 0003:0003f004       __FPmtinit                 006cc004     LIBCMT:_fpinit_.obj
 0003:0003f008       __FPmtterm                 006cc008     LIBCMT:_fpinit_.obj
 0003:0003f00c       ??_C@_0P@MIGLKIOC@CorExitProcess?$AA@ 006cc00c     LIBCMT:crt0dat.obj
 0003:0003f01c       ??_C@_1BI@BGOHAHKC@?$AAm?$AAs?$AAc?$AAo?$AAr?$AAe?$AAe?$AA?4?$AAd?$AAl?$AAl?$AA?$AA@ 006cc01c     LIBCMT:crt0dat.obj
 0003:0003f034       ?ProcessDetach@NativeDll@<CrtImplementationDetails>@@0IB 006cc034     LIBCMT:toupper.obj
 0003:0003f038       ?ProcessAttach@NativeDll@<CrtImplementationDetails>@@0IB 006cc038     LIBCMT:toupper.obj
 0003:0003f03c       ?ThreadAttach@NativeDll@<CrtImplementationDetails>@@0IB 006cc03c     LIBCMT:toupper.obj
 0003:0003f040       ?ThreadDetach@NativeDll@<CrtImplementationDetails>@@0IB 006cc040     LIBCMT:toupper.obj
 0003:0003f044       ?ProcessVerifier@NativeDll@<CrtImplementationDetails>@@0IB 006cc044     LIBCMT:toupper.obj
 0003:0003f048       ??_C@_08JCCMCCIL@HH?3mm?3ss?$AA@ 006cc048     LIBCMT:strftime.obj
 0003:0003f054       ??_C@_0BE@CKGJFCPC@dddd?0?5MMMM?5dd?0?5yyyy?$AA@ 006cc054     LIBCMT:strftime.obj
 0003:0003f068       ??_C@_08BPBNCDIB@MM?1dd?1yy?$AA@ 006cc068     LIBCMT:strftime.obj
 0003:0003f074       ??_C@_02CJNFDJBF@PM?$AA@   006cc074     LIBCMT:strftime.obj
 0003:0003f078       ??_C@_02DEDBPAFC@AM?$AA@   006cc078     LIBCMT:strftime.obj
 0003:0003f07c       ??_C@_08EDHMEBNP@December?$AA@ 006cc07c     LIBCMT:strftime.obj
 0003:0003f088       ??_C@_08HCHEGEOA@November?$AA@ 006cc088     LIBCMT:strftime.obj
 0003:0003f094       ??_C@_07JJNFCEND@October?$AA@ 006cc094     LIBCMT:strftime.obj
 0003:0003f09c       ??_C@_09BHHEALKD@September?$AA@ 006cc09c     LIBCMT:strftime.obj
 0003:0003f0a8       ??_C@_06LBBHFDDG@August?$AA@ 006cc0a8     LIBCMT:strftime.obj
 0003:0003f0b0       ??_C@_04MIEPOIFP@July?$AA@ 006cc0b0     LIBCMT:strftime.obj
 0003:0003f0b8       ??_C@_04CNLMGBGM@June?$AA@ 006cc0b8     LIBCMT:strftime.obj
 0003:0003f0c0       ??_C@_05DMJDNLEJ@April?$AA@ 006cc0c0     LIBCMT:strftime.obj
 0003:0003f0c8       ??_C@_05HPCKOFNC@March?$AA@ 006cc0c8     LIBCMT:strftime.obj
 0003:0003f0d0       ??_C@_08GNJGEPFN@February?$AA@ 006cc0d0     LIBCMT:strftime.obj
 0003:0003f0dc       ??_C@_07CGJPFGJA@January?$AA@ 006cc0dc     LIBCMT:strftime.obj
 0003:0003f0e4       ??_C@_03MKABNOCG@Dec?$AA@  006cc0e4     LIBCMT:strftime.obj
 0003:0003f0e8       ??_C@_03JPJOFNIA@Nov?$AA@  006cc0e8     LIBCMT:strftime.obj
 0003:0003f0ec       ??_C@_03BMAOKBAD@Oct?$AA@  006cc0ec     LIBCMT:strftime.obj
 0003:0003f0f0       ??_C@_03GGCAPAJC@Sep?$AA@  006cc0f0     LIBCMT:strftime.obj
 0003:0003f0f4       ??_C@_03IFJFEIGA@Aug?$AA@  006cc0f4     LIBCMT:strftime.obj
 0003:0003f0f8       ??_C@_03LBGABGKK@Jul?$AA@  006cc0f8     LIBCMT:strftime.obj
 0003:0003f0fc       ??_C@_03IDFGHECI@Jun?$AA@  006cc0fc     LIBCMT:strftime.obj
 0003:0003f100       ??_C@_03CNMDKL@May?$AA@    006cc100     LIBCMT:strftime.obj
 0003:0003f104       ??_C@_03LEOLGMJP@Apr?$AA@  006cc104     LIBCMT:strftime.obj
 0003:0003f108       ??_C@_03ODNJBKGA@Mar?$AA@  006cc108     LIBCMT:strftime.obj
 0003:0003f10c       ??_C@_03HJBDCHOM@Feb?$AA@  006cc10c     LIBCMT:strftime.obj
 0003:0003f110       ??_C@_03JIHJHPIE@Jan?$AA@  006cc110     LIBCMT:strftime.obj
 0003:0003f114       ??_C@_08INBOOONO@Saturday?$AA@ 006cc114     LIBCMT:strftime.obj
 0003:0003f120       ??_C@_06JECMNKMI@Friday?$AA@ 006cc120     LIBCMT:strftime.obj
 0003:0003f128       ??_C@_08HACCIKIA@Thursday?$AA@ 006cc128     LIBCMT:strftime.obj
 0003:0003f134       ??_C@_09DLIGFAKA@Wednesday?$AA@ 006cc134     LIBCMT:strftime.obj
 0003:0003f140       ??_C@_07BAAGCFCM@Tuesday?$AA@ 006cc140     LIBCMT:strftime.obj
 0003:0003f148       ??_C@_06JLEDEDGH@Monday?$AA@ 006cc148     LIBCMT:strftime.obj
 0003:0003f150       ??_C@_06OOPIFAJ@Sunday?$AA@ 006cc150     LIBCMT:strftime.obj
 0003:0003f158       ??_C@_03FEFJNEK@Sat?$AA@   006cc158     LIBCMT:strftime.obj
 0003:0003f15c       ??_C@_03IDIOELNC@Fri?$AA@  006cc15c     LIBCMT:strftime.obj
 0003:0003f160       ??_C@_03IOFIKPDN@Thu?$AA@  006cc160     LIBCMT:strftime.obj
 0003:0003f164       ??_C@_03MHOMLAJA@Wed?$AA@  006cc164     LIBCMT:strftime.obj
 0003:0003f168       ??_C@_03NAGEINEP@Tue?$AA@  006cc168     LIBCMT:strftime.obj
 0003:0003f16c       ??_C@_03PDAGKDH@Mon?$AA@   006cc16c     LIBCMT:strftime.obj
 0003:0003f170       ??_C@_03KOEHGMDN@Sun?$AA@  006cc170     LIBCMT:strftime.obj
 0003:0003f174       ??_C@_03EBAPMIKO@a?1p?$AA@ 006cc174     LIBCMT:strftime.obj
 0003:0003f178       ??_C@_05JAMEPDIN@am?1pm?$AA@ 006cc178     LIBCMT:strftime.obj
 0003:0003f180       ??_C@_0EA@FCLIIPNN@Visual?5C?$CL?$CL?5CRT?3?5Not?5enough?5memor@ 006cc180     LIBCMT:strerror.obj
 0003:0003f1c0       ??_C@_05KLBDPFGC@e?$CL000?$AA@ 006cc1c0     LIBCMT:cvt.obj
 0003:0003f1c8       __real@4150017ec0000000    006cc1c8     LIBCMT:_testfdiv_.obj
 0003:0003f1d0       __real@4147ffff80000000    006cc1d0     LIBCMT:_testfdiv_.obj
 0003:0003f1d8       ??_C@_0BK@NHEOCAHP@IsProcessorFeaturePresent?$AA@ 006cc1d8     LIBCMT:_testfdiv_.obj
 0003:0003f1f4       ??_C@_08CPNIBGIE@KERNEL32?$AA@ 006cc1f4     LIBCMT:_testfdiv_.obj
 0003:0003f200       ??_C@_0P@GGKDKEEG@runtime?5error?5?$AA@ 006cc200     LIBCMT:crt0msg.obj
 0003:0003f210       ??_C@_02PCIJFNDE@?$AN?6?$AA@ 006cc210     LIBCMT:crt0msg.obj
 0003:0003f214       ??_C@_0O@MJNIPGOH@TLOSS?5error?$AN?6?$AA@ 006cc214     LIBCMT:crt0msg.obj
 0003:0003f224       ??_C@_0N@BONNPDHF@SING?5error?$AN?6?$AA@ 006cc224     LIBCMT:crt0msg.obj
 0003:0003f234       ??_C@_0P@MBDAJNE@DOMAIN?5error?$AN?6?$AA@ 006cc234     LIBCMT:crt0msg.obj
 0003:0003f248       ??_C@_0JL@DFDOOABL@R6034?$AN?6An?5application?5has?5made?5a@ 006cc248     LIBCMT:crt0msg.obj
 0003:0003f2e8       ??_C@_0PH@EPAFIJ@R6033?$AN?6?9?5Attempt?5to?5use?5MSIL?5cod@ 006cc2e8     LIBCMT:crt0msg.obj
 0003:0003f3e0       ??_C@_0DD@BKEEABMM@R6032?$AN?6?9?5not?5enough?5space?5for?5lo@ 006cc3e0     LIBCMT:crt0msg.obj
 0003:0003f418       ??_C@_0GD@OFKILIED@R6031?$AN?6?9?5Attempt?5to?5initialize?5t@ 006cc418     LIBCMT:crt0msg.obj
 0003:0003f47c       ??_C@_0BP@LPMHJOKI@R6030?$AN?6?9?5CRT?5not?5initialized?$AN?6?$AA@ 006cc47c     LIBCMT:crt0msg.obj
 0003:0003f49c       ??_C@_0CF@KJDAIALP@R6028?$AN?6?9?5unable?5to?5initialize?5he@ 006cc49c     LIBCMT:crt0msg.obj
 0003:0003f4c4       ??_C@_0DF@GAKBPDFP@R6027?$AN?6?9?5not?5enough?5space?5for?5lo@ 006cc4c4     LIBCMT:crt0msg.obj
 0003:0003f4fc       ??_C@_0DF@IBLNNAIG@R6026?$AN?6?9?5not?5enough?5space?5for?5st@ 006cc4fc     LIBCMT:crt0msg.obj
 0003:0003f534       ??_C@_0CG@IOHKGFNJ@R6025?$AN?6?9?5pure?5virtual?5function?5c@ 006cc534     LIBCMT:crt0msg.obj
 0003:0003f55c       ??_C@_0DF@JIJJFJDC@R6024?$AN?6?9?5not?5enough?5space?5for?5_o@ 006cc55c     LIBCMT:crt0msg.obj
 0003:0003f594       ??_C@_0CJ@EGEJHFME@R6019?$AN?6?9?5unable?5to?5open?5console?5@ 006cc594     LIBCMT:crt0msg.obj
 0003:0003f5c0       ??_C@_0CB@GNHNIELH@R6018?$AN?6?9?5unexpected?5heap?5error?$AN?6@ 006cc5c0     LIBCMT:crt0msg.obj
 0003:0003f5e4       ??_C@_0CN@FOLDKNG@R6017?$AN?6?9?5unexpected?5multithread?5@ 006cc5e4     LIBCMT:crt0msg.obj
 0003:0003f614       ??_C@_0CM@FAHFJNHO@R6016?$AN?6?9?5not?5enough?5space?5for?5th@ 006cc614     LIBCMT:crt0msg.obj
 0003:0003f640       ??_C@_0JG@LBKMGKLD@?$AN?6This?5application?5has?5requested@ 006cc640     LIBCMT:crt0msg.obj
 0003:0003f6d8       ??_C@_0CM@FLCNIPKK@R6009?$AN?6?9?5not?5enough?5space?5for?5en@ 006cc6d8     LIBCMT:crt0msg.obj
 0003:0003f704       ??_C@_0CK@KMMJOAPP@R6008?$AN?6?9?5not?5enough?5space?5for?5ar@ 006cc704     LIBCMT:crt0msg.obj
 0003:0003f730       ??_C@_0CN@LEKKICBM@R6002?$AN?6?9?5floating?5point?5support?5@ 006cc730     LIBCMT:crt0msg.obj
 0003:0003f760       ??_C@_0CF@GOGNBNAK@Microsoft?5Visual?5C?$CL?$CL?5Runtime?5Lib@ 006cc760     LIBCMT:crt0msg.obj
 0003:0003f788       ??_C@_03KHICJKCI@?4?4?4?$AA@ 006cc788     LIBCMT:crt0msg.obj
 0003:0003f78c       ??_C@_0BH@DNAGHKFM@?$DMprogram?5name?5unknown?$DO?$AA@ 006cc78c     LIBCMT:crt0msg.obj
 0003:0003f7a4       ??_C@_0BK@OFGJDLJJ@Runtime?5Error?$CB?6?6Program?3?5?$AA@ 006cc7a4     LIBCMT:crt0msg.obj
 0003:0003f7c0       __XcptActTab               006cc7c0     LIBCMT:winxfltr.obj
 0003:0003f838       ??_C@_0O@NLDKAIKN@EncodePointer?$AA@ 006cc838     LIBCMT:tidtable.obj
 0003:0003f848       ??_C@_1BK@DBDEIDLH@?$AAK?$AAE?$AAR?$AAN?$AAE?$AAL?$AA3?$AA2?$AA?4?$AAD?$AAL?$AAL?$AA?$AA@ 006cc848     LIBCMT:tidtable.obj
 0003:0003f864       ??_C@_0O@KBPMFGHI@DecodePointer?$AA@ 006cc864     LIBCMT:tidtable.obj
 0003:0003f874       ??_C@_07PEJMOBNF@FlsFree?$AA@ 006cc874     LIBCMT:tidtable.obj
 0003:0003f87c       ??_C@_0M@JCPCPOEF@FlsSetValue?$AA@ 006cc87c     LIBCMT:tidtable.obj
 0003:0003f888       ??_C@_0M@GDNOONDI@FlsGetValue?$AA@ 006cc888     LIBCMT:tidtable.obj
 0003:0003f894       ??_C@_08KNHFBNJ@FlsAlloc?$AA@ 006cc894     LIBCMT:tidtable.obj
 0003:0003f8a8       ??_C@_1O@CEDCILHN@?$AA?$CI?$AAn?$AAu?$AAl?$AAl?$AA?$CJ?$AA?$AA@ 006cc8a8     LIBCMT:output.obj
 0003:0003f8b8       ??_C@_06OJHGLDPL@?$CInull?$CJ?$AA@ 006cc8b8     LIBCMT:output.obj
 0003:0003f8c0       ___lookuptable             006cc8c0     LIBCMT:output.obj
 0003:0003f91c       ??_C@_0BC@JEAENNKH@SystemFunction036?$AA@ 006cc91c     LIBCMT:rand_s.obj
 0003:0003f930       ??_C@_0N@JJPEKNFO@ADVAPI32?4DLL?$AA@ 006cc930     LIBCMT:rand_s.obj
 0003:0003f940       ___lookuptable_s           006cc940     LIBCMT:outputs.obj
 0003:0003f9bc       ??_C@_07LCBHPJJN@LC_TIME?$AA@ 006cc9bc     LIBCMT:setlocal.obj
 0003:0003f9c4       ??_C@_0L@DLHIECNL@LC_NUMERIC?$AA@ 006cc9c4     LIBCMT:setlocal.obj
 0003:0003f9d0       ??_C@_0M@MIENIKLA@LC_MONETARY?$AA@ 006cc9d0     LIBCMT:setlocal.obj
 0003:0003f9dc       ??_C@_08EADHIDAD@LC_CTYPE?$AA@ 006cc9dc     LIBCMT:setlocal.obj
 0003:0003f9e8       ??_C@_0L@KFJHEKIK@LC_COLLATE?$AA@ 006cc9e8     LIBCMT:setlocal.obj
 0003:0003f9f4       ??_C@_06NEFDFEKB@LC_ALL?$AA@ 006cc9f4     LIBCMT:setlocal.obj
 0003:0003fa00       ___lc_category             006cca00     LIBCMT:setlocal.obj
 0003:0003fac8       ??_C@_03EGDHDPFD@_?4?0?$AA@ 006ccac8     LIBCMT:setlocal.obj
 0003:0003facc       ??_C@_01LFCBOECM@?4?$AA@   006ccacc     LIBCMT:setlocal.obj
 0003:0003fad0       ??_C@_01IDAFKMJL@_?$AA@    006ccad0     LIBCMT:setlocal.obj
 0003:0003fad4       ??_C@_01ICJEACDI@?$DL?$AA@ 006ccad4     LIBCMT:setlocal.obj
 0003:0003fad8       ??_C@_01NEMOKFLO@?$DN?$AA@ 006ccad8     LIBCMT:setlocal.obj
 0003:0003fada       ??_C@_00CNPNBAHC@?$AA@     006ccada     LIBCMT:setlocal.obj
 0003:0003fadc       ??_C@_01GFHCPBMG@C?$AA@    006ccadc     LIBCMT:setlocal.obj
 0003:0003fae0       ??_C@_02BALPLPBG@?$DN?$DL?$AA@ 006ccae0     LIBCMT:setlocal.obj
 0003:0003fae4       ??_C@_13NOLLCAOD@?$AA?$AA?$AA?$AA@ 006ccae4     LIBCMT:a_map.obj
 0003:0003fae8       ??_C@_0BF@PEEJCKGM@HeapQueryInformation?$AA@ 006ccae8     LIBCMT:expand.obj
 0003:0003fb00       ??_C@_1BK@MGMFAEKH@?$AAk?$AAe?$AAr?$AAn?$AAe?$AAl?$AA3?$AA2?$AA?4?$AAd?$AAl?$AAl?$AA?$AA@ 006ccb00     LIBCMT:expand.obj
 0003:0003fb1c       ___dnames                  006ccb1c     LIBCMT:timeset.obj
 0003:0003fb34       ___mnames                  006ccb34     LIBCMT:timeset.obj
 0003:0003fb5c       ??_C@_02CLFPBFFP@TZ?$AA@   006ccb5c     LIBCMT:tzset.obj
 0003:0003fb60       ??_C@_0BG@KLEAJEFJ@Illegal?5byte?5sequence?$AA@ 006ccb60     LIBCMT:syserr.obj
 0003:0003fb78       ??_C@_0BE@ICMCHPHH@Directory?5not?5empty?$AA@ 006ccb78     LIBCMT:syserr.obj
 0003:0003fb8c       ??_C@_0BJ@IHEHINLI@Function?5not?5implemented?$AA@ 006ccb8c     LIBCMT:syserr.obj
 0003:0003fba8       ??_C@_0BD@CLHBCGPB@No?5locks?5available?$AA@ 006ccba8     LIBCMT:syserr.obj
 0003:0003fbbc       ??_C@_0BC@BEDIHIDK@Filename?5too?5long?$AA@ 006ccbbc     LIBCMT:syserr.obj
 0003:0003fbd0       ??_C@_0BK@JAEBMJJM@Resource?5deadlock?5avoided?$AA@ 006ccbd0     LIBCMT:syserr.obj
 0003:0003fbec       ??_C@_0BB@FCBJFCAJ@Result?5too?5large?$AA@ 006ccbec     LIBCMT:syserr.obj
 0003:0003fc00       ??_C@_0N@MMJPGLJK@Domain?5error?$AA@ 006ccc00     LIBCMT:syserr.obj
 0003:0003fc10       ??_C@_0M@LHEPIIOM@Broken?5pipe?$AA@ 006ccc10     LIBCMT:syserr.obj
 0003:0003fc1c       ??_C@_0P@PKCJJLLM@Too?5many?5links?$AA@ 006ccc1c     LIBCMT:syserr.obj
 0003:0003fc2c       ??_C@_0BG@DDBFNKBH@Read?9only?5file?5system?$AA@ 006ccc2c     LIBCMT:syserr.obj
 0003:0003fc44       ??_C@_0N@FEHLOILP@Invalid?5seek?$AA@ 006ccc44     LIBCMT:syserr.obj
 0003:0003fc54       ??_C@_0BI@FEALHKLD@No?5space?5left?5on?5device?$AA@ 006ccc54     LIBCMT:syserr.obj
 0003:0003fc6c       ??_C@_0P@LFMMIPAE@File?5too?5large?$AA@ 006ccc6c     LIBCMT:syserr.obj
 0003:0003fc7c       ??_C@_0CE@ONOKNLPF@Inappropriate?5I?1O?5control?5operat@ 006ccc7c     LIBCMT:syserr.obj
 0003:0003fca0       ??_C@_0BE@INBJMKGG@Too?5many?5open?5files?$AA@ 006ccca0     LIBCMT:syserr.obj
 0003:0003fcb4       ??_C@_0BO@IIFBODJE@Too?5many?5open?5files?5in?5system?$AA@ 006cccb4     LIBCMT:syserr.obj
 0003:0003fcd4       ??_C@_0BB@HMGGCEBG@Invalid?5argument?$AA@ 006cccd4     LIBCMT:syserr.obj
 0003:0003fce8       ??_C@_0P@NDHGCGKE@Is?5a?5directory?$AA@ 006ccce8     LIBCMT:syserr.obj
 0003:0003fcf8       ??_C@_0BA@CJBACOOL@Not?5a?5directory?$AA@ 006cccf8     LIBCMT:syserr.obj
 0003:0003fd08       ??_C@_0P@NLEIANHE@No?5such?5device?$AA@ 006ccd08     LIBCMT:syserr.obj
 0003:0003fd18       ??_C@_0O@OAMDNOCP@Improper?5link?$AA@ 006ccd18     LIBCMT:syserr.obj
 0003:0003fd28       ??_C@_0M@NAAJNNGH@File?5exists?$AA@ 006ccd28     LIBCMT:syserr.obj
 0003:0003fd34       ??_C@_0BA@BIBLIOEK@Resource?5device?$AA@ 006ccd34     LIBCMT:syserr.obj
 0003:0003fd44       ??_C@_0O@NIPGCINC@Unknown?5error?$AA@ 006ccd44     LIBCMT:syserr.obj
 0003:0003fd54       ??_C@_0M@LOEHLCJD@Bad?5address?$AA@ 006ccd54     LIBCMT:syserr.obj
 0003:0003fd60       ??_C@_0BC@HFNFNKAI@Permission?5denied?$AA@ 006ccd60     LIBCMT:syserr.obj
 0003:0003fd74       ??_C@_0BB@IMDKMPFB@Not?5enough?5space?$AA@ 006ccd74     LIBCMT:syserr.obj
 0003:0003fd88       ??_C@_0CB@EPFKGNAK@Resource?5temporarily?5unavailable@ 006ccd88     LIBCMT:syserr.obj
 0003:0003fdac       ??_C@_0BD@LOHELEP@No?5child?5processes?$AA@ 006ccdac     LIBCMT:syserr.obj
 0003:0003fdc0       ??_C@_0BE@NFGDDCEF@Bad?5file?5descriptor?$AA@ 006ccdc0     LIBCMT:syserr.obj
 0003:0003fdd4       ??_C@_0BC@HKPNECK@Exec?5format?5error?$AA@ 006ccdd4     LIBCMT:syserr.obj
 0003:0003fde8       ??_C@_0BC@MFFGCDFL@Arg?5list?5too?5long?$AA@ 006ccde8     LIBCMT:syserr.obj
 0003:0003fdfc       ??_C@_0BK@DPKMCKJ@No?5such?5device?5or?5address?$AA@ 006ccdfc     LIBCMT:syserr.obj
 0003:0003fe18       ??_C@_0BD@KKNFOBBD@Input?1output?5error?$AA@ 006cce18     LIBCMT:syserr.obj
 0003:0003fe2c       ??_C@_0BK@FJBOAFDK@Interrupted?5function?5call?$AA@ 006cce2c     LIBCMT:syserr.obj
 0003:0003fe48       ??_C@_0BA@FKIAIBGA@No?5such?5process?$AA@ 006cce48     LIBCMT:syserr.obj
 0003:0003fe58       ??_C@_0BK@FMDHKPNF@No?5such?5file?5or?5directory?$AA@ 006cce58     LIBCMT:syserr.obj
 0003:0003fe74       ??_C@_0BI@BJFCGOHL@Operation?5not?5permitted?$AA@ 006cce74     LIBCMT:syserr.obj
 0003:0003fe8c       ??_C@_08INEPGKHH@No?5error?$AA@ 006cce8c     LIBCMT:syserr.obj
 0003:0003fe98       ??_C@_0BI@DFKBFLJE@GetProcessWindowStation?$AA@ 006cce98     LIBCMT:crtmbox.obj
 0003:0003feb0       ??_C@_0BK@CIDNPOGP@GetUserObjectInformationA?$AA@ 006cceb0     LIBCMT:crtmbox.obj
 0003:0003fecc       ??_C@_0BD@HHGDFDBJ@GetLastActivePopup?$AA@ 006ccecc     LIBCMT:crtmbox.obj
 0003:0003fee0       ??_C@_0BA@HNOPNCHB@GetActiveWindow?$AA@ 006ccee0     LIBCMT:crtmbox.obj
 0003:0003fef0       ??_C@_0M@CHKKJDAI@MessageBoxA?$AA@ 006ccef0     LIBCMT:crtmbox.obj
 0003:0003fefc       ??_C@_0L@NDEGIDAG@USER32?4DLL?$AA@ 006ccefc     LIBCMT:crtmbox.obj
 0003:0003ff08       ___newctype                006ccf08     LIBCMT:ctype.obj
 0003:00040208       __wctype                   006cd208     LIBCMT:ctype.obj
 0003:00040410       ___newclmap                006cd410     LIBCMT:ctype.obj
 0003:00040590       ___newcumap                006cd590     LIBCMT:ctype.obj
 0003:00040710       ??_C@_0O@FMJNFNKE@united?9states?$AA@ 006cd710     LIBCMT:getqloc.obj
 0003:00040720       ??_C@_0P@NDHFFKCA@united?9kingdom?$AA@ 006cd720     LIBCMT:getqloc.obj
 0003:00040730       ??_C@_0BC@HHDADLGF@trinidad?5?$CG?5tobago?$AA@ 006cd730     LIBCMT:getqloc.obj
 0003:00040744       ??_C@_0M@IOAEBDAC@south?9korea?$AA@ 006cd744     LIBCMT:getqloc.obj
 0003:00040750       ??_C@_0N@FIELFKIJ@south?9africa?$AA@ 006cd750     LIBCMT:getqloc.obj
 0003:00040760       ??_C@_0M@OPNDHCMC@south?5korea?$AA@ 006cd760     LIBCMT:getqloc.obj
 0003:0004076c       ??_C@_0N@MDEOEPFI@south?5africa?$AA@ 006cd76c     LIBCMT:getqloc.obj
 0003:0004077c       ??_C@_06FKAPCJLB@slovak?$AA@ 006cd77c     LIBCMT:getqloc.obj
 0003:00040784       ??_C@_0M@EFJANOAL@puerto?9rico?$AA@ 006cd784     LIBCMT:getqloc.obj
 0003:00040790       ??_C@_08PGOJKDAI@pr?9china?$AA@ 006cd790     LIBCMT:getqloc.obj
 0003:0004079c       ??_C@_08JHDOMCMI@pr?5china?$AA@ 006cd79c     LIBCMT:getqloc.obj
 0003:000407a8       ??_C@_02JHCHFBLL@nz?$AA@   006cd7a8     LIBCMT:getqloc.obj
 0003:000407ac       ??_C@_0M@LINHDHKP@new?9zealand?$AA@ 006cd7ac     LIBCMT:getqloc.obj
 0003:000407b8       ??_C@_09IIIPPBDB@hong?9kong?$AA@ 006cd7b8     LIBCMT:getqloc.obj
 0003:000407c4       ??_C@_07HJLCKBG@holland?$AA@ 006cd7c4     LIBCMT:getqloc.obj
 0003:000407cc       ??_C@_0O@LEHGMHAG@great?5britain?$AA@ 006cd7cc     LIBCMT:getqloc.obj
 0003:000407dc       ??_C@_07FACOMELA@england?$AA@ 006cd7dc     LIBCMT:getqloc.obj
 0003:000407e4       ??_C@_05JIHCEICB@czech?$AA@ 006cd7e4     LIBCMT:getqloc.obj
 0003:000407ec       ??_C@_05BBJOBLGB@china?$AA@ 006cd7ec     LIBCMT:getqloc.obj
 0003:000407f4       ??_C@_07GPKPHICP@britain?$AA@ 006cd7f4     LIBCMT:getqloc.obj
 0003:000407fc       ??_C@_07MHIPBHMG@america?$AA@ 006cd7fc     LIBCMT:getqloc.obj
 0003:00040804       ??_C@_03KIALPMKC@usa?$AA@  006cd804     LIBCMT:getqloc.obj
 0003:00040808       ??_C@_02FGJGKGGD@us?$AA@   006cd808     LIBCMT:getqloc.obj
 0003:0004080c       ??_C@_02NEINDODK@uk?$AA@   006cd80c     LIBCMT:getqloc.obj
 0003:00040810       ??_C@_05JMPCFJFJ@swiss?$AA@ 006cd810     LIBCMT:getqloc.obj
 0003:00040818       ??_C@_0BA@HLOCPIOD@swedish?9finland?$AA@ 006cd818     LIBCMT:getqloc.obj
 0003:00040828       ??_C@_0BC@PKCNIABK@spanish?9venezuela?$AA@ 006cd828     LIBCMT:getqloc.obj
 0003:0004083c       ??_C@_0BA@GBHHMIJI@spanish?9uruguay?$AA@ 006cd83c     LIBCMT:getqloc.obj
 0003:0004084c       ??_C@_0BE@BHDOHPMC@spanish?9puerto?5rico?$AA@ 006cd84c     LIBCMT:getqloc.obj
 0003:00040860       ??_C@_0N@KMOIDGGN@spanish?9peru?$AA@ 006cd860     LIBCMT:getqloc.obj
 0003:00040870       ??_C@_0BB@HMHLPGPH@spanish?9paraguay?$AA@ 006cd870     LIBCMT:getqloc.obj
 0003:00040884       ??_C@_0P@MCPKNGFD@spanish?9panama?$AA@ 006cd884     LIBCMT:getqloc.obj
 0003:00040894       ??_C@_0BC@IHOHGAIL@spanish?9nicaragua?$AA@ 006cd894     LIBCMT:getqloc.obj
 0003:000408a8       ??_C@_0P@KLMJDNFJ@spanish?9modern?$AA@ 006cd8a8     LIBCMT:getqloc.obj
 0003:000408b8       ??_C@_0BA@BPAPGBCM@spanish?9mexican?$AA@ 006cd8b8     LIBCMT:getqloc.obj
 0003:000408c8       ??_C@_0BB@PDECHHHE@spanish?9honduras?$AA@ 006cd8c8     LIBCMT:getqloc.obj
 0003:000408dc       ??_C@_0BC@KLHKFGDB@spanish?9guatemala?$AA@ 006cd8dc     LIBCMT:getqloc.obj
 0003:000408f0       ??_C@_0BE@MFOOKJAI@spanish?9el?5salvador?$AA@ 006cd8f0     LIBCMT:getqloc.obj
 0003:00040904       ??_C@_0BA@FCOKFPFC@spanish?9ecuador?$AA@ 006cd904     LIBCMT:getqloc.obj
 0003:00040914       ??_C@_0BL@PLMGIMOO@spanish?9dominican?5republic?$AA@ 006cd914     LIBCMT:getqloc.obj
 0003:00040930       ??_C@_0BD@HLGDNMHB@spanish?9costa?5rica?$AA@ 006cd930     LIBCMT:getqloc.obj
 0003:00040944       ??_C@_0BB@PKCBKCPE@spanish?9colombia?$AA@ 006cd944     LIBCMT:getqloc.obj
 0003:00040958       ??_C@_0O@MCBIJGNE@spanish?9chile?$AA@ 006cd958     LIBCMT:getqloc.obj
 0003:00040968       ??_C@_0BA@BEFEIGJJ@spanish?9bolivia?$AA@ 006cd968     LIBCMT:getqloc.obj
 0003:00040978       ??_C@_0BC@EMECMPD@spanish?9argentina?$AA@ 006cd978     LIBCMT:getqloc.obj
 0003:0004098c       ??_C@_0BF@EALFLENP@portuguese?9brazilian?$AA@ 006cd98c     LIBCMT:getqloc.obj
 0003:000409a4       ??_C@_0BC@HBLEBLNN@norwegian?9nynorsk?$AA@ 006cd9a4     LIBCMT:getqloc.obj
 0003:000409b8       ??_C@_0BB@HMACDDCK@norwegian?9bokmal?$AA@ 006cd9b8     LIBCMT:getqloc.obj
 0003:000409cc       ??_C@_09BAFFPPHE@norwegian?$AA@ 006cd9cc     LIBCMT:getqloc.obj
 0003:000409d8       ??_C@_0O@EAJFJDFG@italian?9swiss?$AA@ 006cd9d8     LIBCMT:getqloc.obj
 0003:000409e8       ??_C@_0O@CNOMPGD@irish?9english?$AA@ 006cd9e8     LIBCMT:getqloc.obj
 0003:000409f8       ??_C@_0N@EDHBGCKG@german?9swiss?$AA@ 006cd9f8     LIBCMT:getqloc.obj
 0003:00040a08       ??_C@_0BC@JACMHNBP@german?9luxembourg?$AA@ 006cda08     LIBCMT:getqloc.obj
 0003:00040a1c       ??_C@_0BE@HBGMGFEG@german?9lichtenstein?$AA@ 006cda1c     LIBCMT:getqloc.obj
 0003:00040a30       ??_C@_0BA@HKKBIBKL@german?9austrian?$AA@ 006cda30     LIBCMT:getqloc.obj
 0003:00040a40       ??_C@_0N@GCAEPEBK@french?9swiss?$AA@ 006cda40     LIBCMT:getqloc.obj
 0003:00040a50       ??_C@_0BC@DJFJJCK@french?9luxembourg?$AA@ 006cda50     LIBCMT:getqloc.obj
 0003:00040a64       ??_C@_0BA@NNCEDFIC@french?9canadian?$AA@ 006cda64     LIBCMT:getqloc.obj
 0003:00040a74       ??_C@_0P@CMPOCLM@french?9belgian?$AA@ 006cda74     LIBCMT:getqloc.obj
 0003:00040a84       ??_C@_0M@GHHDJOK@english?9usa?$AA@ 006cda84     LIBCMT:getqloc.obj
 0003:00040a90       ??_C@_0L@PLDJKEIL@english?9us?$AA@ 006cda90     LIBCMT:getqloc.obj
 0003:00040a9c       ??_C@_0L@HJCCDMNC@english?9uk?$AA@ 006cda9c     LIBCMT:getqloc.obj
 0003:00040aa8       ??_C@_0BK@CKLIAGJB@english?9trinidad?5y?5tobago?$AA@ 006cdaa8     LIBCMT:getqloc.obj
 0003:00040ac4       ??_C@_0BF@JMJMGNNF@english?9south?5africa?$AA@ 006cdac4     LIBCMT:getqloc.obj
 0003:00040adc       ??_C@_0L@DKIIFDFD@english?9nz?$AA@ 006cdadc     LIBCMT:getqloc.obj
 0003:00040ae8       ??_C@_0BA@ONHGJCLH@english?9jamaica?$AA@ 006cdae8     LIBCMT:getqloc.obj
 0003:00040af8       ??_C@_0M@HJBGHOPO@english?9ire?$AA@ 006cdaf8     LIBCMT:getqloc.obj
 0003:00040b04       ??_C@_0BC@LFEKMIFB@english?9caribbean?$AA@ 006cdb04     LIBCMT:getqloc.obj
 0003:00040b18       ??_C@_0M@OLDPFKHI@english?9can?$AA@ 006cdb18     LIBCMT:getqloc.obj
 0003:00040b24       ??_C@_0P@OMDEHBMP@english?9belize?$AA@ 006cdb24     LIBCMT:getqloc.obj
 0003:00040b34       ??_C@_0M@KFHFPFED@english?9aus?$AA@ 006cdb34     LIBCMT:getqloc.obj
 0003:00040b40       ??_C@_0BB@MNMBKDFE@english?9american?$AA@ 006cdb40     LIBCMT:getqloc.obj
 0003:00040b54       ??_C@_0O@KIDLNNBA@dutch?9belgian?$AA@ 006cdb54     LIBCMT:getqloc.obj
 0003:00040b64       ??_C@_0BE@JBKABBMH@chinese?9traditional?$AA@ 006cdb64     LIBCMT:getqloc.obj
 0003:00040b78       ??_C@_0BC@MJJMPKCG@chinese?9singapore?$AA@ 006cdb78     LIBCMT:getqloc.obj
 0003:00040b8c       ??_C@_0BD@FDKADDCP@chinese?9simplified?$AA@ 006cdb8c     LIBCMT:getqloc.obj
 0003:00040ba0       ??_C@_0BB@DBEFDDME@chinese?9hongkong?$AA@ 006cdba0     LIBCMT:getqloc.obj
 0003:00040bb4       ??_C@_07DHNMFMCI@chinese?$AA@ 006cdbb4     LIBCMT:getqloc.obj
 0003:00040bbc       ??_C@_03FNDDCHI@chi?$AA@   006cdbbc     LIBCMT:getqloc.obj
 0003:00040bc0       ??_C@_03BMMIADDJ@chh?$AA@  006cdbc0     LIBCMT:getqloc.obj
 0003:00040bc4       ??_C@_08OAIPJDGI@canadian?$AA@ 006cdbc4     LIBCMT:getqloc.obj
 0003:00040bd0       ??_C@_07HBPMNPNJ@belgian?$AA@ 006cdbd0     LIBCMT:getqloc.obj
 0003:00040bd8       ??_C@_0L@OEKOPBEL@australian?$AA@ 006cdbd8     LIBCMT:getqloc.obj
 0003:00040be4       ??_C@_0BB@MEIMBEDG@american?9english?$AA@ 006cdbe4     LIBCMT:getqloc.obj
 0003:00040bf8       ??_C@_0BB@DFMDPDGB@american?5english?$AA@ 006cdbf8     LIBCMT:getqloc.obj
 0003:00040c0c       ??_C@_08IJLOKOLL@american?$AA@ 006cdc0c     LIBCMT:getqloc.obj
 0003:00040c18       ___rg_language             006cdc18     LIBCMT:getqloc.obj
 0003:00040e20       ___rg_country              006cde20     LIBCMT:getqloc.obj
 0003:00040ed8       ___rglangidNotDefault      006cded8     LIBCMT:getqloc.obj
 0003:00040eec       ??_C@_01GBGANLPD@0?$AA@    006cdeec     LIBCMT:getqloc.obj
 0003:00040ef0       ??_C@_03NFKLAGEF@OCP?$AA@  006cdef0     LIBCMT:getqloc.obj
 0003:00040ef4       ??_C@_03DFHEHBHG@ACP?$AA@  006cdef4     LIBCMT:getqloc.obj
 0003:00040ef8       ??_C@_0BC@NFIEMBLL@Norwegian?9Nynorsk?$AA@ 006cdef8     LIBCMT:getqloc.obj
 0003:00040f0c       ??_C@_06GDENEHCP@CONIN$?$AA@ 006cdf0c     LIBCMT:initcon.obj
 0003:00040f14       ??_C@_07GPDNMNG@CONOUT$?$AA@ 006cdf14     LIBCMT:initcon.obj
 0003:00040f1c       ??_C@_06IMKFLFPG@1?$CDQNAN?$AA@ 006cdf1c     LIBCMT:_x10fout_.obj
 0003:00040f24       ??_C@_05DNEBIAHO@1?$CDINF?$AA@ 006cdf24     LIBCMT:_x10fout_.obj
 0003:00040f2c       ??_C@_05PHHOCPM@1?$CDIND?$AA@ 006cdf2c     LIBCMT:_x10fout_.obj
 0003:00040f34       ??_C@_06PGGFOGJG@1?$CDSNAN?$AA@ 006cdf34     LIBCMT:_x10fout_.obj
 0003:00040f88       ??_C@_0CF@A@?6Stack?5trace?5terminated?5abnormally?4?6?$AA@ 006cdf88     libirc:tbk_display.obj
 0003:00040fb0       ??_C@_0N@A@AddrMode1616?$AA@ 006cdfb0     libirc:tbk_display.obj
 0003:00040fc0       ??_C@_0N@A@AddrMode1632?$AA@ 006cdfc0     libirc:tbk_display.obj
 0003:00040fd0       ??_C@_0N@A@AddrModeReal?$AA@ 006cdfd0     libirc:tbk_display.obj
 0003:00040fe0       ??_C@_0N@A@AddrModeFlat?$AA@ 006cdfe0     libirc:tbk_display.obj
 0003:00040ff0       ??_C@_0CK@A@?$CF?919?419s?$CF?910?410s?$CF?919?419s?$CF?912?412s?$CF?919?419s?6?$AA@ 006cdff0     libirc:tbk_display.obj
 0003:0004101c       ??_C@_05A@Image?$AA@       006ce01c     libirc:tbk_display.obj
 0003:00041024       ??_C@_02A@PC?$AA@          006ce024     libirc:tbk_display.obj
 0003:00041028       ??_C@_07A@Routine?$AA@     006ce028     libirc:tbk_display.obj
 0003:00041030       ??_C@_04A@Line?$AA@        006ce030     libirc:tbk_display.obj
 0003:00041038       ??_C@_06A@Source?$AA@      006ce038     libirc:tbk_display.obj
 0003:00041040       ??_C@_0DC@A@?6?6Traceback?5symbolic?5or?5hex?5stack?5dump?5follows?3?6?6?$AA@ 006ce040     libirc:tbk_display.obj
 0003:00041074       ??_C@_0CI@A@?$CF?917?417s?5?5?$CF8?48X?5?5?$CF?917?417s?5?5?$CF10?410s?5?5?$CFs?6?$AA@ 006ce074     libirc:tbk_display.obj
 0003:000410a0       ??_C@_0BBH@A@?9?9?9?9?9?9?9?9?9?5Frame?5?$CD?5?$CFs?5?9?9?9?9?9?9?9?9?9?9?9?9?9?9?9?9?9?9?9?9?9?9?9?9?9?9?9?9?9?9?9?9?9?9?9?9?9?9?9?6?6Image?3?5?5?5?5?5?5?5?5?5?$CFs?6PC?3?5?5?5?5?5?5?5?5?5?5?5?5?$CF8?48x?6Routine?5name?3?5?5?$CFs?6Source?5file?3?5?5?5?$CFs?6Line?5number?3?5?5?5?$CFs?6?6?$CFs?$CFs?$CF8?48lX?$CFs?$CF4?44lX?$CFs?$CFs?6?$CFs?$CF8?48lX?$CFs?$CF4?44lX?$CFs?$CFs?6?$CFs?$CF8?48lX?$CFs?$CF4?44lX?$CFs?$CFs?6?$CFs?$CF8?48lX?$CFs?$CF4?44lX?$CFs?$CFs?6?6?$CFs?$CF8?48lX?$CFs?$CF8?48lX?6?$CFs?$CF8?48lX?$CFs?$CF8?48lX?6?6?$AA@ 006ce0a0     libirc:tbk_display.obj
 0003:000411c0       ??_C@_0BL@A@Info?5from?5StackFrame?5is?3?6?6?$AA@ 006ce1c0     libirc:tbk_display.obj
 0003:000411dc       ??_C@_0BC@A@PC?4Offset?3?5?5?5?5?5?5?5?$AA@ 006ce1dc     libirc:tbk_display.obj
 0003:000411f0       ??_C@_0BF@A@?5?5PC?4Segment?3?5?5?5?5?5?5?5?$AA@ 006ce1f0     libirc:tbk_display.obj
 0003:00041208       ??_C@_0BC@A@?5?5PC?4Mode?3?5?5?5?5?5?5?5?$AA@ 006ce208     libirc:tbk_display.obj
 0003:0004121c       ??_C@_0BC@A@Return?4Offset?3?5?5?5?$AA@ 006ce21c     libirc:tbk_display.obj
 0003:00041230       ??_C@_0BF@A@?5?5Return?4Segment?3?5?5?5?$AA@ 006ce230     libirc:tbk_display.obj
 0003:00041248       ??_C@_0BC@A@?5?5Return?4Mode?3?5?5?5?$AA@ 006ce248     libirc:tbk_display.obj
 0003:0004125c       ??_C@_0BC@A@Frame?4Offset?3?5?5?5?5?$AA@ 006ce25c     libirc:tbk_display.obj
 0003:00041270       ??_C@_0BF@A@?5?5Frame?4Segment?3?5?5?5?5?$AA@ 006ce270     libirc:tbk_display.obj
 0003:00041288       ??_C@_0BC@A@?5?5Frame?4Mode?3?5?5?5?5?$AA@ 006ce288     libirc:tbk_display.obj
 0003:0004129c       ??_C@_0BC@A@Stack?4Offset?3?5?5?5?5?$AA@ 006ce29c     libirc:tbk_display.obj
 0003:000412b0       ??_C@_0BF@A@?5?5Stack?4Segment?3?5?5?5?5?$AA@ 006ce2b0     libirc:tbk_display.obj
 0003:000412c8       ??_C@_0BC@A@?5?5Stack?4Mode?3?5?5?5?5?$AA@ 006ce2c8     libirc:tbk_display.obj
 0003:000412dc       ??_C@_0BC@A@Params?$FL0?$FN?3?5?5?5?5?5?5?5?$AA@ 006ce2dc     libirc:tbk_display.obj
 0003:000412f0       ??_C@_0BA@A@?5?5Params?$FL1?$FN?3?5?5?5?$AA@ 006ce2f0     libirc:tbk_display.obj
 0003:00041300       ??_C@_0BC@A@Params?$FL2?$FN?3?5?5?5?5?5?5?5?$AA@ 006ce300     libirc:tbk_display.obj
 0003:00041314       ??_C@_0BA@A@?5?5Params?$FL3?$FN?3?5?5?5?$AA@ 006ce314     libirc:tbk_display.obj
 0003:00041370       ??_C@_09A@NTDLL?4DLL?$AA@  006ce370     libirc:tbk_backtrace.obj
 0003:0004137c       ??_C@_0BC@A@RtlCaptureContext?$AA@ 006ce37c     libirc:tbk_backtrace.obj
 0003:00041390       ??_C@_06A@?4trace?$AA@     006ce390     libirc:tbk_backtrace.obj
 0003:00041398       ??_C@_05A@?4text?$AA@      006ce398     libirc:tbk_backtrace.obj
 0003:00041760       ??_C@_0CO@A@Constant?5propagation?5error?5?$CI?$CFs?5substitution?$CJ?3?$AA@ 006ce760     libirc:irc_msg_support.obj
 0003:00041790       ??_C@_06A@FORMAL?$AA@      006ce790     libirc:irc_msg_support.obj
 0003:00041798       ??_C@_06A@RETURN?$AA@      006ce798     libirc:irc_msg_support.obj
 0003:000417a0       ??_C@_06A@GLOBAL?$AA@      006ce7a0     libirc:irc_msg_support.obj
 0003:000417a8       ??_C@_0BA@A@?7I32?5?$CFlx?5?$CB?$DN?5?$CFlx?$AA@ 006ce7a8     libirc:irc_msg_support.obj
 0003:000417b8       ??_C@_0BB@A@?7SI32?5?$CFld?5?$CB?$DN?5?$CFld?$AA@ 006ce7b8     libirc:irc_msg_support.obj
 0003:000417cc       ??_C@_0O@A@?7F32?5?$CFf?5?$CB?$DN?5?$CFf?$AA@ 006ce7cc     libirc:irc_msg_support.obj
 0003:000417dc       ??_C@_0BI@A@?7I64?5?$CFlx?3?$CFlx?5?$CB?$DN?5?$CFlx?3?$CFlx?$AA@ 006ce7dc     libirc:irc_msg_support.obj
 0003:000417f4       ??_C@_0BJ@A@?7SI64?5?$CFld?3?$CFld?5?$CB?$DN?5?$CFld?3?$CFld?$AA@ 006ce7f4     libirc:irc_msg_support.obj
 0003:00041810       ??_C@_0O@A@?7F64?5?$CFf?5?$CB?$DN?5?$CFf?$AA@ 006ce810     libirc:irc_msg_support.obj
 0003:00041820       ??_C@_0BE@A@Bad?5second?5argument?$AA@ 006ce820     libirc:irc_msg_support.obj
 0003:00041834       ??_C@_0CH@A@Fatal?5Error?3?5Can?5not?5initiate?5the?5Heap?$AA@ 006ce834     libirc:irc_msg_support.obj
 0003:0004185c       ??_C@_0CB@A@Usage?3?5?$CFs?5input_file?5output_file?$AA@ 006ce85c     libirc:irc_msg_support.obj
 0003:00041880       ??_C@_0CL@A@Usage?3?5?$CFs?5segment_size?5input_file?5?$FL?9trace?$FN?$AA@ 006ce880     libirc:irc_msg_support.obj
 0003:000418ac       ??_C@_0DE@A@Conversion?5from?5text?5file?5?$CFs?5to?5binary?5?$CFs?5completed?$AA@ 006ce8ac     libirc:irc_msg_support.obj
 0003:000418e0       ??_C@_0BJ@A@segment_size?5?$DN?50x?$CFx?5?$DN?5?$CFd?$AA@ 006ce8e0     libirc:irc_msg_support.obj
 0003:000418fc       ??_C@_0DF@A@Cannot?5allocate?5memory?5to?5hold?5segment?5?$CIsize?5?$DN?50x?$CFx?$CJ?$AA@ 006ce8fc     libirc:irc_msg_support.obj
 0003:00041934       ??_C@_0BJ@A@Input?5file?3?5?$CFs?5corrupted?$AA@ 006ce934     libirc:irc_msg_support.obj
 0003:00041950       ??_C@_0BE@A@routine_name?5?$DN?5?8?$CFs?8?$AA@ 006ce950     libirc:irc_msg_support.obj
 0003:00041964       ??_C@_0BE@A@file_name?5?5?5?5?$DN?5?8?$CFs?8?$AA@ 006ce964     libirc:irc_msg_support.obj
 0003:00041978       ??_C@_0BE@A@prof_dir?5?5?5?5?5?$DN?5?8?$CFs?8?$AA@ 006ce978     libirc:irc_msg_support.obj
 0003:0004198c       ??_C@_0CP@A@Dynamic?5profile?5created?5from?5file?5?$CFs?5completed?$AA@ 006ce98c     libirc:irc_msg_support.obj
 0003:000419c0       ??_C@_0FA@A@Fatal?5Error?3?5This?5program?5was?5not?5built?5to?5run?5on?5the?5processor?5in?5your?5system?4?$AA@ 006ce9c0     libirc:irc_msg_support.obj
 0003:00041a20       ??_C@_0CA@A@The?5allowed?5processors?5are?3?5?$CFs?4?$AA@ 006cea20     libirc:irc_msg_support.obj
 0003:00041a40       ??_C@_0FC@A@Run?9Time?5Check?5Failure?3?5The?5variable?5?8?$CFs?8?5is?5being?5used?5without?5being?5initialized?$AA@ 006cea40     libirc:irc_msg_support.obj
 0003:00041aa0       ??_C@_0CN@A@Error?3?5?5Buffer?5overrun?5occurred?0?5forced?5exit?$AA@ 006ceaa0     libirc:irc_msg_support.obj
 0003:00041ad0       ??_C@_0DH@A@Initialization?5of?5symbol?5handler?5failed?4?5Error?5code?5?$CFd?$AA@ 006cead0     libirc:irc_msg_support.obj
 0003:00041b08       ??_C@_0BH@A@NTDLL?5module?5not?5found?$AA@ 006ceb08     libirc:irc_msg_support.obj
 0003:00041b20       ??_C@_0DC@A@RtlCaptureContext?5function?5not?5found?5in?5ntdll?4dll?$AA@ 006ceb20     libirc:irc_msg_support.obj
 0003:00041b60       ??_C@_0EB@A@?5Windows?5XP?564?9bit?5Edition?5Version?52003?5or?5newer?5should?5be?5used?4?$AA@ 006ceb60     libirc:irc_msg_support.obj
 0003:00041bc0       ??_C@_0DC@A@StackWalk?5is?5terminated?5abnormally?4?5Error?5code?5?$CFd?$AA@ 006cebc0     libirc:irc_msg_support.obj
 0003:00041bf4       ??_C@_0CJ@A@Exception?5is?5raised?5during?5stack?5walking?$AA@ 006cebf4     libirc:irc_msg_support.obj
 0003:00041c20       ??_C@_0BE@A@Signal?5?$CFs?5is?5raised?$AA@ 006cec20     libirc:irc_msg_support.obj
 0003:00041c34       ??_C@_0BM@A@Signal?5?$CFs?5is?5raised?5at?50x?$CFp?$AA@ 006cec34     libirc:irc_msg_support.obj
 0003:00041c50       ??_C@_07A@SIGSEGV?$AA@     006cec50     libirc:irc_msg_support.obj
 0003:00041c58       ??_C@_06A@SIGILL?$AA@      006cec58     libirc:irc_msg_support.obj
 0003:00041c60       ??_C@_06A@SIGBUS?$AA@      006cec60     libirc:irc_msg_support.obj
 0003:00041c68       ??_C@_06A@SIGFPE?$AA@      006cec68     libirc:irc_msg_support.obj
 0003:00041c70       ??_C@_0DM@A@You?5must?5link?5with?5libunwind?5to?5use?5traceback?5functionality?$AA@ 006cec70     libirc:irc_msg_support.obj
 0003:00041cc0       ??_C@_0IL@A@Intel?$CIR?$CJ?5Core?$CITM?$CJ?5Duo?5processors?5and?5compatible?5Intel?5processors?5with?5supplemental?5Streaming?5SIMD?5Extensions?53?5?$CISSSE3?$CJ?5instruction?5support?$AA@ 006cecc0     libirc:irc_msg_support.obj
 0003:00041d60       ??_C@_0HC@A@Intel?$CIR?$CJ?5Pentium?$CIR?$CJ?54?5and?5compatible?5Intel?5processors?5with?5Streaming?5SIMD?5Extensions?53?5?$CISSE3?$CJ?5instruction?5support?$AA@ 006ced60     libirc:irc_msg_support.obj
 0003:00041de0       ??_C@_0DG@A@Intel?$CIR?$CJ?5Pentium?$CIR?$CJ?5M?5and?5compatible?5Intel?5processors?$AA@ 006cede0     libirc:irc_msg_support.obj
 0003:00041e20       ??_C@_0IH@A@Intel?$CIR?$CJ?5Pentium?$CIR?$CJ?54?5and?5compatible?5Intel?5processors?4?5Enables?5new?5optimizations?5in?5addition?5to?5Intel?5processor?9specific?5optimizations?$AA@ 006cee20     libirc:irc_msg_support.obj
 0003:00041ec0       ??_C@_0DI@A@Intel?$CIR?$CJ?5processors?5with?5Swing?5New?5Instructions?5support?$AA@ 006ceec0     libirc:irc_msg_support.obj
 0003:00041f00       ??_C@_0EA@A@Intel?$CIR?$CJ?5processors?5with?5SSE4?42?5and?5POPCNT?5instructions?5support?$AA@ 006cef00     libirc:irc_msg_support.obj
 0003:00041f40       ??_C@_0DE@A@Intel?$CIR?$CJ?5processors?5with?5MOVBE?5instructions?5support?$AA@ 006cef40     libirc:irc_msg_support.obj
 0003:00041f74       ??_C@_0DL@A@Intel?$CIR?$CJ?5processors?5with?5Intel?$CIR?$CJ?5AVX?5instructions?5support?$AA@ 006cef74     libirc:irc_msg_support.obj
 0003:00041fb0       ??_C@_0M@A@irc_msg?4dll?$AA@ 006cefb0     libirc:irc_msg_support.obj
 0003:00042bb8       ??_C@_06MLHPMAKE@tpwgts?$AA@ 006cfbb8     ParMETISLib:backcompat.obj
 0003:00042bc0       ??_C@_0DH@BLEDAIHK@Error?3?5The?5number?5of?5processors?5@ 006cfbc0     ParMETISLib:pspases.obj
 0003:00042bf8       ??_C@_0BB@NMEPAIGL@PAROMETISS?3?5perm?$AA@ 006cfbf8     ParMETISLib:pspases.obj
 0003:00042c0c       ??_C@_0BC@FMICCCPI@PAROMETISS?3?5iperm?$AA@ 006cfc0c     ParMETISLib:pspases.obj
 0003:00042c20       ??_C@_0BG@OIFPGDPH@PAROMETISS?3?5sendcount?$AA@ 006cfc20     ParMETISLib:pspases.obj
 0003:00042c38       ??_C@_0BD@LGENCADE@PAROMETISS?3?5displs?$AA@ 006cfc38     ParMETISLib:pspases.obj
 0003:00042c4c       ??_C@_0BK@GINBFHOB@AssembleGraph?3?5recvcounts?$AA@ 006cfc4c     ParMETISLib:pspases.obj
 0003:00042c68       ??_C@_0BG@EDKNALHN@AssembleGraph?3?5displs?$AA@ 006cfc68     ParMETISLib:pspases.obj
 0003:00042c80       ??_C@_0BL@BOGJKKPC@AssembleEntireGraph?3?5axadj?$AA@ 006cfc80     ParMETISLib:pspases.obj
 0003:00042c9c       ??_C@_0BN@DGDMABPO@AssembleEntireGraph?3?5aadjncy?$AA@ 006cfc9c     ParMETISLib:pspases.obj
 0003:00042cbc       ??_C@_0DE@HHOCELLE@Error?3?5Too?5many?5processors?5for?5t@ 006cfcbc     ParMETISLib:ometis.obj
 0003:00042cf0       ??_C@_0CO@KICGHNO@Error?3?5vertices?5are?5not?5distribu@ 006cfcf0     ParMETISLib:ometis.obj
 0003:00042d20       ??_C@_0O@FKHOEE@mgraph?9?$DOnvwgt?$AA@ 006cfd20     ParMETISLib:ometis.obj
 0003:00042d30       ??_C@_0BC@KEPDEACO@PAROMETIS?3?5morder?$AA@ 006cfd30     ParMETISLib:ometis.obj
 0003:00042d44       ??_C@_08JECEPGJA@nodedist?$AA@ 006cfd44     ParMETISLib:mesh.obj
 0003:00042d50       ??_C@_08KEFELNFB@nodelist?$AA@ 006cfd50     ParMETISLib:mesh.obj
 0003:00042d5c       ??_C@_08FPLNBLOB@auxarray?$AA@ 006cfd5c     ParMETISLib:mesh.obj
 0003:00042d68       ??_C@_06CGEDKBAH@htable?$AA@ 006cfd68     ParMETISLib:mesh.obj
 0003:00042d70       ??_C@_07EGNPFICE@scounts?$AA@ 006cfd70     ParMETISLib:mesh.obj
 0003:00042d78       ??_C@_04LALJDGPB@nmap?$AA@ 006cfd78     ParMETISLib:mesh.obj
 0003:00042d80       ??_C@_0L@BGMFLGFA@recvbuffer?$AA@ 006cfd80     ParMETISLib:mesh.obj
 0003:00042d8c       ??_C@_05FIAANDPG@gnptr?$AA@ 006cfd8c     ParMETISLib:mesh.obj
 0003:00042d94       ??_C@_05HIDIFIJC@gnind?$AA@ 006cfd94     ParMETISLib:mesh.obj
 0003:00042d9c       ??_C@_04DKBBLKKK@nptr?$AA@ 006cfd9c     ParMETISLib:mesh.obj
 0003:00042da4       ??_C@_04KDCJNDFL@xadj?$AA@ 006cfda4     ParMETISLib:mesh.obj
 0003:00042dac       ??_C@_0BL@CPDGNOFO@ParMETIS_V3_Mesh2Dual?3?5ind?$AA@ 006cfdac     ParMETISLib:mesh.obj
 0003:00042dc8       ??_C@_0BL@NKODNHCM@ParMETIS_V3_Mesh2Dual?3?5wgt?$AA@ 006cfdc8     ParMETISLib:mesh.obj
 0003:00042de4       ??_C@_0BO@IGBALLBL@ParMETIS_V3_Mesh2Dual?3?5tmpptr?$AA@ 006cfde4     ParMETISLib:mesh.obj
 0003:00042e04       ??_C@_06GACAHCIG@adjncy?$AA@ 006cfe04     ParMETISLib:mesh.obj
 0003:00042e0c       ??_C@_08KOCJOHDM@mytpwgts?$AA@ 006cfe0c     ParMETISLib:kmetis.obj
 0003:00042e18       ??_C@_0CK@OFAGKCND@Partitioning?5a?5graph?5of?5size?5?$CFd?5@ 006cfe18     ParMETISLib:kmetis.obj
 0003:00042e44       ??_C@_0CB@JPABOPAD@Final?5?$CFd?9way?5CUT?3?5?$CF6d?5?7Balance?3?5@ 006cfe44     ParMETISLib:kmetis.obj
 0003:00042e68       ??_C@_05FMONJPMD@?$CF?43f?5?$AA@ 006cfe68     ParMETISLib:kmetis.obj
 0003:00042e70       ??_C@_0N@KPMAACKE@?5?5avg?3?5?$CF?43f?6?$AA@ 006cfe70     ParMETISLib:kmetis.obj
 0003:00042e80       ??_C@_0BJ@NPMIFLCI@?$FL?$CF6d?5?$CF8d?5?$CF5d?5?$CF5d?$FN?5?$FL?$CFd?$FN?5?$FL?$AA@ 006cfe80     ParMETISLib:kmetis.obj
 0003:00042e9c       ??_C@_05BFNHLEPL@?5?$CF?43f?$AA@ 006cfe9c     ParMETISLib:kmetis.obj
 0003:00042ea4       ??_C@_03IGNODFOD@?$FN?5?$FL?$AA@ 006cfea4     ParMETISLib:kmetis.obj
 0003:00042ea8       ??_C@_02JODFHDIE@?$FN?6?$AA@ 006cfea8     ParMETISLib:kmetis.obj
 0003:00042eac       ??_C@_0N@KNJPBJFM@graph?9?$DOwhere?$AA@ 006cfeac     ParMETISLib:kmetis.obj
 0003:00042ebc       ??_C@_0BH@IMMADLFB@nvtxs?3?5?$CF10d?0?5balance?3?5?$AA@ 006cfebc     ParMETISLib:kmetis.obj
 0003:00042ed4       ??_C@_01EEMJAFIK@?6?$AA@   006cfed4     ParMETISLib:kmetis.obj
 0003:00042ed8       ??_C@_0CB@PIBFBNAD@nvtxs?3?5?$CF10d?0?5cut?3?5?$CF8d?0?5balance?3?5@ 006cfed8     ParMETISLib:kmetis.obj
 0003:00042efc       ??_C@_05JDGDCODD@uvwgt?$AA@ 006cfefc     ParMETISLib:gkmetis.obj
 0003:00042f04       ??_C@_04LPGMOEPP@vwgt?$AA@ 006cff04     ParMETISLib:gkmetis.obj
 0003:00042f0c       ??_C@_0CN@BIJEINNC@ERROR?3?5sum?5weight?5for?5constraint@ 006cff0c     ParMETISLib:gkmetis.obj
 0003:00042f3c       ??_C@_0CJ@LNFKMDOL@XYZ?5Cut?3?5?$CF6d?5?7Balance?3?5?$CF6?43f?5?$FL?$CFd@ 006cff3c     ParMETISLib:gkmetis.obj
 0003:00042f68       ??_C@_0BI@EHBOJBKG@ParMETIS_PartGeom?3?5xadj?$AA@ 006cff68     ParMETISLib:gkmetis.obj
 0003:00042f80       ??_C@_0BK@FJOACJPN@ParMETIS_PartGeom?3?5adjncy?$AA@ 006cff80     ParMETISLib:gkmetis.obj
 0003:00042f9c       ??_C@_05CKPGOAHC@vsize?$AA@ 006cff9c     ParMETISLib:rmetis.obj
 0003:00042fa4       ??_C@_04KLFPBEKK@home?$AA@ 006cffa4     ParMETISLib:rmetis.obj
 0003:00042fac       ??_C@_0CC@GOAAFMMB@Final?5?$CF3d?9way?5Cut?3?5?$CF6d?5?7Balance?3@ 006cffac     ParMETISLib:rmetis.obj
 0003:00042fd0       ??_C@_0BG@DIFKEGOC@?6NMoved?3?5?$CFd?5?$CFd?5?$CFd?5?$CFd?6?$AA@ 006cffd0     ParMETISLib:rmetis.obj
 0003:00042fe8       ??_C@_0BH@DCLFFAEG@?$FL?$CF6d?5?$CF8d?5?$CF5d?5?$CF5d?$FN?$FL?$CFd?$FN?6?$AA@ 006cffe8     ParMETISLib:ametis.obj
 0003:00043000       ??_C@_0DL@IFGCKKLA@ERROR?3?5One?5or?5more?5required?5para@ 006d0000     ParMETISLib:mmetis.obj
 0003:00043040       ??_C@_0EF@BAEAONME@ERROR?3?5elmwgt?5?$DN?$DN?5NULL?5when?5verte@ 006d0040     ParMETISLib:mmetis.obj
 0003:00043088       ??_C@_0DA@EFKHCHBF@Completed?5Dual?5Graph?5?9?9?5Nvtxs?3?5?$CF@ 006d0088     ParMETISLib:mmetis.obj
 0003:000430b8       ??_C@_0N@CBDPHJA@?5?5?5Mesh2Dual?$AA@ 006d00b8     ParMETISLib:mmetis.obj
 0003:000430c8       ??_C@_0N@OIGGLIA@?5?5?5?5ParMETIS?$AA@ 006d00c8     ParMETISLib:mmetis.obj
 0003:000430d8       ??_C@_0N@MOECGEBE@?5?5?5?5?5?5?5Total?$AA@ 006d00d8     ParMETISLib:mmetis.obj
 0003:000430e8       ??_C@_09JNFLBKB@Error?$CB?5?$CFs?$AA@ 006d00e8     ParMETISLib:util.obj
 0003:000430f4       ??_C@_08KONLKLIF@?$FL?$CF2d?$FN?5?$CFs?$AA@ 006d00f4     ParMETISLib:util.obj
 0003:00043100       ??_C@_0DN@OGFNGNNH@?$CK?$CK?$CKMemory?5allocation?5failed?5for?5@ 006d0100     ParMETISLib:util.obj
 0003:00043140       ??_C@_0BD@FAOGAMOM@Key?5?$CFd?5not?5found?$CB?6?$AA@ 006d0140     ParMETISLib:util.obj
 0003:00043154       ??_C@_0BB@EBNDMPLO@Par_KMetis?3?5vwgt?$AA@ 006d0154     ParMETISLib:grsetup.obj
 0003:00043168       ??_C@_0BD@LKEIMFLJ@Par_KMetis?3?5adjwgt?$AA@ 006d0168     ParMETISLib:grsetup.obj
 0003:0004317c       ??_C@_0N@OFLCLOHD@graph?9?$DOnvwgt?$AA@ 006d017c     ParMETISLib:grsetup.obj
 0003:0004318c       ??_C@_0BO@JAGILKLN@ComputeMoveStatistics?3?5lpvtxs?$AA@ 006d018c     ParMETISLib:grsetup.obj
 0003:000431ac       ??_C@_0BO@JCGPOOEH@ComputeMoveStatistics?3?5gpvtxs?$AA@ 006d01ac     ParMETISLib:grsetup.obj
 0003:000431cc       ??_C@_0BN@LAFLNKHC@AllocateWSpace?3?5wspace?9?$DOcore?$AA@ 006d01cc     ParMETISLib:memory.obj
 0003:000431ec       ??_C@_0BM@DMJFLJOF@AllocateWSpace?3?5wspace?9?$DOpv1?$AA@ 006d01ec     ParMETISLib:memory.obj
 0003:00043208       ??_C@_0BM@BHLIOKCG@AllocateWSpace?3?5wspace?9?$DOpv2?$AA@ 006d0208     ParMETISLib:memory.obj
 0003:00043224       ??_C@_0BM@OKDNLGH@AllocateWSpace?3?5wspace?9?$DOpv3?$AA@ 006d0224     ParMETISLib:memory.obj
 0003:00043240       ??_C@_0BM@EBOCENKA@AllocateWSpace?3?5wspace?9?$DOpv4?$AA@ 006d0240     ParMETISLib:memory.obj
 0003:0004325c       ??_C@_0CB@IAPIFPLP@AllocateWSpace?3?5wspace?9?$DOpepairs?$DP@ 006d025c     ParMETISLib:memory.obj
 0003:00043280       ??_C@_0BJ@OCOCGHNG@CreateCoarseGraph?3?5graph?$AA@ 006d0280     ParMETISLib:memory.obj
 0003:0004329c       ??_C@_0M@KDHANBOE@?5?5?5?5?5?5Setup?$AA@ 006d029c     ParMETISLib:timer.obj
 0003:000432a8       ??_C@_0M@HHJIDMJJ@?5?5?5Matching?$AA@ 006d02a8     ParMETISLib:timer.obj
 0003:000432b4       ??_C@_0M@NNMHAAIO@Contraction?$AA@ 006d02b4     ParMETISLib:timer.obj
 0003:000432c0       ??_C@_0M@MLLIHADK@?5?5?5InitPart?$AA@ 006d02c0     ParMETISLib:timer.obj
 0003:000432cc       ??_C@_0M@NOOAMCNB@?5?5?5?5Project?$AA@ 006d02cc     ParMETISLib:timer.obj
 0003:000432d8       ??_C@_0M@KAGMNMDM@?5Initialize?$AA@ 006d02d8     ParMETISLib:timer.obj
 0003:000432e4       ??_C@_0M@PMCOFNJB@?5?5?5?5?5?5K?9way?$AA@ 006d02e4     ParMETISLib:timer.obj
 0003:000432f0       ??_C@_0M@GNJMECJN@?5?5?5?5?5?5?5Move?$AA@ 006d02f0     ParMETISLib:timer.obj
 0003:000432fc       ??_C@_0M@FOBCBBPI@?5?5?5?5?5?5Remap?$AA@ 006d02fc     ParMETISLib:timer.obj
 0003:00043308       ??_C@_0M@JJNKPAM@?5?5?5?5?5?5Total?$AA@ 006d0308     ParMETISLib:timer.obj
 0003:00043314       ??_C@_0M@EDIBKNDN@?5?5?5?5?5?5?5Aux1?$AA@ 006d0314     ParMETISLib:timer.obj
 0003:00043320       ??_C@_0M@GIKMPOPO@?5?5?5?5?5?5?5Aux2?$AA@ 006d0320     ParMETISLib:timer.obj
 0003:0004332c       ??_C@_0M@HBLHMPLP@?5?5?5?5?5?5?5Aux3?$AA@ 006d032c     ParMETISLib:timer.obj
 0003:00043338       ??_C@_0M@DOPGFJHI@?5?5?5?5?5?5?5Aux4?$AA@ 006d0338     ParMETISLib:timer.obj
 0003:00043344       ??_C@_0M@CHONGIDJ@?5?5?5?5?5?5?5Aux5?$AA@ 006d0344     ParMETISLib:timer.obj
 0003:00043350       ??_C@_0M@MMADLPK@?5?5?5?5?5?5?5Aux6?$AA@ 006d0350     ParMETISLib:timer.obj
 0003:0004335c       ??_C@_0CM@JDCBADBD@?$CFs?3?5Max?3?5?$CF7?43f?0?5Sum?3?5?$CF7?43f?0?5Bala@ 006d035c     ParMETISLib:timer.obj
 0003:00043388       ??_C@_0BG@BIBDJHKJ@MultilevelOrder?3?5perm?$AA@ 006d0388     ParMETISLib:order.obj
 0003:000433a0       ??_C@_0BK@OELPBECB@MultilevelOrder?3?5lastnode?$AA@ 006d03a0     ParMETISLib:order.obj
 0003:000433bc       ??_C@_0BO@JPPJLLCM@MultilevelOrder?3?5graph?9?$DOwhere?$AA@ 006d03bc     ParMETISLib:order.obj
 0003:000433dc       ??_C@_0BI@JOCIGHAH@MultilevelOrder?3?5porder?$AA@ 006d03dc     ParMETISLib:order.obj
 0003:000433f4       ??_C@_0BI@JICBJKAJ@MultilevelOrder?3?5morder?$AA@ 006d03f4     ParMETISLib:order.obj
 0003:0004340c       ??_C@_0BK@IBDBFEAG@LabelSeparators?3?5sizescan?$AA@ 006d040c     ParMETISLib:order.obj
 0003:00043428       ??_C@_0L@EJFHJJMI@SepSizes?3?5?$AA@ 006d0428     ParMETISLib:order.obj
 0003:00043434       ??_C@_0M@CBGHGDFO@?5?$CFd?5?$FL?$CFd?5?$CFd?$FN?$AA@ 006d0434     ParMETISLib:order.obj
 0003:00043440       ??_C@_0BD@EAGCPCJH@CompactGraph?3?5cmap?$AA@ 006d0440     ParMETISLib:order.obj
 0003:00043454       ??_C@_0BH@GGCEELNJ@CompactGraph?3?5newwhere?$AA@ 006d0454     ParMETISLib:order.obj
 0003:0004346c       ??_C@_0BL@GHJKGMDH@?$FL?$CF6d?5?$CF8d?5?$CF5d?5?$CF5d?$FN?$FL?$CFd?$FN?$FL?$CFd?$FN?6?$AA@ 006d046c     ParMETISLib:order.obj
 0003:00043488       ??_C@_0BE@GJEPKGCM@MoveGraph?3?5mvtxdist?$AA@ 006d0488     ParMETISLib:move.obj
 0003:0004349c       ??_C@_0BE@IOAILJNL@MoveGraph?3?5newlabel?$AA@ 006d049c     ParMETISLib:move.obj
 0003:000434b0       ??_C@_0BL@HLKGKDLG@Mc_MoveGraph?3?5wspace?9?$DOcore?$AA@ 006d04b0     ParMETISLib:move.obj
 0003:000434cc       ??_C@_0BC@FPEMMFHH@MMG?3?5mgraph?9?$DOxadj?$AA@ 006d04cc     ParMETISLib:move.obj
 0003:000434e0       ??_C@_0BC@EDAJPCND@MMG?3?5mgraph?9?$DOvwgt?$AA@ 006d04e0     ParMETISLib:move.obj
 0003:000434f4       ??_C@_0BE@KNMFFABM@MMG?3?5mgraph?9?$DOadjncy?$AA@ 006d04f4     ParMETISLib:move.obj
 0003:00043508       ??_C@_0BE@DCHDJOJI@MMG?3?5mgraph?9?$DOadjwgt?$AA@ 006d0508     ParMETISLib:move.obj
 0003:0004351c       ??_C@_0BJ@NKLKLLBL@ProjectInfoBack?3?5auxinfo?$AA@ 006d051c     ParMETISLib:move.obj
 0003:00043538       ??_C@_0BI@EBDGLKOK@?$CI?$CFd?5?$CFd?$CJ?5diagonal?5entry?6?$AA@ 006d0538     ParMETISLib:move.obj
 0003:00043550       ??_C@_0CJ@CDBNPEJJ@?$CI?$CFd?5?$CFd?$CJ?5but?5not?5?$CI?$CFd?5?$CFd?$CJ?5?$FL?$CFd?5?$CFd?$FN?5@ 006d0550     ParMETISLib:move.obj
 0003:0004357c       ??_C@_0M@BJCIHHIL@remap?3?5recv?$AA@ 006d057c     ParMETISLib:remap.obj
 0003:00043588       ??_C@_08PKBIDFJF@mylpwgts?$AA@ 006d0588     ParMETISLib:remap.obj
 0003:00043594       ??_C@_0CF@OLEDBIEK@Savings?5from?5parallel?5remapping?3@ 006d0594     ParMETISLib:remap.obj
 0003:000435bc       ??_C@_0CF@IAPGJOCG@Savings?5from?5parallel?5remapping?3@ 006d05bc     ParMETISLib:remap.obj
 0003:000435e4       ??_C@_0N@NFDFAIJK@KWR?3?5changed?$AA@ 006d05e4     ParMETISLib:kwaybalance.obj
 0003:000435f4       ??_C@_09CKMACNK@KWR?3?5perm?$AA@ 006d05f4     ParMETISLib:kwaybalance.obj
 0003:00043600       ??_C@_0L@MEODBBLL@KWR?3?5pperm?$AA@ 006d0600     ParMETISLib:kwaybalance.obj
 0003:0004360c       ??_C@_0M@HKPOHAGO@KWR?3?5update?$AA@ 006d060c     ParMETISLib:kwaybalance.obj
 0003:00043618       ??_C@_0O@GPJPIFCK@KWR?3?5nupds_pe?$AA@ 006d0618     ParMETISLib:kwaybalance.obj
 0003:00043628       ??_C@_0N@PMEKOEDD@KWR?3?5lhtable?$AA@ 006d0628     ParMETISLib:kwaybalance.obj
 0003:00043638       ??_C@_0L@CLMFLKCG@badmaxpwgt?$AA@ 006d0638     ParMETISLib:kwaybalance.obj
 0003:00043644       ??_C@_0L@BDBMPGGA@KWR?3?5moved?$AA@ 006d0644     ParMETISLib:kwaybalance.obj
 0003:00043650       ??_C@_0P@LIJAPNIJ@KWR?3?5tmp_where?$AA@ 006d0650     ParMETISLib:kwaybalance.obj
 0003:00043660       ??_C@_0P@ODPMCBKN@KWR?3?5tmp_rinfo?$AA@ 006d0660     ParMETISLib:kwaybalance.obj
 0003:00043670       ??_C@_0BC@KNENKPMO@KWR?3?5tmp_edegrees?$AA@ 006d0670     ParMETISLib:kwaybalance.obj
 0003:00043684       ??_C@_0BP@BFHGGKJL@?7?$FL?$CFd?5?$CFd?$FN?0?5?$FL?$CF?44f?$FN?0?5?5?$FL?$CFd?5?$CFd?5?$CFd?$FN?6?$AA@ 006d0684     ParMETISLib:kwaybalance.obj
 0003:000436a4       ??_C@_0BE@LGCEHFHC@SetUp?3?5graph?9?$DOlperm?$AA@ 006d06a4     ParMETISLib:setup.obj
 0003:000436b8       ??_C@_0N@JBOJCFKH@SetUp?3?5peind?$AA@ 006d06b8     ParMETISLib:setup.obj
 0003:000436c8       ??_C@_0P@IIOGIMOI@SetUp?3?5recvptr?$AA@ 006d06c8     ParMETISLib:setup.obj
 0003:000436d8       ??_C@_0P@KINOAHIM@SetUp?3?5recvind?$AA@ 006d06d8     ParMETISLib:setup.obj
 0003:000436e8       ??_C@_0P@OCPCFLEK@SetUp?3?5sendptr?$AA@ 006d06e8     ParMETISLib:setup.obj
 0003:000436f8       ??_C@_0P@MCMKNACO@SetUp?3?5sendind?$AA@ 006d06f8     ParMETISLib:setup.obj
 0003:00043708       ??_C@_0O@NCNCPCCH@SetUp?3?5pexadj?$AA@ 006d0708     ParMETISLib:setup.obj
 0003:00043718       ??_C@_0BA@KPMDCFNJ@SetUp?3?5peadjncy?$AA@ 006d0718     ParMETISLib:setup.obj
 0003:00043728       ??_C@_0BA@LMPNOOON@SetUp?3?5peadjloc?$AA@ 006d0728     ParMETISLib:setup.obj
 0003:00043738       ??_C@_0M@LFIACGHE@SetUp?3?5imap?$AA@ 006d0738     ParMETISLib:setup.obj
 0003:00043744       ??_C@_0BH@FLILNPMJ@SetUp?3?5wspace?9?$DOindices?$AA@ 006d0744     ParMETISLib:setup.obj
 0003:0004375c       ??_C@_0BF@EHHIEHIM@SetUp?3?5wspace?9?$DOpairs?$AA@ 006d075c     ParMETISLib:setup.obj
 0003:00043774       ??_C@_0O@MIGLBJBG@KWR?3?5movewgts?$AA@ 006d0774     ParMETISLib:kwayfm.obj
 0003:00043784       ??_C@_0O@DCFCGLKE@KWR?3?5ognpwgts?$AA@ 006d0784     ParMETISLib:kwayfm.obj
 0003:00043794       ??_C@_0O@EBCLOGAE@KWR?3?5pgnpwgts?$AA@ 006d0794     ParMETISLib:kwayfm.obj
 0003:000437a4       ??_C@_0O@KPLMJKLH@KWR?3?5overfill?$AA@ 006d07a4     ParMETISLib:kwayfm.obj
 0003:000437b4       ??_C@_0BP@NLDOMJBE@ProjectPartition?3?5graph?9?$DOwhere?$AA@ 006d07b4     ParMETISLib:kwayrefine.obj
 0003:000437d4       ??_C@_0L@GMCKHJNG@CPP?3?5rinfo?$AA@ 006d07d4     ParMETISLib:kwayrefine.obj
 0003:000437e0       ??_C@_0N@KECPMFDD@CPP?3?5lnpwgts?$AA@ 006d07e0     ParMETISLib:kwayrefine.obj
 0003:000437f0       ??_C@_0N@PJEFNJGF@CPP?3?5gnpwgts?$AA@ 006d07f0     ParMETISLib:kwayrefine.obj
 0003:00043800       ??_C@_0BB@IMKNICJP@HEM_Match?3?5match?$AA@ 006d0800     ParMETISLib:match.obj
 0003:00043814       ??_C@_0BC@HODODLJD@HEM_Match?3?5myhome?$AA@ 006d0814     ParMETISLib:match.obj
 0003:00043828       ??_C@_0BE@EGEEMMID@Match_HEM?3?5nreqs_pe?$AA@ 006d0828     ParMETISLib:match.obj
 0003:0004383c       ??_C@_0BN@PPLBGANE@We?5found?5?$CFd?5heavy?5vertices?$CB?6?$AA@ 006d083c     ParMETISLib:match.obj
 0003:0004385c       ??_C@_05FKEBLKAO@Match?$AA@ 006d085c     ParMETISLib:match.obj
 0003:00043864       ??_C@_0M@HDKFBJIO@Cnvtxs?3?5?$CFd?6?$AA@ 006d0864     ParMETISLib:match.obj
 0003:00043870       ??_C@_0BH@GLLLOFDF@Done?5with?5matching?4?4?4?6?$AA@ 006d0870     ParMETISLib:match.obj
 0003:00043888       ??_C@_0BI@OEIOMKKK@CreateCoarseGraph?3?5cmap?$AA@ 006d0888     ParMETISLib:match.obj
 0003:000438a0       ??_C@_0BM@HDJFGGNF@CreateCoarseGraph?3?5cvtxdist?$AA@ 006d08a0     ParMETISLib:match.obj
 0003:000438bc       ??_C@_0BJ@FGHEILLK@CreateCoarseGraph?3?5rcand?$AA@ 006d08bc     ParMETISLib:match.obj
 0003:000438d8       ??_C@_0CA@DJCEEALB@CreateCoarseGraph?3?5graph?9?$DOrlens?$AA@ 006d08d8     ParMETISLib:match.obj
 0003:000438f8       ??_C@_0CA@PCHIJDBE@CreateCoarseGraph?3?5graph?9?$DOslens?$AA@ 006d08f8     ParMETISLib:match.obj
 0003:00043918       ??_C@_0BK@HJFLHLAI@CreateCoarseGraph?3?5rgraph?$AA@ 006d0918     ParMETISLib:match.obj
 0003:00043934       ??_C@_0BK@NPCMHALM@CreateCoarseGraph?3?5sgraph?$AA@ 006d0934     ParMETISLib:match.obj
 0003:00043950       ??_C@_0BI@OHHGHOCC@CreateCoarseGraph?3?5perm?$AA@ 006d0950     ParMETISLib:match.obj
 0003:00043968       ??_C@_0BK@JBFCGFOC@CreateCoarserGraph?3?5cxadj?$AA@ 006d0968     ParMETISLib:match.obj
 0003:00043984       ??_C@_0BK@INBHFCEG@CreateCoarserGraph?3?5cvwgt?$AA@ 006d0984     ParMETISLib:match.obj
 0003:000439a0       ??_C@_0BL@EIPNKMPF@CreateCoarserGraph?3?5cnvwgt?$AA@ 006d09a0     ParMETISLib:match.obj
 0003:000439bc       ??_C@_0BM@HHCFEDLF@CreateCoarserGraph?3?5cadjncy?$AA@ 006d09bc     ParMETISLib:match.obj
 0003:000439d8       ??_C@_0BL@JIHJJAOM@CreateCoarserGraph?3?5cvsize?$AA@ 006d09d8     ParMETISLib:match.obj
 0003:000439f4       ??_C@_0BK@JJCEKCBD@CreateCoarserGraph?3?5chome?$AA@ 006d09f4     ParMETISLib:match.obj
 0003:00043a10       ??_C@_0BL@NAALNK@CreateCoarserGraph?3?5cwhere?$AA@ 006d0a10     ParMETISLib:match.obj
 0003:00043a2c       ??_C@_0BM@OIJDINDB@CreateCoarserGraph?3?5cadjwgt?$AA@ 006d0a2c     ParMETISLib:match.obj
 0003:00043a48       ??_C@_0P@HDJBDHA@Mc_IP_RB?3?5part?$AA@ 006d0a48     ParMETISLib:initpart.obj
 0003:00043a58       ??_C@_0P@PLKDLIKM@Mc_IP_RB?3?5xadj?$AA@ 006d0a58     ParMETISLib:initpart.obj
 0003:00043a68       ??_C@_0BB@OBLNOFKG@Mc_IP_RB?3?5adjncy?$AA@ 006d0a68     ParMETISLib:initpart.obj
 0003:00043a7c       ??_C@_0BB@HOALCLCC@Mc_IP_RB?3?5adjwgt?$AA@ 006d0a7c     ParMETISLib:initpart.obj
 0003:00043a90       ??_C@_0P@OHOGIPAI@Mc_IP_RB?3?5vwgt?$AA@ 006d0a90     ParMETISLib:initpart.obj
 0003:00043aa0       ??_C@_0BC@LHMKPIOL@Mc_IP_RB?3?5gwhere0?$AA@ 006d0aa0     ParMETISLib:initpart.obj
 0003:00043ab4       ??_C@_0BC@KONBMJKK@Mc_IP_RB?3?5gwhere1?$AA@ 006d0ab4     ParMETISLib:initpart.obj
 0003:00043ac8       ??_C@_0BE@JGCBAPPC@Mc_KeepPart?3?5rename?$AA@ 006d0ac8     ParMETISLib:initpart.obj
 0003:00043adc       ??_C@_0BL@GAJAAIJM@PartitionSmallGraph?3?5where?$AA@ 006d0adc     ParMETISLib:weird.obj
 0003:00043af8       ??_C@_06MCLBCBMI@mypart?$AA@ 006d0af8     ParMETISLib:weird.obj
 0003:00043b00       ??_C@_0L@PKKLKPGD@sendcounts?$AA@ 006d0b00     ParMETISLib:weird.obj
 0003:00043b0c       ??_C@_06KCADDEBH@displs?$AA@ 006d0b0c     ParMETISLib:weird.obj
 0003:00043b14       ??_C@_07HHNLLGMH@lnpwgts?$AA@ 006d0b14     ParMETISLib:weird.obj
 0003:00043b1c       ??_C@_07CKLBKKJB@gnpwgts?$AA@ 006d0b1c     ParMETISLib:weird.obj
 0003:00043b24       ??_C@_0CD@KIDLLLPO@ERROR?3?5part?5array?5is?5set?5to?5NULL@ 006d0b24     ParMETISLib:weird.obj
 0003:00043b48       ??_C@_0DA@IKLGMLG@WARNING?3?5wgtflag?5is?5NULL?4?5?5Using@ 006d0b48     ParMETISLib:weird.obj
 0003:00043b78       ??_C@_0DA@CHPHHHLG@WARNING?3?5numflag?5is?5NULL?4?5?5Using@ 006d0b78     ParMETISLib:weird.obj
 0003:00043ba8       ??_C@_0DJ@KAOKLACI@WARNING?3?5bad?5value?5for?5numflag?5?$CF@ 006d0ba8     ParMETISLib:weird.obj
 0003:00043be4       ??_C@_0CN@GFMDNDDE@WARNING?3?5ncon?5is?5NULL?4?5?5Using?5a?5@ 006d0be4     ParMETISLib:weird.obj
 0003:00043c14       ??_C@_0DG@CEAIAEHN@WARNING?3?5bad?5value?5for?5ncon?5?$CFd?4?5@ 006d0c14     ParMETISLib:weird.obj
 0003:00043c4c       ??_C@_0DA@PJKOIICM@WARNING?3?5nparts?5is?5NULL?4?5?5Using?5@ 006d0c4c     ParMETISLib:weird.obj
 0003:00043c7c       ??_C@_0DJ@LGCDCGIF@WARNING?3?5bad?5value?5for?5nparts?5?$CFd@ 006d0c7c     ParMETISLib:weird.obj
 0003:00043cb8       ??_C@_0BF@NHOHAOJH@CheckInputs?3?5itpwgts?$AA@ 006d0cb8     ParMETISLib:weird.obj
 0003:00043cd0       ??_C@_0DP@GFDGFFAC@WARNING?3?5tpwgts?5is?5NULL?4?5?5Settin@ 006d0cd0     ParMETISLib:weird.obj
 0003:00043d10       ??_C@_0DO@LPDDEEGM@WARNING?3?5ubvec?5is?5NULL?4?5?5Setting@ 006d0d10     ParMETISLib:weird.obj
 0003:00043d50       ??_C@_0EF@JGFJAJNH@WARNING?3?5bad?5value?5for?5ubvec?$FL?$CFd?$FN@ 006d0d50     ParMETISLib:weird.obj
 0003:00043d98       ??_C@_0EB@ICCFAAKA@WARNING?3?5bad?5value?5for?5ipc2redis@ 006d0d98     ParMETISLib:weird.obj
 0003:00043ddc       ??_C@_0DG@FGGBOHJF@WARNING?3?5ipc2redist?5is?5NULL?4?5?5Us@ 006d0ddc     ParMETISLib:weird.obj
 0003:00043e14       ??_C@_0CL@DJKLHEE@WARNING?3?5options?5is?5NULL?4?5?5Using@ 006d0e14     ParMETISLib:weird.obj
 0003:00043e40       ??_C@_0CA@LJDBJFPI@ERROR?3?5comm?5is?5NULL?4?5?5Aborting?6?$AA@ 006d0e40     ParMETISLib:weird.obj
 0003:00043e60       ??_C@_05PPPGEKEB@pwgts?$AA@ 006d0e60     ParMETISLib:stat.obj
 0003:00043e68       ??_C@_06BNCGCDLJ@tvwgts?$AA@ 006d0e68     ParMETISLib:stat.obj
 0003:00043e70       ??_C@_0N@FCLFLIDJ@CPB?3?5lnpwgts?$AA@ 006d0e70     ParMETISLib:stat.obj
 0003:00043e80       ??_C@_0N@PNPKEGP@CPB?3?5gnpwgts?$AA@ 006d0e80     ParMETISLib:stat.obj
 0003:00043e90       ??_C@_0BO@MDBAPAMH@?$CK?$CK?$CK?$CK?$CK?$CK?$CK?$CK?$CK?$CK?$CK?$CK?$CK?$CK?$CK?$CK?$CK?$CK?$CK?$CK?$CK?$CK?$CK?$CK?$CK?$CK?$CK?$CK?6?$AA@ 006d0e90     ParMETISLib:stat.obj
 0003:00043eb0       ??_C@_0N@GKMFJBE@CRS?3?5connect?$AA@ 006d0eb0     ParMETISLib:stat.obj
 0003:00043ec0       ??_C@_0O@LGGJFABJ@CRS?3?5gconnect?$AA@ 006d0ec0     ParMETISLib:stat.obj
 0003:00043ed0       ??_C@_0M@HCIHAMCD@CRS?3?5border?$AA@ 006d0ed0     ParMETISLib:stat.obj
 0003:00043edc       ??_C@_0N@GHBGCDFJ@CRS?3?5gborder?$AA@ 006d0edc     ParMETISLib:stat.obj
 0003:00043eec       ??_C@_09KBNGDKNI@CRS?3?5from?$AA@ 006d0eec     ParMETISLib:stat.obj
 0003:00043ef8       ??_C@_0L@KHDBCAPN@CRS?3?5gfrom?$AA@ 006d0ef8     ParMETISLib:stat.obj
 0003:00043f04       ??_C@_07PJKBNPKC@CRS?3?5to?$AA@ 006d0f04     ParMETISLib:stat.obj
 0003:00043f0c       ??_C@_08IIJLKAJD@CRS?3?5gto?$AA@ 006d0f0c     ParMETISLib:stat.obj
 0003:00043f18       ??_C@_0CA@FGABPEAH@?$CK?$CK?$CK?$CK?$CK?$CK?$CK?$CK?$CK?$CK?$CK?$CK?$CK?$CK?$CK?$CK?$CK?$CK?$CK?$CK?$CK?$CK?$CK?$CK?$CK?$CK?$CK?$CK?$CK?$CK?6?$AA@ 006d0f18     ParMETISLib:stat.obj
 0003:00043f38       ??_C@_0BE@CDJPABBD@subdomain?5weights?3?6?$AA@ 006d0f38     ParMETISLib:stat.obj
 0003:00043f4c       ??_C@_06JJNCDFMF@?$CF9?43f?5?$AA@ 006d0f4c     ParMETISLib:stat.obj
 0003:00043f54       ??_C@_0BG@EJEJGBLE@subdomain?5imbalance?3?6?$AA@ 006d0f54     ParMETISLib:stat.obj
 0003:00043f6c       ??_C@_0O@FMGFLCPO@connectivity?6?$AA@ 006d0f6c     ParMETISLib:stat.obj
 0003:00043f7c       ??_C@_04DIMAIMCG@?$CFd?3?5?$AA@ 006d0f7c     ParMETISLib:stat.obj
 0003:00043f84       ??_C@_04GHIFFIOD@?$CF9d?5?$AA@ 006d0f84     ParMETISLib:stat.obj
 0003:00043f8c       ??_C@_0BH@GNFLNOLD@number?5of?5borders?3?5?$CFd?6?$AA@ 006d0f8c     ParMETISLib:stat.obj
 0003:00043fa4       ??_C@_02PHMGELLB@?6?6?$AA@ 006d0fa4     ParMETISLib:stat.obj
 0003:00043fa8       ??_C@_0BE@JLBPLBLO@possible?5moves?3?5?$CFd?6?$AA@ 006d0fa8     ParMETISLib:stat.obj
 0003:00043fbc       ??_C@_07GCFFILKH@from?5?5?5?$AA@ 006d0fbc     ParMETISLib:stat.obj
 0003:00043fc4       ??_C@_07EKPGELO@to?5?5?5?5?5?$AA@ 006d0fc4     ParMETISLib:stat.obj
 0003:00043fcc       ??_C@_0CA@LCMEADMP@gain?5histogram?5?$CIbuckets?5of?5?$CFd?$CJ?6?$AA@ 006d0fcc     ParMETISLib:stat.obj
 0003:00043fec       ??_C@_04PFOHOKJK@?5?5?5?5?$AA@ 006d0fec     ParMETISLib:stat.obj
 0003:00043ff4       ??_C@_03JDANDILB@?$CFd?5?$AA@ 006d0ff4     ParMETISLib:stat.obj
 0003:00043ff8       ??_C@_0BL@GNONDMDE@Coordinate_Partition?3?5cand?$AA@ 006d0ff8     ParMETISLib:xyzpart.obj
 0003:00044014       ??_C@_0BI@PNCKIBOC@Unknown?5XYZ_Type?5type?$CB?6?$AA@ 006d1014     ParMETISLib:xyzpart.obj
 0003:0004402c       ??_C@_0BB@IIKKKEPD@ParSort?3?5mypicks?$AA@ 006d102c     ParMETISLib:xyzpart.obj
 0003:00044040       ??_C@_0BC@OLNHIIAD@ParSort?3?5allpicks?$AA@ 006d1040     ParMETISLib:xyzpart.obj
 0003:00044054       ??_C@_0BB@OJMLCJHO@ParSort?3?5relmnts?$AA@ 006d1054     ParMETISLib:xyzpart.obj
 0003:00044068       ??_C@_0O@FMBHHAPE@ParSort?3?5perm?$AA@ 006d1068     ParMETISLib:xyzpart.obj
 0003:00044078       ??_C@_0BH@PNJHMCHN@PartSort?3?5graph?9?$DOwhere?$AA@ 006d1078     ParMETISLib:xyzpart.obj
 0003:00044090       ??_C@_0BO@EJCNCPMP@ComputeMoveStatistics?3?5lstart?$AA@ 006d1090     ParMETISLib:diffutil.obj
 0003:000440b0       ??_C@_0BO@ELCKHLDF@ComputeMoveStatistics?3?5gstart?$AA@ 006d10b0     ParMETISLib:diffutil.obj
 0003:000440d0       ??_C@_0BN@EKAALGGJ@ComputeMoveStatistics?3?5lleft?$AA@ 006d10d0     ParMETISLib:diffutil.obj
 0003:000440f0       ??_C@_0BN@CAMHEGKK@ComputeMoveStatistics?3?5gleft?$AA@ 006d10f0     ParMETISLib:diffutil.obj
 0003:00044110       ??_C@_0BM@MLBAFPKI@ComputeMoveStatistics?3?5lend?$AA@ 006d1110     ParMETISLib:diffutil.obj
 0003:0004412c       ??_C@_0BM@LMMAGOLJ@ComputeMoveStatistics?3?5gend?$AA@ 006d112c     ParMETISLib:diffutil.obj
 0003:00044148       ??_C@_0DL@MAOBBIL@Something?5went?5wrong?5with?5the?5wh@ 006d1148     ParMETISLib:lmatch.obj
 0003:00044184       ??_C@_0L@GDNCIALJ@U_IP?3?5xadj?$AA@ 006d1184     ParMETISLib:initbalance.obj
 0003:00044190       ??_C@_07IKHFFILK@rcounts?$AA@ 006d1190     ParMETISLib:initbalance.obj
 0003:00044198       ??_C@_07LEDIKCON@rdispls?$AA@ 006d1198     ParMETISLib:initbalance.obj
 0003:000441a0       ??_C@_0BJ@KDGABBLA@input?5cut?3?5?$CFd?0?5balance?3?5?$AA@ 006d11a0     ParMETISLib:initbalance.obj
 0003:000441bc       ??_C@_0O@NNCOCILM@scratch?9remap?$AA@ 006d11bc     ParMETISLib:initbalance.obj
 0003:000441cc       ??_C@_09NBBNKAEP@diffusion?$AA@ 006d11cc     ParMETISLib:initbalance.obj
 0003:000441d8       ??_C@_0DD@GAMDOEME@?$CFs?5initial?5cut?3?5?$CF?41f?0?5totalv?3?5?$CF?4@ 006d11d8     ParMETISLib:initbalance.obj
 0003:0004420c       ??_C@_0BH@CHPDHOMD@AssembleGraph?3?5rcounts?$AA@ 006d120c     ParMETISLib:initbalance.obj
 0003:00044224       ??_C@_0CK@NENCDAHG@WARNING?3?5bad?5value?5for?5ctrl?9?$DOpar@ 006d1224     ParMETISLib:initbalance.obj
 0003:00044250       ??_C@_0BH@BJLOIEJE@AssembleGraph?3?5rdispls?$AA@ 006d1250     ParMETISLib:initbalance.obj
 0003:00044268       ??_C@_0BH@OJOJLDKJ@AssembleGraph?3?5mygraph?$AA@ 006d1268     ParMETISLib:initbalance.obj
 0003:00044280       ??_C@_0BG@CBIAPIFE@AssembleGraph?3?5ggraph?$AA@ 006d1280     ParMETISLib:initbalance.obj
 0003:00044298       ??_C@_0BF@LHMGCLFB@AssembleGraph?3?5axadj?$AA@ 006d1298     ParMETISLib:initbalance.obj
 0003:000442b0       ??_C@_0BF@KLIDBMPF@AssembleGraph?3?5avwgt?$AA@ 006d12b0     ParMETISLib:initbalance.obj
 0003:000442c8       ??_C@_0BG@BKLDNKIN@AssembleGraph?3?5anvwgt?$AA@ 006d12c8     ParMETISLib:initbalance.obj
 0003:000442e0       ??_C@_0BG@IBIOENOM@AssembleGraph?3?5adjncy?$AA@ 006d12e0     ParMETISLib:initbalance.obj
 0003:000442f8       ??_C@_0BG@BODIIDGI@AssembleGraph?3?5adjwgt?$AA@ 006d12f8     ParMETISLib:initbalance.obj
 0003:00044310       ??_C@_0BG@GDODNLIO@AssembleGraph?3?5alabel?$AA@ 006d1310     ParMETISLib:initbalance.obj
 0003:00044328       ??_C@_0BG@MKDHOGJE@AssembleGraph?3?5avsize?$AA@ 006d1328     ParMETISLib:initbalance.obj
 0003:00044340       ??_C@_0O@NHEMCBFI@AKWR?3?5changed?$AA@ 006d1340     ParMETISLib:akwayfm.obj
 0003:00044350       ??_C@_0L@JNGHBNGP@AKWR?3?5perm?$AA@ 006d1350     ParMETISLib:akwayfm.obj
 0003:0004435c       ??_C@_0M@HPHHJNKH@AKWR?3?5pperm?$AA@ 006d135c     ParMETISLib:akwayfm.obj
 0003:00044368       ??_C@_0N@GOEELIKN@AKWR?3?5update?$AA@ 006d1368     ParMETISLib:akwayfm.obj
 0003:00044378       ??_C@_0P@BKPHFPJP@AKWR?3?5nupds_pe?$AA@ 006d1378     ParMETISLib:akwayfm.obj
 0003:00044388       ??_C@_0O@PODDMNPB@AKWR?3?5lhtable?$AA@ 006d1388     ParMETISLib:akwayfm.obj
 0003:00044398       ??_C@_0P@LNADMDKD@AKWR?3?5movewgts?$AA@ 006d1398     ParMETISLib:akwayfm.obj
 0003:000443a8       ??_C@_0P@EHDKLBBB@AKWR?3?5ognpwgts?$AA@ 006d13a8     ParMETISLib:akwayfm.obj
 0003:000443b8       ??_C@_0P@DEEDDMLB@AKWR?3?5pgnpwgts?$AA@ 006d13b8     ParMETISLib:akwayfm.obj
 0003:000443c8       ??_C@_0P@NKNEEAAC@AKWR?3?5overfill?$AA@ 006d13c8     ParMETISLib:akwayfm.obj
 0003:000443d8       ??_C@_0M@KIIIHKHM@AKWR?3?5moved?$AA@ 006d13d8     ParMETISLib:akwayfm.obj
 0003:000443e4       ??_C@_0BA@DOONCFA@AKWR?3?5tmp_where?$AA@ 006d13e4     ParMETISLib:akwayfm.obj
 0003:000443f4       ??_C@_0BA@FIICAOHE@AKWR?3?5tmp_rinfo?$AA@ 006d13f4     ParMETISLib:akwayfm.obj
 0003:00044404       ??_C@_0BD@IKLEMFJM@AKWR?3?5tmp_edegrees?$AA@ 006d1404     ParMETISLib:akwayfm.obj
 0003:00044418       ??_C@_0CA@NMMPPKCI@InitMultisection?3?5agraph?9?$DOwhere?$AA@ 006d1418     ParMETISLib:initmsection.obj
 0003:00044438       ??_C@_0BE@LKBNNLBH@Unknown?5ISEP?5type?$CB?6?$AA@ 006d1438     ParMETISLib:initmsection.obj
 0003:0004444c       ??_C@_0BJ@BCGOLKOD@InitMultisection?3?5gwhere?$AA@ 006d144c     ParMETISLib:initmsection.obj
 0003:00044468       ??_C@_0BF@CHMKCBDO@InitPartition?3?5where?$AA@ 006d1468     ParMETISLib:initmsection.obj
 0003:00044480       ??_C@_0BN@PGHBAAGF@InitPartitionNew?3?5sendcounts?$AA@ 006d1480     ParMETISLib:initmsection.obj
 0003:000444a0       ??_C@_0BJ@ODLAMIMI@InitPartitionNew?3?5displs?$AA@ 006d14a0     ParMETISLib:initmsection.obj
 0003:000444bc       ??_C@_0BG@FCJOHNKC@AssembleGraph?3?5awhere?$AA@ 006d14bc     ParMETISLib:initmsection.obj
 0003:000444d4       ??_C@_0CD@DAEOGAI@AllocateNodePartitionParams?3?5rin@ 006d14d4     ParMETISLib:node_refine.obj
 0003:000444f8       ??_C@_0CE@NMMNMMCG@AllocateNodePartitionParams?3?5lpw@ 006d14f8     ParMETISLib:node_refine.obj
 0003:0004451c       ??_C@_0CE@NOMKJINM@AllocateNodePartitionParams?3?5gpw@ 006d151c     ParMETISLib:node_refine.obj
 0003:00044540       ??_C@_0CE@FIINLKDK@AllocateNodePartitionParams?3?5sep@ 006d1540     ParMETISLib:node_refine.obj
 0003:00044564       ??_C@_0CF@CAMFMBMO@AllocateNodePartitionParams?3?5hma@ 006d1564     ParMETISLib:node_refine.obj
 0003:0004458c       ??_C@_0CJ@ONDAPLIM@AllocateNodePartitionParams?3?5gra@ 006d158c     ParMETISLib:node_refine.obj
 0003:000445b8       ??_C@_0BE@NKFNPIMJ@KWayRefine?3?5changed?$AA@ 006d15b8     ParMETISLib:node_refine.obj
 0003:000445cc       ??_C@_0BD@BCPHBHCH@KWayRefine?3?5update?$AA@ 006d15cc     ParMETISLib:node_refine.obj
 0003:000445e0       ??_C@_0BF@JNPCONJE@KWayRefine?3?5nupds_pe?$AA@ 006d15e0     ParMETISLib:node_refine.obj
 0003:000445f8       ??_C@_0BE@PDCCBEGA@KWayRefine?3?5lhtable?$AA@ 006d15f8     ParMETISLib:node_refine.obj
 0003:0004460c       ??_C@_0BG@ONHHDDGA@?7?$FL?$CFd?5?$CFd?$FN?0?5?$FL?$CFd?5?$CFd?5?$CFd?$FN?6?$AA@ 006d160c     ParMETISLib:node_refine.obj
 0003:00044624       ??_C@_0CF@JFMJDIFL@K?9way?5sep?9refinement?3?5TotalSep?3?5@ 006d1624     ParMETISLib:node_refine.obj
 0003:0004464c       ??_C@_0BA@HJGJPOGM@?7TotalSep?3?5?$CFd?0?5?$AA@ 006d164c     ParMETISLib:node_refine.obj
 0003:0004465c       ??_C@_0BH@FCCBMNLD@?5?$FL?$CF5d?5?$CF5d?5?$CF5d?5?$CF5d?5?$CF5d?$FN?$AA@ 006d165c     ParMETISLib:node_refine.obj
 0003:00044674       ??_C@_03OFAPEBGM@?$CFs?6?$AA@ 006d1674     ParMETISLib:debug.obj
 0003:00044678       ??_C@_06FFPIBMJN@?7?$CF3d?4?5?$AA@ 006d1678     ParMETISLib:debug.obj
 0003:00044680       ??_C@_08GMLHGMGJ@?$FL?$CFd?5?$CFd?$FN?5?$AA@ 006d1680     ParMETISLib:debug.obj
 0003:0004468c       ??_C@_0M@NLLJPLEN@?$FL?$CFd?5?$CFd?4?$CFd?$FN?5?$AA@ 006d168c     ParMETISLib:debug.obj
 0003:00044698       ??_C@_0N@OOPJBNDP@?$FL?$CFd?5?$CFd?0?5?$CFd?$FN?5?$AA@ 006d1698     ParMETISLib:debug.obj
 0003:000446a8       ??_C@_03JMKEEFMB@?7?$CFd?$AA@ 006d16a8     ParMETISLib:debug.obj
 0003:000446ac       ??_C@_09FKKEAKIE@?7?$CF2d?5?$CF2d?7?$AA@ 006d16ac     ParMETISLib:debug.obj
 0003:000446b8       ??_C@_0L@KJOEONJL@?7?7?$CF2d?5?$CF2d?7?$AA@ 006d16b8     ParMETISLib:debug.obj
 0003:000446c4       ??_C@_0BF@LIIAJHGB@?7?$CF2d?5?$CF2d?5?$FL?$CFd?5?$CFd?5?$CFd?$FN?7?$AA@ 006d16c4     ParMETISLib:debug.obj
 0003:000446dc       ??_C@_0BG@PPMGKBMK@?7?7?$CF2d?5?$CF2d?5?$FL?$CFd?5?$CFd?5?$CFd?$FN?7?$AA@ 006d16dc     ParMETISLib:debug.obj
 0003:000446f4       ??_C@_0BD@OMPMPFHG@PE?3?5?$CFd?0?5nnbrs?3?5?$CFd?6?$AA@ 006d16f4     ParMETISLib:debug.obj
 0003:00044708       ??_C@_0N@CECFJMLK@?7Sending?4?4?4?6?$AA@ 006d1708     ParMETISLib:debug.obj
 0003:00044718       ??_C@_0L@DPPHICNP@?7?7To?3?5?$CFd?3?5?$AA@ 006d1718     ParMETISLib:debug.obj
 0003:00044724       ??_C@_0P@KMBPOFKP@?7Receiving?4?4?4?6?$AA@ 006d1724     ParMETISLib:debug.obj
 0003:00044734       ??_C@_0N@OEGAIPPM@?7?7From?3?5?$CFd?3?5?$AA@ 006d1734     ParMETISLib:debug.obj
 0003:00044744       ??_C@_0BC@HPNCLJNP@PE?3?5?$CFd?0?5nnbrs?3?5?$CFd?$AA@ 006d1744     ParMETISLib:debug.obj
 0003:00044758       ??_C@_08HFJOKCHC@?6?7To?5?$CFd?7?$AA@ 006d1758     ParMETISLib:debug.obj
 0003:00044764       ??_C@_0L@OJDLBBNL@?$CFd?5?$CFd?5?$CFd?0?5?$AA@ 006d1764     ParMETISLib:debug.obj
 0003:00044770       ??_C@_03GPBFEAEB@?6?7?7?$AA@ 006d1770     ParMETISLib:debug.obj
 0003:00044774       ??_C@_0L@MIJKFJAI@?6?7From?5?$CFd?7?$AA@ 006d1774     ParMETISLib:debug.obj
 0003:00044780       ??_C@_01NOFIACDB@w?$AA@    006d1780     ParMETISLib:debug.obj
 0003:00044784       ??_C@_0L@HPFHBHDJ@test?4graph?$AA@ 006d1784     ParMETISLib:debug.obj
 0003:00044790       ??_C@_08DCJJNJED@?$CFd?5?$CFd?511?$AA@ 006d1790     ParMETISLib:debug.obj
 0003:0004479c       ??_C@_04DONLAIBB@?6?$CFd?5?$AA@ 006d179c     ParMETISLib:debug.obj
 0003:000447a4       ??_C@_06JNINJID@?5?$CFd?5?$CFd?$AA@ 006d17a4     ParMETISLib:debug.obj
 0003:000447ac       ??_C@_04CHANNNJA@cand?$AA@ 006d17ac     ParMETISLib:serial.obj
 0003:000447b4       ??_C@_06HBCIGDGI@minwgt?$AA@ 006d17b4     ParMETISLib:serial.obj
 0003:000447bc       ??_C@_06HCNLIDCH@maxwgt?$AA@ 006d17bc     ParMETISLib:serial.obj
 0003:000447c4       ??_C@_07HFAOKMBO@sortvtx?$AA@ 006d17c4     ParMETISLib:serial.obj
 0003:000447cc       ??_C@_06KJNEFJCC@flowto?$AA@ 006d17cc     ParMETISLib:serial.obj
 0003:000447d4       ??_C@_05OAOMPKGM@moved?$AA@ 006d17d4     ParMETISLib:serial.obj
 0003:000447dc       ??_C@_05FLAAMPOP@swaps?$AA@ 006d17dc     ParMETISLib:serial.obj
 0003:000447e4       ??_C@_04KEPPPOPM@qnum?$AA@ 006d17e4     ParMETISLib:serial.obj
 0003:000447ec       ??_C@_04EONOHKEP@load?$AA@ 006d17ec     ParMETISLib:mdiffusion.obj
 0003:000447f4       ??_C@_0BH@NPDJIDKM@Mc_Diffusion?3?5proc2sub?$AA@ 006d17f4     ParMETISLib:mdiffusion.obj
 0003:0004480c       ??_C@_0BE@KEBMGEAI@Mc_Diffusion?3?5match?$AA@ 006d180c     ParMETISLib:mdiffusion.obj
 0003:00044820       ??_C@_0BF@PPLNLHOK@Mc_Diffusion?3?5rcount?$AA@ 006d1820     ParMETISLib:mdiffusion.obj
 0003:00044838       ??_C@_0BD@MHAJOAMC@Mc_Diffusion?3?5pack?$AA@ 006d1838     ParMETISLib:mdiffusion.obj
 0003:0004484c       ??_C@_0BI@PBCKJEIG@Mc_Diffusion?3?5workspace?$AA@ 006d184c     ParMETISLib:mdiffusion.obj
 0003:00044864       ??_C@_0BG@JKAIBEJ@Mc_Diffusion?3?5degrees?$AA@ 006d1864     ParMETISLib:mdiffusion.obj
 0003:0004487c       ??_C@_0BE@BAMCHMFA@Mc_Diffusion?3?5rinfo?$AA@ 006d187c     ParMETISLib:mdiffusion.obj
 0003:00044890       ??_C@_07FMIIELEH@visited?$AA@ 006d1890     ParMETISLib:mdiffusion.obj
 0003:00044898       ??_C@_05IMPABLAM@exadj?$AA@ 006d1898     ParMETISLib:mdiffusion.obj
 0003:000448a0       ??_C@_06PFCMBPE@envwgt?$AA@ 006d18a0     ParMETISLib:mdiffusion.obj
 0003:000448a8       ??_C@_07GFNMEO@eadjncy?$AA@ 006d18a8     ParMETISLib:mdiffusion.obj
 0003:000448b0       ??_C@_0BN@CBBOBDLE@WavefrontDiffusion?3?5solution?$AA@ 006d18b0     ParMETISLib:wave.obj
 0003:000448d0       ??_C@_0BJ@MDCIBIM@WavefrontDiffusion?3?5perm?$AA@ 006d18d0     ParMETISLib:wave.obj
 0003:000448ec       ??_C@_0BO@BLGOLDLP@WavefrontDiffusion?3?5workspace?$AA@ 006d18ec     ParMETISLib:wave.obj
 0003:0004490c       ??_C@_0BJ@GAOOBKNE@WavefrontDiffusion?3?5cand?$AA@ 006d190c     ParMETISLib:wave.obj
 0003:00044928       ??_C@_05DOEAAKIF@links?$AA@ 006d1928     ParMETISLib:csrmatch.obj
 0003:00044930       ??_C@_05MIOBCJBH@rdata?$AA@ 006d1930     ParMETISLib:redomylink.obj
 0003:00044938       ??_C@_04FOJGEOJC@hval?$AA@ 006d1938     ParMETISLib:balancemylink.obj
 0003:00044940       ??_C@_04DDFOBOGJ@nvpq?$AA@ 006d1940     ParMETISLib:balancemylink.obj
 0003:00044948       ??_C@_03PLHFFLIH@ptr?$AA@  006d1948     ParMETISLib:balancemylink.obj
 0003:0004494c       ??_C@_03OMPIDGPH@inq?$AA@  006d194c     ParMETISLib:balancemylink.obj
 0003:00044950       ??_C@_06DEFOOMAB@queues?$AA@ 006d1950     ParMETISLib:balancemylink.obj
 0003:00044958       ??_C@_0P@EBBMDHOE@KMETIS?3?5tpwgts?$AA@ 006d1958     METISLib:parmetis.obj
 0003:00044968       ??_C@_0O@JOFFLFAP@ONMETIS?3?5cptr?$AA@ 006d1968     METISLib:parmetis.obj
 0003:00044978       ??_C@_0O@LOGNDOGL@ONMETIS?3?5cind?$AA@ 006d1978     METISLib:parmetis.obj
 0003:00044988       ??_C@_0BL@JNEJNHIN@Nvtxs?3?5?$CF6d?0?5?$FL?$CF6d?5?$CF6d?5?$CF6d?$FN?6?$AA@ 006d1988     METISLib:parmetis.obj
 0003:000449a4       ??_C@_0CF@JLJPOMDH@Initial?5?$CFd?9way?5partitioning?5cut?3@ 006d19a4     METISLib:kmetis.obj
 0003:000449cc       ??_C@_0BA@PBBEHAKL@ONMETIS?3?5piperm?$AA@ 006d19cc     METISLib:ometis.obj
 0003:000449dc       ??_C@_0BP@BDBEADHD@MlevelNestedDissectionCC?3?5cptr?$AA@ 006d19dc     METISLib:ometis.obj
 0003:000449fc       ??_C@_0BP@DDCMIIBH@MlevelNestedDissectionCC?3?5cind?$AA@ 006d19fc     METISLib:ometis.obj
 0003:00044a1c       ??_C@_0CC@GBHCNMLB@MlevelNestedDissectionCC?3?5sgraph@ 006d1a1c     METISLib:ometis.obj
 0003:00044a40       ??_C@_0CA@BCCFFGL@MlevelNodeBisection2?3?5bestwhere?$AA@ 006d1a40     METISLib:ometis.obj
 0003:00044a60       ??_C@_0P@CICJANEB@MMDOrder?3?5perm?$AA@ 006d1a60     METISLib:ometis.obj
 0003:00044a70       ??_C@_0BC@LLHBJJEG@SetUpGraph?3?5gdata?$AA@ 006d1a70     METISLib:graph.obj
 0003:00044a84       ??_C@_0BC@NKPJPPBC@SetUpGraph?3?5nvwgt?$AA@ 006d1a84     METISLib:graph.obj
 0003:00044a98       ??_C@_0BC@KDKJPOBB@SetUpGraph?3?5label?$AA@ 006d1a98     METISLib:graph.obj
 0003:00044aac       ??_C@_0BK@FOJLOGFN@SetUpGraph2?3?5graph?9?$DOnvwgt?$AA@ 006d1aac     METISLib:graph.obj
 0003:00044ac8       ??_C@_0BB@FLMKCOIK@SetUpGraph?3?5vwgt?$AA@ 006d1ac8     METISLib:graph.obj
 0003:00044adc       ??_C@_0BF@HDKDFKOH@IsConnected?3?5touched?$AA@ 006d1adc     METISLib:graph.obj
 0003:00044af4       ??_C@_0BD@JMDAEBHP@IsConnected?3?5queue?$AA@ 006d1af4     METISLib:graph.obj
 0003:00044b08       ??_C@_0BC@HLMECIED@IsConnected?3?5cptr?$AA@ 006d1b08     METISLib:graph.obj
 0003:00044b1c       ??_C@_0DI@BCAGLLJP@The?5graph?5has?5?$CFd?5connected?5compo@ 006d1b1c     METISLib:graph.obj
 0003:00044b54       ??_C@_0L@OCCNJEMB@?$FL?$CF5d?5?$CF5d?$FN?5?$AA@ 006d1b54     METISLib:graph.obj
 0003:00044b60       ??_C@_0DO@OLGPDNHI@The?5graph?5is?5not?5connected?4?5It?5h@ 006d1b60     METISLib:graph.obj
 0003:00044ba0       ??_C@_0BK@NIKOGBMK@?$CFd?5connected?5components?3?7?$AA@ 006d1ba0     METISLib:graph.obj
 0003:00044bbc       ??_C@_06DIEFMHKK@?$FL?$CF5d?$FN?5?$AA@ 006d1bbc     METISLib:graph.obj
 0003:00044bc8       ??_C@_0EG@DCBFCKDP@?6Timing?5Information?5?9?9?9?9?9?9?9?9?9?9?9?9@ 006d1bc8     METISLib:timing.obj
 0003:00044c10       ??_C@_0BH@CAHMKFLG@?6?5Multilevel?3?5?7?7?5?$CF7?43f?$AA@ 006d1c10     METISLib:timing.obj
 0003:00044c28       ??_C@_0BL@KEBPPJCL@?6?5?5?5?5?5Coarsening?3?5?7?7?5?$CF7?43f?$AA@ 006d1c28     METISLib:timing.obj
 0003:00044c44       ??_C@_0CB@KGCNGKLN@?6?5?5?5?5?5?5?5?5?5?5?5?5Matching?3?5?7?7?7?5?$CF7?43f@ 006d1c44     METISLib:timing.obj
 0003:00044c68       ??_C@_0CB@EDGHLJJH@?6?5?5?5?5?5?5?5?5?5?5?5?5Contract?3?5?7?7?7?5?$CF7?43f@ 006d1c68     METISLib:timing.obj
 0003:00044c8c       ??_C@_0CB@JLBNLIJJ@?6?5?5?5?5?5Initial?5Partition?3?5?7?5?$CF7?43f@ 006d1c8c     METISLib:timing.obj
 0003:00044cb0       ??_C@_0CB@LCGJKIFE@?6?5?5?5Construct?5Separator?3?5?7?5?$CF7?43f@ 006d1cb0     METISLib:timing.obj
 0003:00044cd4       ??_C@_0BN@EDGIKOGK@?6?5?5?5?5?5Uncoarsening?3?5?7?7?5?$CF7?43f?$AA@ 006d1cd4     METISLib:timing.obj
 0003:00044cf4       ??_C@_0CB@JGMFNECD@?6?5?5?5?5?5?5?5?5?5?5Refinement?3?5?7?7?7?5?$CF7?43f@ 006d1cf4     METISLib:timing.obj
 0003:00044d18       ??_C@_0CB@PGGBJOAC@?6?5?5?5?5?5?5?5?5?5?5Projection?3?5?7?7?7?5?$CF7?43f@ 006d1d18     METISLib:timing.obj
 0003:00044d3c       ??_C@_0BK@ENOPPBHO@?6?5?5?5?5?5Splitting?3?5?7?7?5?$CF7?43f?$AA@ 006d1d3c     METISLib:timing.obj
 0003:00044d58       ??_C@_0BK@PPPLFLND@?6?5?5?5?5?5?5?5?5?5?5AUX1?3?5?7?7?5?$CF7?43f?$AA@ 006d1d58     METISLib:timing.obj
 0003:00044d74       ??_C@_0BK@IIGFIJCD@?6?5?5?5?5?5?5?5?5?5?5AUX2?3?5?7?7?5?$CF7?43f?$AA@ 006d1d74     METISLib:timing.obj
 0003:00044d90       ??_C@_0BK@BDMAMFEM@?6?5?5?5?5?5?5?5?5?5?5AUX3?3?5?7?7?5?$CF7?43f?$AA@ 006d1d90     METISLib:timing.obj
 0003:00044db0       ??_C@_0EH@JEEHBOLC@?6?$CK?$CK?$CK?$CK?$CK?$CK?$CK?$CK?$CK?$CK?$CK?$CK?$CK?$CK?$CK?$CK?$CK?$CK?$CK?$CK?$CK?$CK?$CK?$CK?$CK?$CK?$CK?$CK?$CK?$CK?$CK@ 006d1db0     METISLib:timing.obj
 0003:00044df8       ??_C@_0BC@MFBKKGEB@PWMETIS?3?5mytpwgts?$AA@ 006d1df8     METISLib:mpmetis.obj
 0003:00044e10       ??_C@_0GJ@CFEPHFAA@?7?$CK?$CK?$CKCannot?5bisect?5a?5graph?5with?50@ 006d1e10     METISLib:mpmetis.obj
 0003:00044e7c       ??_C@_0BM@DPPJDOFE@MCHMlevelRecursiveBisection?$AA@ 006d1e7c     METISLib:mpmetis.obj
 0003:00044e98       ??_C@_0BE@JNDFNHGI@CompressGraph?3?5mark?$AA@ 006d1e98     METISLib:compress.obj
 0003:00044eac       ??_C@_0BD@PPGBNNH@CompressGraph?3?5map?$AA@ 006d1eac     METISLib:compress.obj
 0003:00044ec0       ??_C@_0BE@BDFJMCCH@CompressGraph?3?5keys?$AA@ 006d1ec0     METISLib:compress.obj
 0003:00044ed4       ??_C@_0BF@DLPDGHB@CompressGraph?3?5gdata?$AA@ 006d1ed4     METISLib:compress.obj
 0003:00044eec       ??_C@_0BF@BLGHFBCG@CompressGraph?3?5label?$AA@ 006d1eec     METISLib:compress.obj
 0003:00044f04       ??_C@_0BB@BDAOKAKK@PruneGraph?3?5perm?$AA@ 006d1f04     METISLib:compress.obj
 0003:00044f18       ??_C@_0BC@DIBOGFKN@PruneGraph?3?5gdata?$AA@ 006d1f18     METISLib:compress.obj
 0003:00044f2c       ??_C@_0BH@IPLEMFKA@SetUpSplitGraph?3?5gdata?$AA@ 006d1f2c     METISLib:pmetis.obj
 0003:00044f44       ??_C@_0BH@OODMKDPE@SetUpSplitGraph?3?5nvwgt?$AA@ 006d1f44     METISLib:pmetis.obj
 0003:00044f5c       ??_C@_0BP@JIJBEKGK@SetUpSplitGraph?3?5sgraph?9?$DOlabel?$AA@ 006d1f5c     METISLib:pmetis.obj
 0003:00044f7c       ??_C@_0BM@BLNILIGB@AllocateWorkSpace?3?5edegrees?$AA@ 006d1f7c     METISLib:memory.obj
 0003:00044f98       ??_C@_0BI@IDAHMOHH@AllocateWorkSpace?3?5pmat?$AA@ 006d1f98     METISLib:memory.obj
 0003:00044fb0       ??_C@_0BN@CHBLJLCE@AllocateWorkSpace?3?5vedegrees?$AA@ 006d1fb0     METISLib:memory.obj
 0003:00044fd0       ??_C@_0BL@GABOIDPD@AllocateWorkSpace?3?5maxcore?$AA@ 006d1fd0     METISLib:memory.obj
 0003:00044fec       ??_C@_0CC@IPMEKGPO@ConstructMinCoverSeparator?3?5bxad@ 006d1fec     METISLib:separator.obj
 0003:00045010       ??_C@_0CE@JDDPJDHE@ConstructMinCoverSeparator?3?5badj@ 006d2010     METISLib:separator.obj
 0003:00045034       ??_C@_0DM@LFNDHCJB@Nvtxs?3?5?$CF6d?0?5?$FL?$CF5d?5?$CF5d?$FN?0?5Cut?3?5?$CF6d?0@ 006d2034     METISLib:separator.obj
 0003:00045070       ??_C@_0BI@OLIJKLHB@RefineKWay?3?5graph?9?$DOvwgt?$AA@ 006d2070     METISLib:kwayrefine.obj
 0003:00045088       ??_C@_0BK@LMPFABCD@RefineKWay?3?5graph?9?$DOadjwgt?$AA@ 006d2088     METISLib:kwayrefine.obj
 0003:000450a4       ??_C@_0CD@LJGDPGPG@AllocateKWayPartitionMemory?3?5rda@ 006d20a4     METISLib:kwayrefine.obj
 0003:000450c8       ??_C@_0BG@DHLOACDJ@?$CF6d?5?$CF7d?5?$FL?$CFd?$FN?5?$FL?$CFd?5?$CFd?$FN?6?$AA@ 006d20c8     METISLib:coarsen.obj
 0003:000450e0       ??_C@_0BD@IBDLBNDB@Unknown?5CType?3?5?$CFd?6?$AA@ 006d20e0     METISLib:coarsen.obj
 0003:000450f4       ??_C@_06PPJGLMAC@adjwgt?$AA@ 006d20f4     METISLib:stat.obj
 0003:000450fc       ??_C@_0BM@ILGIKBPE@?$CFd?9way?5Cut?3?5?$CF5d?0?5Vol?3?5?$CF5d?0?5?$AA@ 006d20fc     METISLib:stat.obj
 0003:00045118       ??_C@_0BN@LHNCDCAL@ComputePartitionInfo?3?5kpwgts?$AA@ 006d2118     METISLib:stat.obj
 0003:00045138       ??_C@_0BO@EOKMIOMD@?7Balance?3?5?$CF5?43f?5out?5of?5?$CF5?43f?6?$AA@ 006d2138     METISLib:stat.obj
 0003:00045158       ??_C@_09OHNPILPK@?7Balance?3?$AA@ 006d2158     METISLib:stat.obj
 0003:00045164       ??_C@_0BG@OMLPFKGC@?5?$CI?$CF5?43f?5out?5of?5?$CF5?43f?$CJ?$AA@ 006d2164     METISLib:stat.obj
 0003:0004517c       ??_C@_0BO@NHLANDAN@ComputePartitionInfo?3?5padjncy?$AA@ 006d217c     METISLib:stat.obj
 0003:0004519c       ??_C@_0BO@EIAGBNIJ@ComputePartitionInfo?3?5padjwgt?$AA@ 006d219c     METISLib:stat.obj
 0003:000451c0       ??_C@_0ED@DLPHIEHB@Min?1Max?1Avg?1Bal?5?$CD?5of?5adjacent?5?5?5@ 006d21c0     METISLib:stat.obj
 0003:00045208       ??_C@_0EB@MNCIICJD@Min?1Max?1Avg?1Bal?5?$CD?5of?5adjacent?5su@ 006d2208     METISLib:stat.obj
 0003:00045250       ??_C@_0EH@NHGEKNCG@Min?1Max?1Avg?1Bal?1Frac?5?$CD?5of?5interf@ 006d2250     METISLib:stat.obj
 0003:00045298       ??_C@_0EB@JPJEELOI@Min?1Max?1Avg?1Bal?5?$CD?5of?5adjacent?5?5?5@ 006d2298     METISLib:stat.obj
 0003:000452dc       ??_C@_0BO@GKBMMLNF@ComputeElementBalance?3?5kpwgts?$AA@ 006d22dc     METISLib:stat.obj
 0003:000452fc       ??_C@_0CE@KCNJKHJP@Unknown?5initial?5partition?5type?3?5@ 006d22fc     METISLib:initpart.obj
 0003:00045320       ??_C@_0BB@KGNLIGNA@Initial?5Cut?3?5?$CFd?6?$AA@ 006d2320     METISLib:initpart.obj
 0003:00045334       ??_C@_0BB@ICOPNBJJ@Initial?5Sep?3?5?$CFd?6?$AA@ 006d2334     METISLib:initpart.obj
 0003:00045348       ??_C@_0BH@MJEIMIKG@BisectGraph?3?5bestwhere?$AA@ 006d2348     METISLib:initpart.obj
 0003:00045360       ??_C@_0BD@DDKGEIII@BisectGraph?3?5queue?$AA@ 006d2360     METISLib:initpart.obj
 0003:00045374       ??_C@_0BF@FBICDKKP@BisectGraph?3?5touched?$AA@ 006d2374     METISLib:initpart.obj
 0003:0004538c       ??_C@_0CA@FDMANHHM@GrowBisectionNode?3?5graph?9?$DOrdata?$AA@ 006d238c     METISLib:initpart.obj
 0003:000453ac       ??_C@_0CD@FFFDGNNH@Allocate2WayPartitionMemory?3?5rda@ 006d23ac     METISLib:srefine.obj
 0003:000453d0       ??_C@_0BN@BDOCPMGK@Unknown?5refinement?5type?3?5?$CFd?6?$AA@ 006d23d0     METISLib:refine.obj
 0003:000453f0       ??_C@_0BJ@OHBJCAGO@?$CF6d?5?$CF7d?5?$CF10d?5?$FL?$CFd?$FN?5?$FL?$CF6?44f?$AA@ 006d23f0     METISLib:mcoarsen.obj
 0003:0004540c       ??_C@_06MGOJPFIL@?5?$CF5?43f?$AA@ 006d240c     METISLib:mcoarsen.obj
 0003:00045414       ??_C@_08NMEHMEHC@Parts?3?5?$FL?$AA@ 006d2414     METISLib:minitpart2.obj
 0003:00045420       ??_C@_0O@IFBNBLCE@?$CI?$CF?43f?0?5?$CF?43f?$CJ?5?$AA@ 006d2420     METISLib:minitpart2.obj
 0003:00045430       ??_C@_0DK@BFLHKLFH@?$FN?5T?$FL?$CF?43f?5?$CF?43f?$FN?0?5Nv?9Nb?$FL?$CF5d?0?5?$CF5d?$FN?4@ 006d2430     METISLib:minitpart2.obj
 0003:0004546c       ??_C@_0CL@NGBNPNPH@Moved?5?$CF6d?5from?5?$CFd?$CI?$CFd?$CJ?4?5?$FL?$CF5d?$FN?5?$CF5d@ 006d246c     METISLib:minitpart2.obj
 0003:00045498       ??_C@_0M@MNGEJHAP@?0?5LB?3?5?$CF?43f?6?$AA@ 006d2498     METISLib:minitpart2.obj
 0003:000454a4       ??_C@_0BN@BBMPAMGF@?7?5Pulled?5from?5the?5interior?$CB?6?$AA@ 006d24a4     METISLib:minitpart2.obj
 0003:000454c4       ??_C@_0BN@ELLBLCOI@What?5you?5thought?5was?5wrong?$CB?6?$AA@ 006d24c4     METISLib:minitpart2.obj
 0003:000454e4       ??_C@_0CC@CNBCACII@?7Mincut?3?5?$CF6d?0?5NBND?3?5?$CF6d?0?5NPwgts?3@ 006d24e4     METISLib:minitpart2.obj
 0003:00045508       ??_C@_06INBADCE@npwgts?$AA@ 006d2508     METISLib:mrefine.obj
 0003:00045510       ??_C@_0BC@GOIGKLDJ@BisectGraph?3?5perm?$AA@ 006d2510     METISLib:minitpart.obj
 0003:00045524       ??_C@_0BH@LPBMBPOE@Something?5went?5wrong?$CB?6?$AA@ 006d2524     METISLib:myqsort.obj
 0003:0004553c       ??_C@_0P@ONLFHABH@MinCover?3?5mate?$AA@ 006d253c     METISLib:mincover.obj
 0003:0004554c       ??_C@_0P@EANEJKMC@MinCover?3?5flag?$AA@ 006d254c     METISLib:mincover.obj
 0003:0004555c       ??_C@_0BA@NOKDKJPC@MinCover?3?5level?$AA@ 006d255c     METISLib:mincover.obj
 0003:0004556c       ??_C@_0BA@IOEDMPHN@MinCover?3?5queue?$AA@ 006d256c     METISLib:mincover.obj
 0003:0004557c       ??_C@_0O@JHDFLCCM@MinCover?3?5lst?$AA@ 006d257c     METISLib:mincover.obj
 0003:0004558c       ??_C@_0CA@HLJPIPLI@?6Something?5wrong?0?5flag?$FL?$CFd?$FN?5is?51?$AA@ 006d258c     METISLib:mincover.obj
 0003:000455ac       ??_C@_0BK@LFMIILN@MinCover_Decompose?3?5where?$AA@ 006d25ac     METISLib:mincover.obj
 0003:000455c8       ??_C@_0DB@CNECHFFH@Partitions?3?5?$FL?$CF6d?5?$CF6d?$FN?5Nv?9Nb?$FL?$CF6d?5@ 006d25c8     METISLib:sfm.obj
 0003:000455fc       ??_C@_0DM@GLNJCEH@Moved?5?$CF6d?5to?5?$CF3d?0?5Gain?3?5?$CF5d?5?$FL?$CF5d@ 006d25fc     METISLib:sfm.obj
 0003:00045638       ??_C@_0DH@JPBNLKKC@?7Minimum?5sep?3?5?$CF6d?5at?5?$CF5d?0?5PWGTS?3@ 006d2638     METISLib:sfm.obj
 0003:00045670       ??_C@_0DE@KCNNMFHH@Partitions?9N1?3?5?$FL?$CF6d?5?$CF6d?$FN?5Nv?9Nb?$FL?$CF@ 006d2670     METISLib:sfm.obj
 0003:000456a4       ??_C@_0DM@CMFHJNJA@Moved?5?$CF6d?5to?5?$CF3d?0?5Gain?3?5?$CF5d?5?$FL?$CF5d@ 006d26a4     METISLib:sfm.obj
 0003:000456e0       ??_C@_0DF@MFBCPBAH@Partitions?3?5?$FL?$CF6d?5?$CF6d?$FN?5Nv?9Nb?$FL?$CF6d?5@ 006d26e0     METISLib:sfm.obj
 0003:00045718       ??_C@_0CN@EEABPJCC@Moved?5?$CF6d?5to?5?$CF3d?0?5Gain?3?5?$CF3d?0?5?7?$FL?$CF@ 006d2718     METISLib:sfm.obj
 0003:00045748       ??_C@_0DI@FJPONEDO@?7Balanced?5sep?3?5?$CF6d?5at?5?$CF4d?0?5PWGTS@ 006d2748     METISLib:sfm.obj
 0003:00045780       ??_C@_0EL@MLEEGKKP@Partitions?3?5?$FL?$CF6d?5?$CF6d?$FN?9?$FL?$CF6d?5?$CF6d?$FN?0@ 006d2780     METISLib:subdomains.obj
 0003:000457cc       ??_C@_0CK@IANICFNE@?7?7Moving?5?$CF6d?5to?5?$CF3d?4?5Gain?3?5?$CF4d?4?5@ 006d27cc     METISLib:subdomains.obj
 0003:000457f8       ??_C@_0CI@OOABJANJ@You?5just?5increased?5the?5maxndoms?3@ 006d27f8     METISLib:subdomains.obj
 0003:00045820       ??_C@_0EK@NBAKBLNE@?7?$FL?$CF6d?5?$CF6d?$FN?0?5Balance?3?5?$CF5?43f?0?5Nb?3?5@ 006d2820     METISLib:subdomains.obj
 0003:00045870       ??_C@_0EP@IOIJMLMJ@Partitions?3?5?$FL?$CF6d?5?$CF6d?$FN?9?$FL?$CF6d?5?$CF6d?$FN?0@ 006d2870     METISLib:subdomains.obj
 0003:000458c0       ??_C@_0EA@NCNIOGFL@?7?$FL?$CF6d?5?$CF6d?$FN?0?5Balance?3?5?$CF5?43f?0?5Nb?3?5@ 006d28c0     METISLib:subdomains.obj
 0003:00045900       ??_C@_0BM@OOLABICK@ComputeSubDomainGraph?3?5pmat?$AA@ 006d2900     METISLib:subdomains.obj
 0003:0004591c       ??_C@_0CI@IBIAPMLM@Total?5adjacent?5subdomains?3?5?$CFd?0?5M@ 006d291c     METISLib:subdomains.obj
 0003:00045944       ??_C@_0BO@GILAKIFO@EliminateSubDomainEdges?3?5cand?$AA@ 006d2944     METISLib:subdomains.obj
 0003:00045968       ??_C@_0EG@EHHAMAEM@?7?$FL?$CF6d?5?$CF6d?$FN?0?5Balance?3?5?$CF5?43f?0?5Nb?3?5@ 006d2968     METISLib:kwayfm.obj
 0003:000459b0       ??_C@_0CP@ODCMPINC@?7?$FL?$CF6d?5?$CF6d?$FN?0?5Balance?3?5?$CF5?43f?0?5Nb?3?5@ 006d29b0     METISLib:kwayfm.obj
 0003:000459e0       ??_C@_0DM@GJEHPPI@?7?$FL?$CF6d?5?$CF6d?$FN?0?5Balance?3?5?$CF5?43f?0?5Nb?3?5@ 006d29e0     METISLib:kwayfm.obj
 0003:00045a1c       ??_C@_0CP@CLLCOHIG@Something?5wrong?5with?5edegrees?3?5?$CF@ 006d2a1c     METISLib:debug.obj
 0003:00045a4c       ??_C@_0DG@DKBAHLBM@Something?5wrong?5with?5part?9weight@ 006d2a4c     METISLib:debug.obj
 0003:00045a84       ??_C@_0BN@LPPGGKPB@Random_KWayVolRefine?3?5updind?$AA@ 006d2a84     METISLib:kwayvolfm.obj
 0003:00045aa4       ??_C@_0BN@HGCJJJPJ@Random_KWayVolRefine?3?5marker?$AA@ 006d2aa4     METISLib:kwayvolfm.obj
 0003:00045ac4       ??_C@_0BO@LJDNNAJF@Random_KWayVolRefine?3?5phtable?$AA@ 006d2ac4     METISLib:kwayvolfm.obj
 0003:00045ae8       ??_C@_0FC@CAEOKGOP@VolPart?3?5?$FL?$CF5d?5?$CF5d?$FN?9?$FL?$CF5d?5?$CF5d?$FN?0?5Ba@ 006d2ae8     METISLib:kwayvolfm.obj
 0003:00045b40       ??_C@_0ED@DBBCFLPH@?7?7Moving?5?$CF6d?5from?5?$CF3d?5to?5?$CF3d?4?5Ga@ 006d2b40     METISLib:kwayvolfm.obj
 0003:00045b88       ??_C@_0FG@EABPCPKK@VolPart?3?5?$FL?$CF5d?5?$CF5d?$FN?9?$FL?$CF5d?5?$CF5d?$FN?0?5Ba@ 006d2b88     METISLib:kwayvolfm.obj
 0003:00045be0       ??_C@_0BG@LGPFLOBM@ComputeVolume?3?5marker?$AA@ 006d2be0     METISLib:kwayvolfm.obj
 0003:00045bf8       ??_C@_0CI@FCEKLCID@CheckVolKWayPartitionParams?3?5tmp@ 006d2bf8     METISLib:kwayvolfm.obj
 0003:00045c20       ??_C@_0P@KAOGFCNG@?$FL?$CFd?5?$CFd?5?$CFd?5?$CFd?$FN?6?$AA@ 006d2c20     METISLib:kwayvolfm.obj
 0003:00045c30       ??_C@_0BB@EHGBJMBE@Something?5wrong?6?$AA@ 006d2c30     METISLib:kwayvolfm.obj
 0003:00045c48       ??_C@_0EB@PBNKJFOO@Partitions?3?5?$FL?$CF6d?5?$CF6d?$FN?5T?$FL?$CF6d?5?$CF6d?$FN@ 006d2c48     METISLib:balance.obj
 0003:00045c8c       ??_C@_0CM@CHEMIJBM@Moved?5?$CF6d?5from?5?$CFd?4?5?$FL?$CF3d?5?$CF3d?$FN?5?$CF5d@ 006d2c8c     METISLib:balance.obj
 0003:00045cb8       ??_C@_0DA@DLLPLDIH@?7Minimum?5cut?3?5?$CF6d?0?5PWGTS?3?5?$FL?$CF6d?5?$CF@ 006d2cb8     METISLib:balance.obj
 0003:00045ce8       ??_C@_0DN@FLLAIOFE@Partitions?3?5?$FL?$CF6d?5?$CF6d?$FN?5T?$FL?$CF6d?5?$CF6d?$FN@ 006d2ce8     METISLib:fm.obj
 0003:00045d28       ??_C@_0DH@JPCMFIFA@?7Minimum?5cut?3?5?$CF6d?5at?5?$CF5d?0?5PWGTS?3@ 006d2d28     METISLib:fm.obj
 0003:00045d60       ??_C@_0BC@ECAKEGBA@Unknown?5norm?3?5?$CFd?6?$AA@ 006d2d60     METISLib:mmatch.obj
 0003:00045d74       ??_C@_0BJ@LLNCEKIP@PQueueInit?3?5queue?9?$DOnodes?$AA@ 006d2d74     METISLib:pqueue.obj
 0003:00045d90       ??_C@_0BL@DOLOCNDE@PQueueInit?3?5queue?9?$DObuckets?$AA@ 006d2d90     METISLib:pqueue.obj
 0003:00045dac       ??_C@_0DB@MPEKJLJF@?$FN?5T?$FL?$CF?43f?5?$CF?43f?$FN?0?5Nv?9Nb?$FL?$CF5d?0?5?$CF5d?$FN?4@ 006d2dac     METISLib:mfm2.obj
 0003:00045de0       ??_C@_0DF@HFFILMOB@Moved?5?$CF6d?5from?5?$CFd?$CI?$CFd?$CJ?4?5Gain?3?5?$CF5d@ 006d2de0     METISLib:mfm2.obj
 0003:00045e18       ??_C@_06HNEEBHEF@?0?5LB?3?5?$AA@ 006d2e18     METISLib:mfm2.obj
 0003:00045e20       ??_C@_03LBLMKEGB@?5?$CK?6?$AA@ 006d2e20     METISLib:mfm2.obj
 0003:00045e24       ??_C@_0CK@DBFIOFHI@?7Mincut?3?5?$CF6d?5at?5?$CF5d?0?5NBND?3?5?$CF6d?0?5@ 006d2e24     METISLib:mfm2.obj
 0003:00045e50       ??_C@_07ELCJPBEF@?$FN?0?5LB?3?5?$AA@ 006d2e50     METISLib:mfm2.obj
 0003:00045e58       ??_C@_04NJIIDDOH@?$FLB?$FN?6?$AA@ 006d2e58     METISLib:mbalance2.obj
 0003:00045e60       ??_C@_0DG@DPHDAAOF@?$FN?5T?$FL?$CF?43f?5?$CF?43f?$FN?0?5Nv?9Nb?$FL?$CF5d?0?5?$CF5d?$FN?4@ 006d2e60     METISLib:mfm.obj
 0003:00045e98       ??_C@_0BB@OIAPCDG@?0?5?$CF?43f?5LB?3?5?$CF?43f?6?$AA@ 006d2e98     METISLib:mfm.obj
 0003:00045eac       ??_C@_0N@PHGDEAON@?$FN?0?5LB?3?5?$CF?43f?6?$AA@ 006d2eac     METISLib:mfm.obj
 0003:00045ebc       ??_C@_0BK@KIDJNADK@BucketSortKeysInc?3?5counts?$AA@ 006d2ebc     METISLib:bucketsort.obj
 0003:00045ed8       ??_C@_0BI@EBJEAEME@SetUpCoarseGraph?3?5gdata?$AA@ 006d2ed8     METISLib:ccgraph.obj
 0003:00045ef0       ??_C@_0BI@CABMGCJA@SetUpCoarseGraph?3?5nvwgt?$AA@ 006d2ef0     METISLib:ccgraph.obj
 0003:00045f08       __real@3fe6666666666666    006d2f08      CIL library: CIL module
 0003:00045f10       __real@3ff0000000000000    006d2f10      CIL library: CIL module
 0003:00045f18       __real@00000000            006d2f18      CIL library: CIL module
 0003:00045f20       __real@4000000000000000    006d2f20      CIL library: CIL module
 0003:00045f28       __real@3f800000            006d2f28      CIL library: CIL module
 0003:00045f30       __real@3f00000000000000    006d2f30      CIL library: CIL module
 0003:00045f38       __real@408f400000000000    006d2f38      CIL library: CIL module
 0003:00045f40       __real@0000000000000000    006d2f40      CIL library: CIL module
 0003:00045f48       __real@bf00000000000000    006d2f48      CIL library: CIL module
 0003:00045f50       __real@bf800000            006d2f50      CIL library: CIL module
 0003:00045f54       __real@c7c35000            006d2f54      CIL library: CIL module
 0003:00045f58       __real@3ee4f8b588e368f1    006d2f58      CIL library: CIL module
 0003:00045f60       __real@bff0000000000000    006d2f60      CIL library: CIL module
 0003:00045f68       __real@3fd3333333333333    006d2f68      CIL library: CIL module
 0003:00045f70       __real@3f747ae147ae147b    006d2f70      CIL library: CIL module
 0003:00045f78       __real@3fc999999999999a    006d2f78      CIL library: CIL module
 0003:00045f80       __real@4059000000000000    006d2f80      CIL library: CIL module
 0003:00045f88       __real@402e000000000000    006d2f88      CIL library: CIL module
 0003:00045f90       __real@3f847ae147ae147b    006d2f90      CIL library: CIL module
 0003:00045f98       __real@3ff8000000000000    006d2f98      CIL library: CIL module
 0003:00045fa0       __real@3ff4000000000000    006d2fa0      CIL library: CIL module
 0003:00045fa8       __real@3ff6666666666666    006d2fa8      CIL library: CIL module
 0003:00045fb0       __real@3fe0000000000000    006d2fb0      CIL library: CIL module
 0003:00045fb8       __real@3feb333333333333    006d2fb8      CIL library: CIL module
 0003:00045fc0       __real@3fa1eb851eb851ec    006d2fc0      CIL library: CIL module
 0003:00045fc8       __real@3a83126f            006d2fc8      CIL library: CIL module
 0003:00045fd0       __real@3fe8000000000000    006d2fd0      CIL library: CIL module
 0003:00045fd8       __real@3fd6666660000000    006d2fd8      CIL library: CIL module
 0003:00045fe0       __real@3ff4cccccccccccd    006d2fe0      CIL library: CIL module
 0003:00045fe8       __real@4062c00000000000    006d2fe8      CIL library: CIL module
 0003:00045ff0       __real@4039000000000000    006d2ff0      CIL library: CIL module
 0003:00045ff8       __real@447a0000            006d2ff8      CIL library: CIL module
 0003:00046000       __real@412e848000000000    006d3000      CIL library: CIL module
 0003:00046008       __real@3f866666            006d3008      CIL library: CIL module
 0003:00046010       __real@3fd0000000000000    006d3010      CIL library: CIL module
 0003:00046018       __real@bf847ae147ae147b    006d3018      CIL library: CIL module
 0003:00046020       __real@3f828f5c            006d3020      CIL library: CIL module
 0003:00046024       __real@3f8147ae            006d3024      CIL library: CIL module
 0003:00046028       __real@3f83d70a            006d3028      CIL library: CIL module
 0003:00046030       __real@3feccccccccccccd    006d3030      CIL library: CIL module
 0003:00046038       __real@3ff0a3d70a3d70a4    006d3038      CIL library: CIL module
 0003:00046040       __real@3fa00000            006d3040      CIL library: CIL module
 0003:00046048       __real@3ff028f5c28f5c29    006d3048      CIL library: CIL module
 0003:00046050       __real@3c75c28f            006d3050      CIL library: CIL module
 0003:00046054       __real@3f8ccccd            006d3054      CIL library: CIL module
 0003:00046058       __real@3fb999999999999a    006d3058      CIL library: CIL module
 0003:00046060       __real@3fa999999999999a    006d3060      CIL library: CIL module
 0003:00046068       __real@41200000            006d3068      CIL library: CIL module
 0003:00046070       __real@bee4f8b588e368f1    006d3070      CIL library: CIL module
 0003:00046078       __real@3ff199999999999a    006d3078      CIL library: CIL module
 0003:00046080       __real@3ff0cccccccccccd    006d3080      CIL library: CIL module
 0003:00046088       __real@408ff80000000000    006d3088      CIL library: CIL module
 0003:00046090       __real@3f9999999999999a    006d3090      CIL library: CIL module
 0003:00046098       __real@42c80000            006d3098      CIL library: CIL module
 0003:000460a0       __real@3ffa8f5c28f5c28f    006d30a0      CIL library: CIL module
 0003:000460a8       __real@3ff3333333333333    006d30a8      CIL library: CIL module
 0003:000460b0       __load_config_used         006d30b0     LIBCMT:loadcfg.obj
 0003:00046160       ___safe_se_handler_table   006d3160     <linker-defined>
 0003:00046170       ___rtc_iaa                 006d3170     LIBCMT:_initsect_.obj
 0003:00046174       ___rtc_izz                 006d3174     LIBCMT:_initsect_.obj
 0003:00046178       ___rtc_taa                 006d3178     LIBCMT:_initsect_.obj
 0003:0004617c       ___rtc_tzz                 006d317c     LIBCMT:_initsect_.obj
 0003:00046a30       __IMPORT_DESCRIPTOR_msmpi  006d3a30     ParMETISLib:msmpi.dll
 0003:00046a44       __IMPORT_DESCRIPTOR_netcdf 006d3a44     netcdf:netcdf.dll
 0003:00046a58       __IMPORT_DESCRIPTOR_KERNEL32 006d3a58     kernel32:KERNEL32.dll
 0003:00046a6c       __IMPORT_DESCRIPTOR_imagehlp 006d3a6c     ImageHlp:imagehlp.dll
 0003:00046a80       __NULL_IMPORT_DESCRIPTOR   006d3a80     ParMETISLib:msmpi.dll
 0004:00000080       _ELFE_GLBL_mp_DATA_FORMAT  006d7080     elfe_glbl.obj
 0004:000000b0       _ELFE_GLBL_mp_RHOAJ        006d70b0     elfe_glbl.obj
 0004:000000d8       _ELFE_GLBL_mp_CAJ          006d70d8     elfe_glbl.obj
 0004:00000100       _ELFE_GLBL_mp_SAJ          006d7100     elfe_glbl.obj
 0004:00000128       _ELFE_GLBL_mp_TAJ          006d7128     elfe_glbl.obj
 0004:00000150       _ELFE_GLBL_mp_VOLJ         006d7150     elfe_glbl.obj
 0004:00000178       _ELFE_GLBL_mp_XMV          006d7178     elfe_glbl.obj
 0004:000001a8       _ELFE_GLBL_mp_XMC          006d71a8     elfe_glbl.obj
 0004:000001d8       _ELFE_GLBL_mp_XMS          006d71d8     elfe_glbl.obj
 0004:00000208       _ELFE_GLBL_mp_XMT          006d7208     elfe_glbl.obj
 0004:00000238       _ELFE_GLBL_mp_IEJ          006d7238     elfe_glbl.obj
 0004:00000268       _ELFE_GLBL_mp_EJ           006d7268     elfe_glbl.obj
 0004:00000298       _ELFE_GLBL_mp_OFE          006d7298     elfe_glbl.obj
 0004:000002c0       _ELFE_GLBL_mp_CDP          006d72c0     elfe_glbl.obj
 0004:000002e8       _ELFE_GLBL_mp_RHO_MEAN     006d72e8     elfe_glbl.obj
 0004:00000318       _ELFE_GLBL_mp_CSPLINE_YPP  006d7318     elfe_glbl.obj
 0004:00000348       _ELFE_GLBL_mp_SAL1         006d7348     elfe_glbl.obj
 0004:00000370       _ELFE_GLBL_mp_TEM1         006d7370     elfe_glbl.obj
 0004:00000398       _ELFE_GLBL_mp_Z_R          006d7398     elfe_glbl.obj
 0004:000003c0       _ELFE_GLBL_mp_ALBEDO       006d73c0     elfe_glbl.obj
 0004:000003e8       _ELFE_GLBL_mp_AKRMAT_ND    006d73e8     elfe_glbl.obj
 0004:00000428       _ELFE_GLBL_mp_ITIER_ND     006d7428     elfe_glbl.obj
 0004:00000458       _ELFE_GLBL_mp_DFH          006d7458     elfe_glbl.obj
 0004:00000488       _ELFE_GLBL_mp_BDEF2        006d7488     elfe_glbl.obj
 0004:000004b0       _ELFE_GLBL_mp_BDEF1        006d74b0     elfe_glbl.obj
 0004:000004d8       _ELFE_GLBL_mp_BDEF         006d74d8     elfe_glbl.obj
 0004:00000500       _ELFE_GLBL_mp_WW2          006d7500     elfe_glbl.obj
 0004:00000530       _ELFE_GLBL_mp_VV2          006d7530     elfe_glbl.obj
 0004:00000560       _ELFE_GLBL_mp_UU2          006d7560     elfe_glbl.obj
 0004:00000590       _ELFE_GLBL_mp_XLMIN2       006d7590     elfe_glbl.obj
 0004:000005b8       _ELFE_GLBL_mp_XL           006d75b8     elfe_glbl.obj
 0004:000005e8       _ELFE_GLBL_mp_Q2           006d75e8     elfe_glbl.obj
 0004:00000618       _ELFE_GLBL_mp_PRHO         006d7618     elfe_glbl.obj
 0004:00000648       _ELFE_GLBL_mp_SND          006d7648     elfe_glbl.obj
 0004:00000678       _ELFE_GLBL_mp_TND          006d7678     elfe_glbl.obj
 0004:000006a8       _ELFE_GLBL_mp_SSD          006d76a8     elfe_glbl.obj
 0004:000006d8       _ELFE_GLBL_mp_TSD          006d76d8     elfe_glbl.obj
 0004:00000708       _ELFE_GLBL_mp_VFG          006d7708     elfe_glbl.obj
 0004:00000748       _ELFE_GLBL_mp_UFG          006d7748     elfe_glbl.obj
 0004:00000788       _ELFE_GLBL_mp_SV2          006d7788     elfe_glbl.obj
 0004:000007b8       _ELFE_GLBL_mp_SU2          006d77b8     elfe_glbl.obj
 0004:000007e8       _ELFE_GLBL_mp_WE_FV        006d77e8     elfe_glbl.obj
 0004:00000818       _ELFE_GLBL_mp_WE           006d7818     elfe_glbl.obj
 0004:00000848       _ELFE_GLBL_mp_ETA2         006d7848     elfe_glbl.obj
 0004:00000870       _ELFE_GLBL_mp_ETA1         006d7870     elfe_glbl.obj
 0004:00000898       _ELFE_GLBL_mp_SAL0         006d7898     elfe_glbl.obj
 0004:000008c8       _ELFE_GLBL_mp_TEM0         006d78c8     elfe_glbl.obj
 0004:000008f8       _ELFE_GLBL_mp_HDIF         006d78f8     elfe_glbl.obj
 0004:00000928       _ELFE_GLBL_mp_FLX_BT       006d7928     elfe_glbl.obj
 0004:00000958       _ELFE_GLBL_mp_FLX_SF       006d7958     elfe_glbl.obj
 0004:00000988       _ELFE_GLBL_mp_BDY_FRC      006d7988     elfe_glbl.obj
 0004:000009c8       _ELFE_GLBL_mp_TR_EL        006d79c8     elfe_glbl.obj
 0004:00000a08       _ELFE_GLBL_mp_TSEL         006d7a08     elfe_glbl.obj
 0004:00000a48       _ELFE_GLBL_mp_ILND         006d7a48     elfe_glbl.obj
 0004:00000a78       _ELFE_GLBL_mp_NLND         006d7a78     elfe_glbl.obj
 0004:00000aa0       _ELFE_GLBL_mp_ILND_GLOBAL  006d7aa0     elfe_glbl.obj
 0004:00000ad0       _ELFE_GLBL_mp_NLND_GLOBAL  006d7ad0     elfe_glbl.obj
 0004:00000af8       _ELFE_GLBL_mp_CWIDTH       006d7af8     elfe_glbl.obj
 0004:00000b20       _ELFE_GLBL_mp_IOND_GLOBAL  006d7b20     elfe_glbl.obj
 0004:00000b50       _ELFE_GLBL_mp_NOND_GLOBAL  006d7b50     elfe_glbl.obj
 0004:00000b78       _ELFE_GLBL_mp_IOND         006d7b78     elfe_glbl.obj
 0004:00000ba8       _ELFE_GLBL_mp_NOND         006d7ba8     elfe_glbl.obj
 0004:00000bd0       _ELFE_GLBL_mp_IOPEGL       006d7bd0     elfe_glbl.obj
 0004:00000c00       _ELFE_GLBL_mp_IOPELG       006d7c00     elfe_glbl.obj
 0004:00000c28       _ELFE_GLBL_mp_SIDE_X       006d7c28     elfe_glbl.obj
 0004:00000c58       _ELFE_GLBL_mp_SIDE_AC      006d7c58     elfe_glbl.obj
 0004:00000c98       _ELFE_GLBL_mp_ZS           006d7c98     elfe_glbl.obj
 0004:00000cc8       _ELFE_GLBL_mp_ISIDENEI2    006d7cc8     elfe_glbl.obj
 0004:00000cf8       _ELFE_GLBL_mp_ISIDENEI     006d7cf8     elfe_glbl.obj
 0004:00000d28       _ELFE_GLBL_mp_IDRY_S       006d7d28     elfe_glbl.obj
 0004:00000d50       _ELFE_GLBL_mp_KBS          006d7d50     elfe_glbl.obj
 0004:00000d78       _ELFE_GLBL_mp_ISBS_GLOBAL  006d7d78     elfe_glbl.obj
 0004:00000da0       _ELFE_GLBL_mp_ISBS         006d7da0     elfe_glbl.obj
 0004:00000dc8       _ELFE_GLBL_mp_SNY          006d7dc8     elfe_glbl.obj
 0004:00000df0       _ELFE_GLBL_mp_SNX          006d7df0     elfe_glbl.obj
 0004:00000e18       _ELFE_GLBL_mp_DELJ         006d7e18     elfe_glbl.obj
 0004:00000e40       _ELFE_GLBL_mp_DISTJ        006d7e40     elfe_glbl.obj
 0004:00000e68       _ELFE_GLBL_mp_DPS          006d7e68     elfe_glbl.obj
 0004:00000e90       _ELFE_GLBL_mp_YCJ          006d7e90     elfe_glbl.obj
 0004:00000eb8       _ELFE_GLBL_mp_XCJ          006d7eb8     elfe_glbl.obj
 0004:00000ee0       _ELFE_GLBL_mp_ISIDENODE    006d7ee0     elfe_glbl.obj
 0004:00000f10       _ELFE_GLBL_mp_ISLG         006d7f10     elfe_glbl.obj
 0004:00000f38       _ELFE_GLBL_mp_Z            006d7f38     elfe_glbl.obj
 0004:00000f68       _ELFE_GLBL_mp_HMOD         006d7f68     elfe_glbl.obj
 0004:00000f90       _ELFE_GLBL_mp_IBACK        006d7f90     elfe_glbl.obj
 0004:00000fb8       _ELFE_GLBL_mp_IDRY         006d7fb8     elfe_glbl.obj
 0004:00000fe0       _ELFE_GLBL_mp_KBP_E        006d7fe0     elfe_glbl.obj
 0004:00001008       _ELFE_GLBL_mp_KBP00        006d8008     elfe_glbl.obj
 0004:00001030       _ELFE_GLBL_mp_KBP          006d8030     elfe_glbl.obj
 0004:00001058       _ELFE_GLBL_mp_KFP          006d8058     elfe_glbl.obj
 0004:00001080       _ELFE_GLBL_mp_ISBND_GLOBAL 006d8080     elfe_glbl.obj
 0004:000010a8       _ELFE_GLBL_mp_ISBND        006d80a8     elfe_glbl.obj
 0004:000010d8       _ELFE_GLBL_mp_INP          006d80d8     elfe_glbl.obj
 0004:00001108       _ELFE_GLBL_mp_NNP          006d8108     elfe_glbl.obj
 0004:00001130       _ELFE_GLBL_mp_INE          006d8130     elfe_glbl.obj
 0004:00001160       _ELFE_GLBL_mp_NNE          006d8160     elfe_glbl.obj
 0004:00001188       _ELFE_GLBL_mp_INEGB        006d8188     elfe_glbl.obj
 0004:000011b8       _ELFE_GLBL_mp_NNEGB        006d81b8     elfe_glbl.obj
 0004:000011e0       _ELFE_GLBL_mp_DP00         006d81e0     elfe_glbl.obj
 0004:00001208       _ELFE_GLBL_mp_DP           006d8208     elfe_glbl.obj
 0004:00001230       _ELFE_GLBL_mp_YLAT         006d8230     elfe_glbl.obj
 0004:00001258       _ELFE_GLBL_mp_XLON         006d8258     elfe_glbl.obj
 0004:00001280       _ELFE_GLBL_mp_Y            006d8280     elfe_glbl.obj
 0004:000012a8       _ELFE_GLBL_mp_X            006d82a8     elfe_glbl.obj
 0004:000012d0       _ELFE_GLBL_mp_IPLG         006d82d0     elfe_glbl.obj
 0004:000012f8       _ELFE_GLBL_mp_DL           006d82f8     elfe_glbl.obj
 0004:00001338       _ELFE_GLBL_mp_ZE           006d8338     elfe_glbl.obj
 0004:00001368       _ELFE_GLBL_mp_KRVEL        006d8368     elfe_glbl.obj
 0004:00001390       _ELFE_GLBL_mp_IE_KR        006d8390     elfe_glbl.obj
 0004:000013b8       _ELFE_GLBL_mp_LQK          006d83b8     elfe_glbl.obj
 0004:000013e0       _ELFE_GLBL_mp_INTERPOL     006d83e0     elfe_glbl.obj
 0004:00001408       _ELFE_GLBL_mp_IDRY_E0      006d8408     elfe_glbl.obj
 0004:00001430       _ELFE_GLBL_mp_IDRY_E       006d8430     elfe_glbl.obj
 0004:00001458       _ELFE_GLBL_mp_KBE          006d8458     elfe_glbl.obj
 0004:00001480       _ELFE_GLBL_mp_DPE          006d8480     elfe_glbl.obj
 0004:000014a8       _ELFE_GLBL_mp_YLAT_EL      006d84a8     elfe_glbl.obj
 0004:000014d0       _ELFE_GLBL_mp_XLON_EL      006d84d0     elfe_glbl.obj
 0004:000014f8       _ELFE_GLBL_mp_YCTR         006d84f8     elfe_glbl.obj
 0004:00001520       _ELFE_GLBL_mp_XCTR         006d8520     elfe_glbl.obj
 0004:00001548       _ELFE_GLBL_mp_RADIEL       006d8548     elfe_glbl.obj
 0004:00001570       _ELFE_GLBL_mp_AREA         006d8570     elfe_glbl.obj
 0004:00001598       _ELFE_GLBL_mp_SSIGN        006d8598     elfe_glbl.obj
 0004:000015c8       _ELFE_GLBL_mp_JS           006d85c8     elfe_glbl.obj
 0004:000015f8       _ELFE_GLBL_mp_IC3GB        006d85f8     elfe_glbl.obj
 0004:00001628       _ELFE_GLBL_mp_IC3          006d8628     elfe_glbl.obj
 0004:00001658       _ELFE_GLBL_mp_ISELF        006d8658     elfe_glbl.obj
 0004:00001688       _ELFE_GLBL_mp_NMGB         006d8688     elfe_glbl.obj
 0004:000016b8       _ELFE_GLBL_mp_NM           006d86b8     elfe_glbl.obj
 0004:000016e8       _ELFE_GLBL_mp_IEGRPV       006d86e8     elfe_glbl.obj
 0004:00001710       _ELFE_GLBL_mp_IELG         006d8710     elfe_glbl.obj
 0004:00001738       _ELFE_GLBL_mp_DCS          006d8738     elfe_glbl.obj
 0004:00001760       _ELFE_GLBL_mp_CS           006d8760     elfe_glbl.obj
 0004:00001788       _ELFE_GLBL_mp_SIGMA        006d8788     elfe_glbl.obj
 0004:000017b0       _ELFE_GLBL_mp_ZTOT         006d87b0     elfe_glbl.obj
 0004:000017d8       _ELFE_GLBL_mp_IS           006d87d8     elfe_glbl.obj
 0004:00001b64       _ELFE_MSGP_mp_RTYPE        006d8b64     elfe_msgp.obj
 0004:00001b68       _ELFE_MSGP_mp_ITYPE        006d8b68     elfe_msgp.obj
 0004:00001b70       _ELFE_MSGP_mp_E3D_TR2_RECV_STAT 006d8b70     elfe_msgp.obj
 0004:00001ba0       _ELFE_MSGP_mp_E3D_TR2_RECV_RQST 006d8ba0     elfe_msgp.obj
 0004:00001bc8       _ELFE_MSGP_mp_E3D_TR2_RECV_TYPE 006d8bc8     elfe_msgp.obj
 0004:00001bf0       _ELFE_MSGP_mp_E3D_TR2_SEND_STAT 006d8bf0     elfe_msgp.obj
 0004:00001c20       _ELFE_MSGP_mp_E3D_TR2_SEND_RQST 006d8c20     elfe_msgp.obj
 0004:00001c48       _ELFE_MSGP_mp_E3D_TR2_SEND_TYPE 006d8c48     elfe_msgp.obj
 0004:00001c70       _ELFE_MSGP_mp_E3D_TR_RECV_STAT 006d8c70     elfe_msgp.obj
 0004:00001ca0       _ELFE_MSGP_mp_E3D_TR_RECV_RQST 006d8ca0     elfe_msgp.obj
 0004:00001cc8       _ELFE_MSGP_mp_E3D_TR_RECV_TYPE 006d8cc8     elfe_msgp.obj
 0004:00001cf0       _ELFE_MSGP_mp_E3D_TR_SEND_STAT 006d8cf0     elfe_msgp.obj
 0004:00001d20       _ELFE_MSGP_mp_E3D_TR_SEND_RQST 006d8d20     elfe_msgp.obj
 0004:00001d48       _ELFE_MSGP_mp_E3D_TR_SEND_TYPE 006d8d48     elfe_msgp.obj
 0004:00001d70       _ELFE_MSGP_mp_E3D_2_RECV_STAT 006d8d70     elfe_msgp.obj
 0004:00001da0       _ELFE_MSGP_mp_E3D_2_RECV_RQST 006d8da0     elfe_msgp.obj
 0004:00001dc8       _ELFE_MSGP_mp_E3D_2_RECV_TYPE 006d8dc8     elfe_msgp.obj
 0004:00001df0       _ELFE_MSGP_mp_E3D_2_SEND_STAT 006d8df0     elfe_msgp.obj
 0004:00001e20       _ELFE_MSGP_mp_E3D_2_SEND_RQST 006d8e20     elfe_msgp.obj
 0004:00001e48       _ELFE_MSGP_mp_E3D_2_SEND_TYPE 006d8e48     elfe_msgp.obj
 0004:00001e70       _ELFE_MSGP_mp_P3D_TR_RECV_STAT 006d8e70     elfe_msgp.obj
 0004:00001ea0       _ELFE_MSGP_mp_P3D_TR_RECV_RQST 006d8ea0     elfe_msgp.obj
 0004:00001ec8       _ELFE_MSGP_mp_P3D_TR_RECV_TYPE 006d8ec8     elfe_msgp.obj
 0004:00001ef0       _ELFE_MSGP_mp_P3D_TR_SEND_STAT 006d8ef0     elfe_msgp.obj
 0004:00001f20       _ELFE_MSGP_mp_P3D_TR_SEND_RQST 006d8f20     elfe_msgp.obj
 0004:00001f48       _ELFE_MSGP_mp_P3D_TR_SEND_TYPE 006d8f48     elfe_msgp.obj
 0004:00001f70       _ELFE_MSGP_mp_P3D_4_RECV_STAT 006d8f70     elfe_msgp.obj
 0004:00001fa0       _ELFE_MSGP_mp_P3D_4_RECV_RQST 006d8fa0     elfe_msgp.obj
 0004:00001fc8       _ELFE_MSGP_mp_P3D_4_RECV_TYPE 006d8fc8     elfe_msgp.obj
 0004:00001ff0       _ELFE_MSGP_mp_P3D_4_SEND_STAT 006d8ff0     elfe_msgp.obj
 0004:00002020       _ELFE_MSGP_mp_P3D_4_SEND_RQST 006d9020     elfe_msgp.obj
 0004:00002048       _ELFE_MSGP_mp_P3D_4_SEND_TYPE 006d9048     elfe_msgp.obj
 0004:00002070       _ELFE_MSGP_mp_P3D_3_RECV_STAT 006d9070     elfe_msgp.obj
 0004:000020a0       _ELFE_MSGP_mp_P3D_3_RECV_RQST 006d90a0     elfe_msgp.obj
 0004:000020c8       _ELFE_MSGP_mp_P3D_3_RECV_TYPE 006d90c8     elfe_msgp.obj
 0004:000020f0       _ELFE_MSGP_mp_P3D_3_SEND_STAT 006d90f0     elfe_msgp.obj
 0004:00002120       _ELFE_MSGP_mp_P3D_3_SEND_RQST 006d9120     elfe_msgp.obj
 0004:00002148       _ELFE_MSGP_mp_P3D_3_SEND_TYPE 006d9148     elfe_msgp.obj
 0004:00002170       _ELFE_MSGP_mp_P3D_2_RECV_STAT 006d9170     elfe_msgp.obj
 0004:000021a0       _ELFE_MSGP_mp_P3D_2_RECV_RQST 006d91a0     elfe_msgp.obj
 0004:000021c8       _ELFE_MSGP_mp_P3D_2_RECV_TYPE 006d91c8     elfe_msgp.obj
 0004:000021f0       _ELFE_MSGP_mp_P3D_2_SEND_STAT 006d91f0     elfe_msgp.obj
 0004:00002220       _ELFE_MSGP_mp_P3D_2_SEND_RQST 006d9220     elfe_msgp.obj
 0004:00002248       _ELFE_MSGP_mp_P3D_2_SEND_TYPE 006d9248     elfe_msgp.obj
 0004:00002270       _ELFE_MSGP_mp_S3D_TR2_RECV_STAT 006d9270     elfe_msgp.obj
 0004:000022a0       _ELFE_MSGP_mp_S3D_TR2_RECV_RQST 006d92a0     elfe_msgp.obj
 0004:000022c8       _ELFE_MSGP_mp_S3D_TR2_RECV_TYPE 006d92c8     elfe_msgp.obj
 0004:000022f0       _ELFE_MSGP_mp_S3D_TR2_SEND_STAT 006d92f0     elfe_msgp.obj
 0004:00002320       _ELFE_MSGP_mp_S3D_TR2_SEND_RQST 006d9320     elfe_msgp.obj
 0004:00002348       _ELFE_MSGP_mp_S3D_TR2_SEND_TYPE 006d9348     elfe_msgp.obj
 0004:00002370       _ELFE_MSGP_mp_S3D_2_RECV_STAT 006d9370     elfe_msgp.obj
 0004:000023a0       _ELFE_MSGP_mp_S3D_2_RECV_RQST 006d93a0     elfe_msgp.obj
 0004:000023c8       _ELFE_MSGP_mp_S3D_2_RECV_TYPE 006d93c8     elfe_msgp.obj
 0004:000023f0       _ELFE_MSGP_mp_S3D_2_SEND_STAT 006d93f0     elfe_msgp.obj
 0004:00002420       _ELFE_MSGP_mp_S3D_2_SEND_RQST 006d9420     elfe_msgp.obj
 0004:00002448       _ELFE_MSGP_mp_S3D_2_SEND_TYPE 006d9448     elfe_msgp.obj
 0004:00002470       _ELFE_MSGP_mp_S3D_4_RECV_STAT 006d9470     elfe_msgp.obj
 0004:000024a0       _ELFE_MSGP_mp_S3D_4_RECV_RQST 006d94a0     elfe_msgp.obj
 0004:000024c8       _ELFE_MSGP_mp_S3D_4_RECV_TYPE 006d94c8     elfe_msgp.obj
 0004:000024f0       _ELFE_MSGP_mp_S3D_4_SEND_STAT 006d94f0     elfe_msgp.obj
 0004:00002520       _ELFE_MSGP_mp_S3D_4_SEND_RQST 006d9520     elfe_msgp.obj
 0004:00002548       _ELFE_MSGP_mp_S3D_4_SEND_TYPE 006d9548     elfe_msgp.obj
 0004:00002570       _ELFE_MSGP_mp_S3D_5_RECV_STAT 006d9570     elfe_msgp.obj
 0004:000025a0       _ELFE_MSGP_mp_S3D_5_RECV_RQST 006d95a0     elfe_msgp.obj
 0004:000025c8       _ELFE_MSGP_mp_S3D_5_RECV_TYPE 006d95c8     elfe_msgp.obj
 0004:000025f0       _ELFE_MSGP_mp_S3D_5_SEND_STAT 006d95f0     elfe_msgp.obj
 0004:00002620       _ELFE_MSGP_mp_S3D_5_SEND_RQST 006d9620     elfe_msgp.obj
 0004:00002648       _ELFE_MSGP_mp_S3D_5_SEND_TYPE 006d9648     elfe_msgp.obj
 0004:00002670       _ELFE_MSGP_mp_S2DIRECV_STAT 006d9670     elfe_msgp.obj
 0004:000026a0       _ELFE_MSGP_mp_S2DIRECV_RQST 006d96a0     elfe_msgp.obj
 0004:000026c8       _ELFE_MSGP_mp_S2DIRECV_TYPE 006d96c8     elfe_msgp.obj
 0004:000026f0       _ELFE_MSGP_mp_S2DISEND_STAT 006d96f0     elfe_msgp.obj
 0004:00002720       _ELFE_MSGP_mp_S2DISEND_RQST 006d9720     elfe_msgp.obj
 0004:00002748       _ELFE_MSGP_mp_S2DISEND_TYPE 006d9748     elfe_msgp.obj
 0004:00002770       _ELFE_MSGP_mp_S3DWRECV_STAT 006d9770     elfe_msgp.obj
 0004:000027a0       _ELFE_MSGP_mp_S3DWRECV_RQST 006d97a0     elfe_msgp.obj
 0004:000027c8       _ELFE_MSGP_mp_S3DWRECV_TYPE 006d97c8     elfe_msgp.obj
 0004:000027f0       _ELFE_MSGP_mp_S3DWSEND_STAT 006d97f0     elfe_msgp.obj
 0004:00002820       _ELFE_MSGP_mp_S3DWSEND_RQST 006d9820     elfe_msgp.obj
 0004:00002848       _ELFE_MSGP_mp_S3DWSEND_TYPE 006d9848     elfe_msgp.obj
 0004:00002870       _ELFE_MSGP_mp_S2D_9_RECV_STAT 006d9870     elfe_msgp.obj
 0004:000028a0       _ELFE_MSGP_mp_S2D_9_RECV_RQST 006d98a0     elfe_msgp.obj
 0004:000028c8       _ELFE_MSGP_mp_S2D_9_RECV_TYPE 006d98c8     elfe_msgp.obj
 0004:000028f0       _ELFE_MSGP_mp_S2D_9_SEND_STAT 006d98f0     elfe_msgp.obj
 0004:00002920       _ELFE_MSGP_mp_S2D_9_SEND_RQST 006d9920     elfe_msgp.obj
 0004:00002948       _ELFE_MSGP_mp_S2D_9_SEND_TYPE 006d9948     elfe_msgp.obj
 0004:00002970       _ELFE_MSGP_mp_S2DRECV_STAT 006d9970     elfe_msgp.obj
 0004:000029a0       _ELFE_MSGP_mp_S2DRECV_RQST 006d99a0     elfe_msgp.obj
 0004:000029c8       _ELFE_MSGP_mp_S2DRECV_TYPE 006d99c8     elfe_msgp.obj
 0004:000029f0       _ELFE_MSGP_mp_S2DSEND_STAT 006d99f0     elfe_msgp.obj
 0004:00002a20       _ELFE_MSGP_mp_S2DSEND_RQST 006d9a20     elfe_msgp.obj
 0004:00002a48       _ELFE_MSGP_mp_S2DSEND_TYPE 006d9a48     elfe_msgp.obj
 0004:00002a70       _ELFE_MSGP_mp_P2DIRECV_STAT 006d9a70     elfe_msgp.obj
 0004:00002aa0       _ELFE_MSGP_mp_P2DIRECV_RQST 006d9aa0     elfe_msgp.obj
 0004:00002ac8       _ELFE_MSGP_mp_P2DIRECV_TYPE 006d9ac8     elfe_msgp.obj
 0004:00002af0       _ELFE_MSGP_mp_P2DISEND_STAT 006d9af0     elfe_msgp.obj
 0004:00002b20       _ELFE_MSGP_mp_P2DISEND_RQST 006d9b20     elfe_msgp.obj
 0004:00002b48       _ELFE_MSGP_mp_P2DISEND_TYPE 006d9b48     elfe_msgp.obj
 0004:00002b70       _ELFE_MSGP_mp_P3DWRECV_STAT 006d9b70     elfe_msgp.obj
 0004:00002ba0       _ELFE_MSGP_mp_P3DWRECV_RQST 006d9ba0     elfe_msgp.obj
 0004:00002bc8       _ELFE_MSGP_mp_P3DWRECV_TYPE 006d9bc8     elfe_msgp.obj
 0004:00002bf0       _ELFE_MSGP_mp_P3DWSEND_STAT 006d9bf0     elfe_msgp.obj
 0004:00002c20       _ELFE_MSGP_mp_P3DWSEND_RQST 006d9c20     elfe_msgp.obj
 0004:00002c48       _ELFE_MSGP_mp_P3DWSEND_TYPE 006d9c48     elfe_msgp.obj
 0004:00002c70       _ELFE_MSGP_mp_P2DRECV_STAT 006d9c70     elfe_msgp.obj
 0004:00002ca0       _ELFE_MSGP_mp_P2DRECV_RQST 006d9ca0     elfe_msgp.obj
 0004:00002cc8       _ELFE_MSGP_mp_P2DRECV_TYPE 006d9cc8     elfe_msgp.obj
 0004:00002cf0       _ELFE_MSGP_mp_P2DSEND_STAT 006d9cf0     elfe_msgp.obj
 0004:00002d20       _ELFE_MSGP_mp_P2DSEND_RQST 006d9d20     elfe_msgp.obj
 0004:00002d48       _ELFE_MSGP_mp_P2DSEND_TYPE 006d9d48     elfe_msgp.obj
 0004:00002d70       _ELFE_MSGP_mp_E3DWRECV_STAT 006d9d70     elfe_msgp.obj
 0004:00002da0       _ELFE_MSGP_mp_E3DWRECV_RQST 006d9da0     elfe_msgp.obj
 0004:00002dc8       _ELFE_MSGP_mp_E3DWRECV_TYPE 006d9dc8     elfe_msgp.obj
 0004:00002df0       _ELFE_MSGP_mp_E3DWSEND_STAT 006d9df0     elfe_msgp.obj
 0004:00002e20       _ELFE_MSGP_mp_E3DWSEND_RQST 006d9e20     elfe_msgp.obj
 0004:00002e48       _ELFE_MSGP_mp_E3DWSEND_TYPE 006d9e48     elfe_msgp.obj
 0004:00002e70       _ELFE_MSGP_mp_E2DRECV_STAT 006d9e70     elfe_msgp.obj
 0004:00002ea0       _ELFE_MSGP_mp_E2DRECV_RQST 006d9ea0     elfe_msgp.obj
 0004:00002ec8       _ELFE_MSGP_mp_E2DRECV_TYPE 006d9ec8     elfe_msgp.obj
 0004:00002ef0       _ELFE_MSGP_mp_E2DSEND_STAT 006d9ef0     elfe_msgp.obj
 0004:00002f20       _ELFE_MSGP_mp_E2DSEND_RQST 006d9f20     elfe_msgp.obj
 0004:00002f48       _ELFE_MSGP_mp_E2DSEND_TYPE 006d9f48     elfe_msgp.obj
 0004:00002f70       _ELFE_MSGP_mp_ISRECV       006d9f70     elfe_msgp.obj
 0004:00002fa0       _ELFE_MSGP_mp_NSRECV       006d9fa0     elfe_msgp.obj
 0004:00002fc8       _ELFE_MSGP_mp_ISSEND       006d9fc8     elfe_msgp.obj
 0004:00002ff8       _ELFE_MSGP_mp_NSSEND       006d9ff8     elfe_msgp.obj
 0004:00003020       _ELFE_MSGP_mp_IPRECV       006da020     elfe_msgp.obj
 0004:00003050       _ELFE_MSGP_mp_NPRECV       006da050     elfe_msgp.obj
 0004:00003078       _ELFE_MSGP_mp_IPSEND       006da078     elfe_msgp.obj
 0004:000030a8       _ELFE_MSGP_mp_NPSEND       006da0a8     elfe_msgp.obj
 0004:000030d0       _ELFE_MSGP_mp_IERECV       006da0d0     elfe_msgp.obj
 0004:00003100       _ELFE_MSGP_mp_NERECV       006da100     elfe_msgp.obj
 0004:00003128       _ELFE_MSGP_mp_IESEND       006da128     elfe_msgp.obj
 0004:00003158       _ELFE_MSGP_mp_NESEND       006da158     elfe_msgp.obj
 0004:00003180       _ELFE_MSGP_mp_RANKNBR_P    006da180     elfe_msgp.obj
 0004:000031a8       _ELFE_MSGP_mp_NBRRANK_P    006da1a8     elfe_msgp.obj
 0004:000031d0       _ELFE_MSGP_mp_RANKNBR      006da1d0     elfe_msgp.obj
 0004:000031f8       _ELFE_MSGP_mp_NBRRANK      006da1f8     elfe_msgp.obj
 0004:009317d8       _NETCDF_IO_mp_PRATE_NAME   010087d8     sflux_9c.obj
 0004:0093180c       _NETCDF_IO_mp_PRC_2_FILE   0100880c     sflux_9c.obj
 0004:00931840       _NETCDF_IO_mp_PRC_1_FILE   01008840     sflux_9c.obj
 0004:00931874       _NETCDF_IO_mp_PRC_1_FAIL_IF_MISSING 01008874     sflux_9c.obj
 0004:00931878       _NETCDF_IO_mp_PRC_2_MAX_WINDOW_HOURS 01008878     sflux_9c.obj
 0004:00931880       _NETCDF_IO_mp_PRC_1_MAX_WINDOW_HOURS 01008880     sflux_9c.obj
 0004:00931888       _NETCDF_IO_mp_PRC_2_RELATIVE_WEIGHT 01008888     sflux_9c.obj
 0004:00931890       _NETCDF_IO_mp_PRC_1_RELATIVE_WEIGHT 01008890     sflux_9c.obj
 0004:00931898       _NETCDF_IO_mp_DSWRF_NAME   01008898     sflux_9c.obj
 0004:009318cc       _NETCDF_IO_mp_DLWRF_NAME   010088cc     sflux_9c.obj
 0004:00931900       _NETCDF_IO_mp_RAD_2_FILE   01008900     sflux_9c.obj
 0004:00931934       _NETCDF_IO_mp_RAD_1_FILE   01008934     sflux_9c.obj
 0004:00931968       _NETCDF_IO_mp_RAD_1_FAIL_IF_MISSING 01008968     sflux_9c.obj
 0004:00931970       _NETCDF_IO_mp_RAD_2_MAX_WINDOW_HOURS 01008970     sflux_9c.obj
 0004:00931978       _NETCDF_IO_mp_RAD_1_MAX_WINDOW_HOURS 01008978     sflux_9c.obj
 0004:00931980       _NETCDF_IO_mp_RAD_2_RELATIVE_WEIGHT 01008980     sflux_9c.obj
 0004:00931988       _NETCDF_IO_mp_RAD_1_RELATIVE_WEIGHT 01008988     sflux_9c.obj
 0004:00931990       _NETCDF_IO_mp_SPFH_NAME    01008990     sflux_9c.obj
 0004:009319c4       _NETCDF_IO_mp_STMP_NAME    010089c4     sflux_9c.obj
 0004:009319f8       _NETCDF_IO_mp_PRMSL_NAME   010089f8     sflux_9c.obj
 0004:00931a2c       _NETCDF_IO_mp_VWIND_NAME   01008a2c     sflux_9c.obj
 0004:00931a60       _NETCDF_IO_mp_UWIND_NAME   01008a60     sflux_9c.obj
 0004:00931a94       _NETCDF_IO_mp_AIR_2_FILE   01008a94     sflux_9c.obj
 0004:00931ac8       _NETCDF_IO_mp_AIR_1_FILE   01008ac8     sflux_9c.obj
 0004:00931afc       _NETCDF_IO_mp_AIR_1_FAIL_IF_MISSING 01008afc     sflux_9c.obj
 0004:00931b00       _NETCDF_IO_mp_AIR_2_MAX_WINDOW_HOURS 01008b00     sflux_9c.obj
 0004:00931b08       _NETCDF_IO_mp_AIR_1_MAX_WINDOW_HOURS 01008b08     sflux_9c.obj
 0004:00931b10       _NETCDF_IO_mp_AIR_2_RELATIVE_WEIGHT 01008b10     sflux_9c.obj
 0004:00931b18       _NETCDF_IO_mp_AIR_1_RELATIVE_WEIGHT 01008b18     sflux_9c.obj
 0004:00931b20       _NETCDF_IO_mp_START_FRAC_JDATE 01008b20     sflux_9c.obj
 0004:00931b28       _NETCDF_IO_mp_UTC_START    01008b28     sflux_9c.obj
 0004:00931b30       _NETCDF_IO_mp_START_HOUR   01008b30     sflux_9c.obj
 0004:00931b38       _NETCDF_IO_mp_START_DAY    01008b38     sflux_9c.obj
 0004:00931b3c       _NETCDF_IO_mp_START_MONTH  01008b3c     sflux_9c.obj
 0004:00931b40       _NETCDF_IO_mp_START_YEAR   01008b40     sflux_9c.obj
 0004:00931c60       NSF_CONTAINER_MOD_mp_INIT_NSF_CONTAINER$BLK..T302_ 01008c60     nsf_container.obj
 0004:00931e20       NSF_CONTAINER_MOD_mp_INIT_NSF_CONTAINER$BLK..T311_ 01008e20     nsf_container.obj
 0004:00931f00       NSF_CONTAINER_MOD_mp_INIT_NSF_CONTAINER$BLK..T320_ 01008f00     nsf_container.obj
 0004:00934360       _NSF_SELF_VARS_MOD_mp_NSF_SELF 0100b360     nsf_self_vars.obj
 0004:009344ac       _NSF_SELF_VARS_MOD_mp_NSF_SELFE_OUTPUT_COUNT 0100b4ac     nsf_self_vars.obj
 0004:009344b0       _NSF_SELF_VARS_MOD_mp_NSF_SELFE_GLOBAL_ATT_COUNT 0100b4b0     nsf_self_vars.obj
 0004:009344b4       _NSF_SELF_VARS_MOD_mp_NSF_SELFE_DIMS_COUNT 0100b4b4     nsf_self_vars.obj
 0004:009344b8       _NSF_SELF_VARS_MOD_mp_NP_ARRAY 0100b4b8     nsf_self_vars.obj
 0004:009344e0       _NSF_SELF_VARS_MOD_mp_NSF_BUFFER 0100b4e0     nsf_self_vars.obj
 0004:00934508       _NSF_SELF_VARS_MOD_mp_NSF_DATA2D 0100b508     nsf_self_vars.obj
 0004:00934530       _NSF_SELF_VARS_MOD_mp_NSF_DATA3D 0100b530     nsf_self_vars.obj
 0004:00934560       _NSF_SELF_VARS_MOD_mp_NSF_IPGL 0100b560     nsf_self_vars.obj
 0004:00934588       _NSF_SELF_VARS_MOD_mp_NSF_NP_INDEX 0100b588     nsf_self_vars.obj
 0004:009345b0       _NSF_SELF_VARS_MOD_mp_NSF_NP 0100b5b0     nsf_self_vars.obj
 0004:009345d8       _NSF_SELF_VARS_MOD_mp_TEMP_OUT2 0100b5d8     nsf_self_vars.obj
 0004:00934600       _NSF_SELF_VARS_MOD_mp_TEMP_OUT 0100b600     nsf_self_vars.obj
 0004:00934640       NSF_SELF_VARS_MOD_mp_NFS_SELF_SET_VARS$BLK..T3298_ 0100b640     nsf_self_vars.obj
 0004:00934800       NSF_SELF_VARS_MOD_mp_NFS_SELF_SET_VARS$BLK..T3299_ 0100b800     nsf_self_vars.obj
 0004:009349c0       NSF_SELF_VARS_MOD_mp_NFS_SELF_SET_VARS$BLK..T3300_ 0100b9c0     nsf_self_vars.obj
 0004:00934b80       NSF_SELF_VARS_MOD_mp_NFS_SELF_SET_VARS$BLK..T3301_ 0100bb80     nsf_self_vars.obj
 0004:00934d40       NSF_SELF_VARS_MOD_mp_NFS_SELF_SET_VARS$BLK..T3302_ 0100bd40     nsf_self_vars.obj
 0004:00934f00       NSF_SELF_VARS_MOD_mp_NFS_SELF_SET_VARS$BLK..T3303_ 0100bf00     nsf_self_vars.obj
 0004:009350c0       NSF_SELF_VARS_MOD_mp_NFS_SELF_SET_VARS$BLK..T3304_ 0100c0c0     nsf_self_vars.obj
 0004:00935280       NSF_SELF_VARS_MOD_mp_NFS_SELF_SET_VARS$BLK..T3305_ 0100c280     nsf_self_vars.obj
 0004:00938c60       _MPIR_F_NeedInit           0100fc60     msmpifec:mpif.obj
 0004:00938d20       _for__static_threadstor_private 0100fd20     libifcoremt:for_reentrancy.obj
 0004:00938dc0       _for__reentrancy_mode      0100fdc0     libifcoremt:for_reentrancy.obj
 0004:0093a344       _libc_fpieee_version       01011344     libifcoremt:for_init.obj
 0004:0093a578       __LIB_VERSIONIMF           01011578     libmmt:libm_error.obj
 0004:0093a57c       ___libm_pmatherrf          0101157c     libmmt:libm_error.obj
 0004:0093a580       ___libm_pmatherr           01011580     libmmt:libm_error.obj
 0004:0093a584       ___libm_pmatherrl          01011584     libmmt:libm_error.obj
 0004:0093a5a0       __fltused                  010115a0     LIBCMT:_fpinit_.obj
 0004:0093a5a4       __ldused                   010115a4     LIBCMT:_fpinit_.obj
 0004:0093a5b0       ___app_type                010115b0     LIBCMT:crt0.obj
 0004:0093a5b4       __aexit_rtn                010115b4     LIBCMT:crt0dat.obj
 0004:0093a5b8       ___abort_behavior          010115b8     LIBCMT:abort.obj
 0004:0093a5c0       __iob                      010115c0     LIBCMT:_file.obj
 0004:0093a840       ___lc_time_c               01011840     LIBCMT:strftime.obj
 0004:0093a8f8       ___lc_time_curr            010118f8     LIBCMT:strftime.obj
 0004:0093aa70       __cfltcvt_tab              01011a70     LIBCMT:cmiscdat.obj
 0004:0093ab50       __First_FPE_Indx           01011b50     LIBCMT:winxfltr.obj
 0004:0093ab54       __Num_FPE                  01011b54     LIBCMT:winxfltr.obj
 0004:0093ab58       __XcptActTabSize           01011b58     LIBCMT:winxfltr.obj
 0004:0093ab5c       __XcptActTabCount          01011b5c     LIBCMT:winxfltr.obj
 0004:0093ab60       ___badioinfo               01011b60     LIBCMT:ioinit.obj
 0004:0093aba0       ___flsindex                01011ba0     LIBCMT:tidtable.obj
 0004:0093aba4       ___getvalueindex           01011ba4     LIBCMT:tidtable.obj
 0004:0093aba8       __amblksiz                 01011ba8     LIBCMT:heapinit.obj
 0004:0093abac       ___security_cookie         01011bac     LIBCMT:gs_cookie.obj
 0004:0093abb0       ___security_cookie_complement 01011bb0     LIBCMT:gs_cookie.obj
 0004:0093acd8       ___nullstring              01011cd8     LIBCMT:output.obj
 0004:0093acdc       ___wnullstring             01011cdc     LIBCMT:output.obj
 0004:0093ace0       ___initialmbcinfo          01011ce0     LIBCMT:mbctype.obj
 0004:0093af00       __mbctype                  01011f00     LIBCMT:mbctype.obj
 0004:0093b008       __mbcasemap                01012008     LIBCMT:mbctype.obj
 0004:0093b108       ___ptmbcinfo               01012108     LIBCMT:mbctype.obj
 0004:0093b204       ___globallocalestatus      01012204     LIBCMT:glstatus.obj
 0004:0093b208       ___clocalestr              01012208     LIBCMT:nlsdata2.obj
 0004:0093b210       ___initiallocinfo          01012210     LIBCMT:nlsdata2.obj
 0004:0093b2e8       ___ptlocinfo               010122e8     LIBCMT:nlsdata2.obj
 0004:0093b2ec       ___lc_clike                010122ec     LIBCMT:nlsdata2.obj
 0004:0093b2f0       ___initiallocalestructinfo 010122f0     LIBCMT:nlsdata2.obj
 0004:0093b300       __timezone                 01012300     LIBCMT:timeset.obj
 0004:0093b304       __daylight                 01012304     LIBCMT:timeset.obj
 0004:0093b308       __dstbias                  01012308     LIBCMT:timeset.obj
 0004:0093b390       __tzname                   01012390     LIBCMT:timeset.obj
 0004:0093b3b0       __sys_errlist              010123b0     LIBCMT:syserr.obj
 0004:0093b460       __sys_nerr                 01012460     LIBCMT:syserr.obj
 0004:0093b490       __NLG_Destination          01012490     LIBCMT:exsup.obj
 0004:0093b4a0       __pctype                   010124a0     LIBCMT:ctype.obj
 0004:0093b4a4       __pwctype                  010124a4     LIBCMT:ctype.obj
 0004:0093b4a8       ___lconv_static_decimal    010124a8     LIBCMT:lconv.obj
 0004:0093b4ac       ___lconv_c                 010124ac     LIBCMT:lconv.obj
 0004:0093b4dc       ___lconv                   010124dc     LIBCMT:lconv.obj
 0004:0093b4e0       ___mb_cur_max              010124e0     LIBCMT:nlsdata1.obj
 0004:0093b4e4       ___decimal_point           010124e4     LIBCMT:nlsdata1.obj
 0004:0093b4e8       ___decimal_point_length    010124e8     LIBCMT:nlsdata1.obj
 0004:0093b4f0       __lpdays                   010124f0     LIBCMT:days.obj
 0004:0093b524       __days                     01012524     LIBCMT:days.obj
 0004:0093b558       __coninpfh                 01012558     LIBCMT:initcon.obj
 0004:0093b55c       __confh                    0101255c     LIBCMT:initcon.obj
 0004:0093b590       __lookuptrailbytes         01012590     LIBCMT:read.obj
 0004:0093b690       __pow10pos                 01012690     LIBCMT:_constpow_.obj
 0004:0093b7f0       __pow10neg                 010127f0     LIBCMT:_constpow_.obj
 0004:0093b964       ___xxref                   01012964     libirc:cpu_disp.obj
 0004:0093b9a0       _cache_values              010129a0     libirc:fast_mem_ops.obj
 0004:0093c1d4       __memcpy_mem_ops_method    010131d4     libirc:fast_mem_ops.obj
 0004:0093c4c0       _ELFE_GLBL_mp_ISGL         010134c0     elfe_glbl.obj
 0004:0093c4e8       _ELFE_GLBL_mp_IPGL         010134e8     elfe_glbl.obj
 0004:0093c510       _ELFE_GLBL_mp_IEGL         01013510     elfe_glbl.obj
 0004:0093eaf8       _NETCDF_IO_mp_PRC_2_FAIL_IF_MISSING 01015af8     sflux_9c.obj
 0004:0093eafc       _NETCDF_IO_mp_RAD_2_FAIL_IF_MISSING 01015afc     sflux_9c.obj
 0004:0093eb00       _NETCDF_IO_mp_AIR_2_FAIL_IF_MISSING 01015b00     sflux_9c.obj
 0004:0093f1f0       _NSF_SELF_VARS_MOD_mp_NSF_OUT_NTIME 010161f0     nsf_self_vars.obj
 0004:0093f1f4       _NSF_SELF_VARS_MOD_mp_NHOTOUT_RECD 010161f4     nsf_self_vars.obj
 0004:009406b8       AQUIRE_HGRID$BLK..T2877_   010176b8     grid_subs.obj
 0004:009406c8       AQUIRE_HGRID$BLK..T2888_   010176c8     grid_subs.obj
 0004:009406d8       AQUIRE_HGRID$BLK..T2899_   010176d8     grid_subs.obj
 0004:009406e8       AQUIRE_HGRID$BLK..T2910_   010176e8     grid_subs.obj
 0004:009406f8       AQUIRE_HGRID$BLK..T2916_   010176f8     grid_subs.obj
 0004:00940708       AQUIRE_HGRID$BLK..T3100_   01017708     grid_subs.obj
 0004:00940718       AQUIRE_HGRID$BLK..T3120_   01017718     grid_subs.obj
 0004:00940728       AQUIRE_HGRID$BLK..T3140_   01017728     grid_subs.obj
 0004:00940738       SWAP_LLRANK$BLK..T3770_    01017738     grid_subs.obj
 0004:00941120       _MPIR_F_MPI_BOTTOM         01018120     msmpifec:mpif.obj
 0004:00941124       _MPIR_F_MPI_IN_PLACE       01018124     msmpifec:mpif.obj
 0004:00941128       _MPI_F_ERRCODES_IGNORE     01018128     msmpifec:mpif.obj
 0004:0094112c       _MPI_F_ARGVS_NULL          0101812c     msmpifec:mpif.obj
 0004:0096b740       _for__l_exit_hand_decl     01042740     libifcoremt:for_open.obj
 0004:0096b78c       _for__reentrancy_initialized 0104278c     libifcoremt:for_reentrancy.obj
 0004:0096c220       _for__lub_table            01043220     libifcoremt:for_lub_mgt.obj
 0004:009708b0       _for__user_iomsg_buf       010478b0     libifcoremt:for_diags_intel.obj
 0004:009708b4       _for__user_iomsg_len       010478b4     libifcoremt:for_diags_intel.obj
 0004:00970908       _for__l_exit_termination   01047908     libifcoremt:for_exit_handler.obj
 0004:00970920       _for__file_info_hash_table 01047920     libifcoremt:for_need_lf.obj
 0004:0097422c       _for__l_fpe_mask           0104b22c     libifcoremt:for_init.obj
 0004:00974230       _for__l_undcnt             0104b230     libifcoremt:for_init.obj
 0004:00974234       _for__l_ovfcnt             0104b234     libifcoremt:for_init.obj
 0004:00974238       _for__l_div0cnt            0104b238     libifcoremt:for_init.obj
 0004:0097423c       _for__l_invcnt             0104b23c     libifcoremt:for_init.obj
 0004:00974240       _for__l_inecnt             0104b240     libifcoremt:for_init.obj
 0004:00974244       _for__l_fmtrecl            0104b244     libifcoremt:for_init.obj
 0004:00974248       _for__l_ufmtrecl           0104b248     libifcoremt:for_init.obj
 0004:0097424c       _for__l_blocksize          0104b24c     libifcoremt:for_init.obj
 0004:00974250       _for__l_buffercount        0104b250     libifcoremt:for_init.obj
 0004:00974254       _for__l_pgm_exit_status    0104b254     libifcoremt:for_init.obj
 0004:00974258       _for__l_msg_hnd            0104b258     libifcoremt:for_init.obj
 0004:00974260       ___fortran_posix_io_flag   0104b260     libifcoremt:for_portlib.obj
 0004:00974268       ___fastflag                0104b268     LIBCMT:_fpinit_.obj
 0004:0097426c       __adjust_fdiv              0104b26c     LIBCMT:_fpinit_.obj
 0004:00974270       __aenvptr                  0104b270     LIBCMT:crt0.obj
 0004:00974274       __wenvptr                  0104b274     LIBCMT:crt0.obj
 0004:00974278       ___error_mode              0104b278     LIBCMT:crt0.obj
 0004:00974280       __umaskval                 0104b280     LIBCMT:crt0dat.obj
 0004:00974284       ___argc                    0104b284     LIBCMT:crt0dat.obj
 0004:00974288       ___argv                    0104b288     LIBCMT:crt0dat.obj
 0004:0097428c       ___wargv                   0104b28c     LIBCMT:crt0dat.obj
 0004:00974290       __environ                  0104b290     LIBCMT:crt0dat.obj
 0004:00974294       ___initenv                 0104b294     LIBCMT:crt0dat.obj
 0004:00974298       __wenviron                 0104b298     LIBCMT:crt0dat.obj
 0004:0097429c       ___winitenv                0104b29c     LIBCMT:crt0dat.obj
 0004:009742a0       __pgmptr                   0104b2a0     LIBCMT:crt0dat.obj
 0004:009742a4       __wpgmptr                  0104b2a4     LIBCMT:crt0dat.obj
 0004:009742a8       __exitflag                 0104b2a8     LIBCMT:crt0dat.obj
 0004:009742ac       __C_Termination_Done       0104b2ac     LIBCMT:crt0dat.obj
 0004:009742b0       __C_Exit_Done              0104b2b0     LIBCMT:crt0dat.obj
 0004:009742b4       __cflush                   0104b2b4     LIBCMT:_file.obj
 0004:009746fc       _gpFlsAlloc                0104b6fc     LIBCMT:tidtable.obj
 0004:00974700       _gpFlsGetValue             0104b700     LIBCMT:tidtable.obj
 0004:00974704       _gpFlsSetValue             0104b704     LIBCMT:tidtable.obj
 0004:00974708       _gpFlsFree                 0104b708     LIBCMT:tidtable.obj
 0004:0097470c       __crtheap                  0104b70c     LIBCMT:heapinit.obj
 0004:00974b88       ___sbh_pHeaderDefer        0104bb88     LIBCMT:sbheap.obj
 0004:00974b8c       __stdbuf                   0104bb8c     LIBCMT:_sftbuf.obj
 0004:00974b94       ___pInvalidArgHandler      0104bb94     LIBCMT:invarg.obj
 0004:00974b98       ?_pnhHeap@@3P6AHI@ZA       0104bb98     LIBCMT:handler.obj
 0004:00974b9c       __newmode                  0104bb9c     LIBCMT:_newmode.obj
 0004:00974ba0       ?__pInconsistency@@3P6AXXZA 0104bba0     LIBCMT:hooks.obj
 0004:00974bb0       ___pPurecall               0104bbb0     LIBCMT:inithelp.obj
 0004:00974bb8       __maxwait                  0104bbb8     LIBCMT:crtheap.obj
 0004:00974bc0       ___mbulinfo                0104bbc0     LIBCMT:mbctype.obj
 0004:00974bcc       ___mbcodepage              0104bbcc     LIBCMT:mbctype.obj
 0004:00974bd0       ___ismbcodepage            0104bbd0     LIBCMT:mbctype.obj
 0004:00974bd4       ___mblcid                  0104bbd4     LIBCMT:mbctype.obj
 0004:00974bd8       ___locale_changed          0104bbd8     LIBCMT:setlocal.obj
 0004:00974bdc       ___lc_handle               0104bbdc     LIBCMT:nlsdata2.obj
 0004:00974bf4       ___lc_codepage             0104bbf4     LIBCMT:nlsdata2.obj
 0004:00974bf8       ___lc_collate_cp           0104bbf8     LIBCMT:nlsdata2.obj
 0004:00974cc0       __outputformat             0104bcc0     LIBCMT:outputformat.obj
 0004:00974cdc       __commode                  0104bcdc     LIBCMT:ncommode.obj
 0004:00974ce4       ___lconv_static_null       0104bce4     LIBCMT:lconv.obj
 0004:00974cec       __fmode                    0104bcec     LIBCMT:txtmode.obj
 0004:00974cf0       ___intel_cpu_indicator     0104bcf0     libirc:cpu_disp.obj
 0004:00974da0       __memcpy_largest_cache_size 0104bda0     libirc:fast_mem_ops.obj
 0004:00974da4       __memcpy_largest_cachelinesize 0104bda4     libirc:fast_mem_ops.obj
 0004:009753e0       __qw32used                 0104c3e0     ifconsol:for_m_console.obj
 0004:00975490       _NSF_SELF_VARS_MOD_mp_INFO2 0104c490     <common>
 0004:009754a0       _NSF_SELF_VARS_MOD_mp_NC_FILE_NAME 0104c4a0     <common>
 0004:00975580       _NSF_SELF_VARS_MOD_mp_NSF_SELFE_TOTAL_VARS 0104c580     <common>
 0004:00975584       _NSF_SELF_VARS_MOD_mp_GLOBAL_ID 0104c584     <common>
 0004:00975588       _NSF_SELF_VARS_MOD_mp_NSF_SELFE_TIME_START 0104c588     <common>
 0004:00975590       _NSF_SELF_VARS_MOD_mp_NSF_SELFE_TIME_END 0104c590     <common>
 0004:00975598       _NSF_SELF_VARS_MOD_mp_INDEX_BASE 0104c598     <common>
 0004:0097559c       _NSF_SELF_VARS_MOD_mp_IP_INDEX 0104c59c     <common>
 0004:009755a0       _NSF_SELF_VARS_MOD_mp_TEMP_VAR_ID 0104c5a0     <common>
 0004:009755a4       _NSF_SELF_VARS_MOD_mp_TEMP_VAR_ID2 0104c5a4     <common>
 0004:009755c0       _NSF_SELF_VARS_MOD_mp_IOF_NETCDF 0104c5c0     <common>
 0004:009756a0       _NSF_SELF_VARS_MOD_mp_NSF_DIM_NODE_ID 0104c6a0     <common>
 0004:009756a4       _NSF_SELF_VARS_MOD_mp_NSF_DIM_NELE_ID 0104c6a4     <common>
 0004:009756a8       _NSF_SELF_VARS_MOD_mp_NSF_DIM_NBND_ID 0104c6a8     <common>
 0004:009756ac       _NSF_SELF_VARS_MOD_mp_NSF_DIM_NFACE_ID 0104c6ac     <common>
 0004:009756b0       _NSF_SELF_VARS_MOD_mp_NSF_DIM_NBI_ID 0104c6b0     <common>
 0004:009756b4       _NSF_SELF_VARS_MOD_mp_NSF_DIM_NZLAYER_ID 0104c6b4     <common>
 0004:009756b8       _NSF_SELF_VARS_MOD_mp_NSF_DIM_NSLAYER_ID 0104c6b8     <common>
 0004:009756bc       _NSF_SELF_VARS_MOD_mp_NSF_DIM_NLAYER_ID 0104c6bc     <common>
 0004:009756c0       _NSF_SELF_VARS_MOD_mp_NSF_DIM_TIME_ID 0104c6c0     <common>
 0004:009756c4       _NSF_SELF_VARS_MOD_mp_NSF_DIM_TWO_ID 0104c6c4     <common>
 0004:009756c8       _NSF_SELF_VARS_MOD_mp_NSF_DIM_NODE_VAL 0104c6c8     <common>
 0004:009756cc       _NSF_SELF_VARS_MOD_mp_NSF_DIM_NELE_VAL 0104c6cc     <common>
 0004:009756d0       _NSF_SELF_VARS_MOD_mp_NSF_DIM_NBND_VAL 0104c6d0     <common>
 0004:009756d4       _NSF_SELF_VARS_MOD_mp_NSF_DIM_NFACE_VAL 0104c6d4     <common>
 0004:009756d8       _NSF_SELF_VARS_MOD_mp_NSF_DIM_NBI_VAL 0104c6d8     <common>
 0004:009756dc       _NSF_SELF_VARS_MOD_mp_NSF_DIM_NZLAYER_VAL 0104c6dc     <common>
 0004:009756e0       _NSF_SELF_VARS_MOD_mp_NSF_DIM_NSLAYER_VAL 0104c6e0     <common>
 0004:009756e4       _NSF_SELF_VARS_MOD_mp_NSF_DIM_NLAYER_VAL 0104c6e4     <common>
 0004:009756e8       _NSF_SELF_VARS_MOD_mp_NSF_DIM_TIME_VAL 0104c6e8     <common>
 0004:009756ec       _NSF_SELF_VARS_MOD_mp_NSF_SELF_NCID 0104c6ec     <common>
 0004:009756f0       _NSF_SELF_VARS_MOD_mp_NSF_VAR_X_ID 0104c6f0     <common>
 0004:009756f4       _NSF_SELF_VARS_MOD_mp_NSF_VAR_Y_ID 0104c6f4     <common>
 0004:009756f8       _NSF_SELF_VARS_MOD_mp_NSF_VAR_DEPTH_ID 0104c6f8     <common>
 0004:009756fc       _NSF_SELF_VARS_MOD_mp_NSF_VAR_TIME_ID 0104c6fc     <common>
 0004:00975700       _NSF_SELF_VARS_MOD_mp_NSF_VAR_ELEV_ID 0104c700     <common>
 0004:00975704       _NSF_SELF_VARS_MOD_mp_NSF_VAR_PRES_ID 0104c704     <common>
 0004:00975708       _NSF_SELF_VARS_MOD_mp_NSF_VAR_AIRT_ID 0104c708     <common>
 0004:0097570c       _NSF_SELF_VARS_MOD_mp_NSF_VAR_SHUM_ID 0104c70c     <common>
 0004:00975710       _NSF_SELF_VARS_MOD_mp_NSF_VAR_SRAD_ID 0104c710     <common>
 0004:00975714       _NSF_SELF_VARS_MOD_mp_NSF_VAR_FLSU_ID 0104c714     <common>
 0004:00975718       _NSF_SELF_VARS_MOD_mp_NSF_VAR_FLLU_ID 0104c718     <common>
 0004:0097571c       _NSF_SELF_VARS_MOD_mp_NSF_VAR_RADU_ID 0104c71c     <common>
 0004:00975720       _NSF_SELF_VARS_MOD_mp_NSF_VAR_RADD_ID 0104c720     <common>
 0004:00975724       _NSF_SELF_VARS_MOD_mp_NSF_VAR_FLUX_ID 0104c724     <common>
 0004:00975728       _NSF_SELF_VARS_MOD_mp_NSF_VAR_EVAP_ID 0104c728     <common>
 0004:0097572c       _NSF_SELF_VARS_MOD_mp_NSF_VAR_PRCP_ID 0104c72c     <common>
 0004:00975730       _NSF_SELF_VARS_MOD_mp_NSF_VAR_WINDX_ID 0104c730     <common>
 0004:00975734       _NSF_SELF_VARS_MOD_mp_NSF_VAR_WINDY_ID 0104c734     <common>
 0004:00975738       _NSF_SELF_VARS_MOD_mp_NSF_VAR_WISTX_ID 0104c738     <common>
 0004:0097573c       _NSF_SELF_VARS_MOD_mp_NSF_VAR_WISTY_ID 0104c73c     <common>
 0004:00975740       _NSF_SELF_VARS_MOD_mp_NSF_VAR_DAHVX_ID 0104c740     <common>
 0004:00975744       _NSF_SELF_VARS_MOD_mp_NSF_VAR_DAHVY_ID 0104c744     <common>
 0004:00975748       _NSF_SELF_VARS_MOD_mp_NSF_VAR_VERT_ID 0104c748     <common>
 0004:0097574c       _NSF_SELF_VARS_MOD_mp_NSF_VAR_TEMP_ID 0104c74c     <common>
 0004:00975750       _NSF_SELF_VARS_MOD_mp_NSF_VAR_SALT_ID 0104c750     <common>
 0004:00975754       _NSF_SELF_VARS_MOD_mp_NSF_VAR_CONC_ID 0104c754     <common>
 0004:00975758       _NSF_SELF_VARS_MOD_mp_NSF_VAR_TDFF_ID 0104c758     <common>
 0004:0097575c       _NSF_SELF_VARS_MOD_mp_NSF_VAR_VDFF_ID 0104c75c     <common>
 0004:00975760       _NSF_SELF_VARS_MOD_mp_NSF_VAR_KINE_ID 0104c760     <common>
 0004:00975764       _NSF_SELF_VARS_MOD_mp_NSF_VAR_MIXL_ID 0104c764     <common>
 0004:00975768       _NSF_SELF_VARS_MOD_mp_NSF_VAR_ZCOR_ID 0104c768     <common>
 0004:0097576c       _NSF_SELF_VARS_MOD_mp_NSF_VAR_QNON_ID 0104c76c     <common>
 0004:00975770       _NSF_SELF_VARS_MOD_mp_NSF_VAR_HVELX_ID 0104c770     <common>
 0004:00975774       _NSF_SELF_VARS_MOD_mp_NSF_VAR_HVELY_ID 0104c774     <common>
 0004:00975778       _NSF_SELF_VARS_MOD_mp_NSF_VAR_U_ID 0104c778     <common>
 0004:0097577c       _NSF_SELF_VARS_MOD_mp_NSF_VAR_V_ID 0104c77c     <common>
 0004:00975780       _NSF_SELF_VARS_MOD_mp_NSF_VAR_OUTPUT_IDS 0104c780     <common>
 0004:00975920       _NSF_SELF_VARS_MOD_mp_NSF_VAR_OUTPUT_NAMES 0104c920     <common>
 0004:0097a740       _NSF_SELF_VARS_MOD_mp_NSF_SELFE_DIM_NAMES 01051740     <common>
 0004:0097f560       _NSF_SELF_VARS_MOD_mp_NSF_SELFE_DIM_VALS 01056560     <common>
 0004:0097f700       _NETCDF_IO_mp_START_JDATE  01056700     <common>
 0004:0097f710       _MPIPRIVC                  01056710     <common>
 0004:0097f720       _MPIPRIV2                  01056720     <common>
 0004:0097f740       _MPIPRIV1                  01056740     <common>
 0004:0097f760       _ELFE_MSGP_mp_MYRANK       01056760     <common>
 0004:0097f764       _ELFE_MSGP_mp_NPROC        01056764     <common>
 0004:0097f768       _ELFE_MSGP_mp_IERR         01056768     <common>
 0004:0097f780       _ELFE_MSGP_mp_ISTATUS      01056780     <common>
 0004:0097f794       _ELFE_MSGP_mp_COMM         01056794     <common>
 0004:0097f798       _ELFE_MSGP_mp_NNBR         01056798     <common>
 0004:0097f79c       _ELFE_MSGP_mp_NNBR_P       0105679c     <common>
 0004:0097f7a0       _ELFE_MSGP_mp_MNESEND      010567a0     <common>
 0004:0097f7a4       _ELFE_MSGP_mp_MNERECV      010567a4     <common>
 0004:0097f7a8       _ELFE_MSGP_mp_MNPSEND      010567a8     <common>
 0004:0097f7ac       _ELFE_MSGP_mp_MNPRECV      010567ac     <common>
 0004:0097f7b0       _ELFE_MSGP_mp_MNSSEND      010567b0     <common>
 0004:0097f7b4       _ELFE_MSGP_mp_MNSRECV      010567b4     <common>
 0004:0097f7c0       _DATA_TYPE_MOD_mp_CBUFF    010567c0     <common>
 0004:0097f8a0       _ELFE_GLBL_mp_NE           010568a0     <common>
 0004:0097f8a4       _ELFE_GLBL_mp_BT_MPITYPE   010568a4     <common>
 0004:0097f8a8       _ELFE_GLBL_mp_S1_MXNBT     010568a8     <common>
 0004:0097f8b0       _ELFE_GLBL_mp_S2_MXNBT     010568b0     <common>
 0004:0097f8b8       _ELFE_GLBL_mp_MXNBT        010568b8     <common>
 0004:0097f8bc       _ELFE_GLBL_mp_IVCOR        010568bc     <common>
 0004:0097f8c0       _ELFE_GLBL_mp_NVRT         010568c0     <common>
 0004:0097f8c4       _ELFE_GLBL_mp_KZ           010568c4     <common>
 0004:0097f8c8       _ELFE_GLBL_mp_NSIG         010568c8     <common>
 0004:0097f8d0       _ELFE_GLBL_mp_H_S          010568d0     <common>
 0004:0097f8d8       _ELFE_GLBL_mp_H_C          010568d8     <common>
 0004:0097f8e0       _ELFE_GLBL_mp_THETA_B      010568e0     <common>
 0004:0097f8e8       _ELFE_GLBL_mp_THETA_F      010568e8     <common>
 0004:0097f8f0       _ELFE_GLBL_mp_S_CON1       010568f0     <common>
 0004:0097f8f8       _ELFE_GLBL_mp_NE_GLOBAL    010568f8     <common>
 0004:0097f8fc       _ELFE_GLBL_mp_NEG          010568fc     <common>
 0004:0097f900       _ELFE_GLBL_mp_NEA          01056900     <common>
 0004:0097f920       _ELFE_GLBL_mp_NX           01056920     <common>
 0004:0097f938       _ELFE_GLBL_mp_NP_GLOBAL    01056938     <common>
 0004:0097f93c       _ELFE_GLBL_mp_NP           0105693c     <common>
 0004:0097f940       _ELFE_GLBL_mp_NPG          01056940     <common>
 0004:0097f944       _ELFE_GLBL_mp_NPA          01056944     <common>
 0004:0097f948       _ELFE_GLBL_mp_NS_GLOBAL    01056948     <common>
 0004:0097f94c       _ELFE_GLBL_mp_NS           0105694c     <common>
 0004:0097f950       _ELFE_GLBL_mp_NSG          01056950     <common>
 0004:0097f954       _ELFE_GLBL_mp_NSA          01056954     <common>
 0004:0097f958       _ELFE_GLBL_mp_NOPE_GLOBAL  01056958     <common>
 0004:0097f95c       _ELFE_GLBL_mp_NETA_GLOBAL  0105695c     <common>
 0004:0097f960       _ELFE_GLBL_mp_NOPE         01056960     <common>
 0004:0097f964       _ELFE_GLBL_mp_NETA         01056964     <common>
 0004:0097f968       _ELFE_GLBL_mp_MNOND        01056968     <common>
 0004:0097f96c       _ELFE_GLBL_mp_MNOND_GLOBAL 0105696c     <common>
 0004:0097f970       _ELFE_GLBL_mp_NLAND_GLOBAL 01056970     <common>
 0004:0097f974       _ELFE_GLBL_mp_NVEL_GLOBAL  01056974     <common>
 0004:0097f978       _ELFE_GLBL_mp_NLAND        01056978     <common>
 0004:0097f97c       _ELFE_GLBL_mp_NVEL         0105697c     <common>
 0004:0097f980       _ELFE_GLBL_mp_MNLND        01056980     <common>
 0004:0097f984       _ELFE_GLBL_mp_MNLND_GLOBAL 01056984     <common>
 0004:0097f988       _ELFE_GLBL_mp_NOFE         01056988     <common>
 0004:0097f98c       _ELFE_GLBL_mp_NTJ          0105698c     <common>
 0004:0097f990       _ELFE_GLBL_mp_DTJ          01056990     <common>
 0004:0097f998       _ELFE_GLBL_mp_IWRITE       01056998     <common>
 0004:0097f9a0       _ELFE_GLBL_mp_START_TIME   010569a0     <common>
 0004:0097f9e0       _ELFE_GLBL_mp_VERSION      010569e0     <common>
 0004:0097fa10       _ELFE_GLBL_mp_IFILE_CHAR   01056a10     <common>
 0004:0097fa20       _ELFE_GLBL_mp_OUTFILE      01056a20     <common>
 0004:00980ce0       _ELFE_GLBL_mp_VARIABLE_NM  01057ce0     <common>
 0004:00981fa0       _ELFE_GLBL_mp_VARIABLE_DIM 01058fa0     <common>
 0004:00983260       _ELFE_GLBL_mp_IHOT         0105a260     <common>
 0004:00983264       _ELFE_GLBL_mp_IHFSKIP      0105a264     <common>
 0004:00983268       _ELFE_GLBL_mp_NREC         0105a268     <common>
 0004:0098326c       _ELFE_GLBL_mp_NSPOOL       0105a26c     <common>
 0004:00983270       _ELFE_GLBL_mp_IGMP         0105a270     <common>
 0004:00983274       _ELFE_GLBL_mp_NOUTGM       0105a274     <common>
 0004:00983278       _ELFE_GLBL_mp_IFILE        0105a278     <common>
 0004:0098327c       _ELFE_GLBL_mp_IFILE_LEN    0105a27c     <common>
 0004:00983280       _ELFE_GLBL_mp_NOUTPUT      0105a280     <common>
 0004:009832a0       _ELFE_GLBL_mp_IFORT12      0105a2a0     <common>
 0004:00983440       _ELFE_GLBL_mp_ICHAN        0105a440     <common>
 0004:009835e0       _ELFE_GLBL_mp_IREC         0105a5e0     <common>
 0004:00983780       _ELFE_GLBL_mp_IOF          0105a780     <common>
 0004:00983920       _ELFE_GLBL_mp_A_48         0105a920     <common>
 0004:00983950       _ELFE_GLBL_mp_A_16         0105a950     <common>
 0004:00983960       _ELFE_GLBL_mp_A_8          0105a960     <common>
 0004:00983968       _ELFE_GLBL_mp_A_4          0105a968     <common>
 0004:00983980       _ELFE_GLBL_mp_ERRMSG       0105a980     <common>
 0004:00983d80       _ELFE_GLBL_mp_MID          0105ad80     <common>
 0004:00983d84       _ELFE_GLBL_mp_STAB         0105ad84     <common>
 0004:00983d88       _ELFE_GLBL_mp_UBD0         0105ad88     <common>
 0004:00983d90       _ELFE_GLBL_mp_UBD1         0105ad90     <common>
 0004:00983d98       _ELFE_GLBL_mp_UBD2         0105ad98     <common>
 0004:00983da0       _ELFE_GLBL_mp_UBD3         0105ada0     <common>
 0004:00983da8       _ELFE_GLBL_mp_UBD4         0105ada8     <common>
 0004:00983db0       _ELFE_GLBL_mp_UBD5         0105adb0     <common>
 0004:00983db8       _ELFE_GLBL_mp_UBS0         0105adb8     <common>
 0004:00983dc0       _ELFE_GLBL_mp_UBS1         0105adc0     <common>
 0004:00983dc8       _ELFE_GLBL_mp_UBS2         0105adc8     <common>
 0004:00983dd0       _ELFE_GLBL_mp_UBS4         0105add0     <common>
 0004:00983dd8       _ELFE_GLBL_mp_UBS5         0105add8     <common>
 0004:00983de0       _ELFE_GLBL_mp_UBS6         0105ade0     <common>
 0004:00983de8       _ELFE_GLBL_mp_A2_CM03      0105ade8     <common>
 0004:00983df0       _ELFE_GLBL_mp_SCHK         0105adf0     <common>
 0004:00983df8       _ELFE_GLBL_mp_SCHPSI       0105adf8     <common>
 0004:00983e00       _ELFE_GLBL_mp_NONHYDRO     0105ae00     <common>
 0004:00983e04       _ELFE_GLBL_mp_IUPWIND_T    0105ae04     <common>
 0004:00983e08       _ELFE_GLBL_mp_NZ_R         0105ae08     <common>
 0004:00983e0c       _ELFE_GLBL_mp_IEQSTATE     0105ae0c     <common>
 0004:00983e10       _ELFE_GLBL_mp_IMM          0105ae10     <common>
 0004:00983e14       _ELFE_GLBL_mp_KR_CO        0105ae14     <common>
 0004:00983e18       _ELFE_GLBL_mp_INDVEL       0105ae18     <common>
 0004:00983e1c       _ELFE_GLBL_mp_IHCONSV      0105ae1c     <common>
 0004:00983e20       _ELFE_GLBL_mp_ISCONSV      0105ae20     <common>
 0004:00983e24       _ELFE_GLBL_mp_IHDIF        0105ae24     <common>
 0004:00983e28       _ELFE_GLBL_mp_NTRACERS     0105ae28     <common>
 0004:00983e2c       _ELFE_GLBL_mp_MNTR         0105ae2c     <common>
 0004:00983e30       _ELFE_GLBL_mp_NTRACERS2    0105ae30     <common>
 0004:00983e34       _ELFE_GLBL_mp_MNEI         0105ae34     <common>
 0004:00983e38       _ELFE_GLBL_mp_MNEI_KR      0105ae38     <common>
 0004:00983e40       _ELFE_GLBL_mp_H0           0105ae40     <common>
 0004:00983e48       _ELFE_GLBL_mp_Q2MIN        0105ae48     <common>
 0004:00983e50       _ELFE_GLBL_mp_DT           0105ae50     <common>
 0004:00983e58       _ELFE_GLBL_mp_TEMPMIN      0105ae58     <common>
 0004:00983e60       _ELFE_GLBL_mp_TEMPMAX      0105ae60     <common>
 0004:00983e68       _ELFE_GLBL_mp_SALTMIN      0105ae68     <common>
 0004:00983e70       _ELFE_GLBL_mp_SALTMAX      0105ae70     <common>
 0004:00983e78       _ELFE_GLBL_mp_VIS_COE1     0105ae78     <common>
 0004:00983e80       _ELFE_GLBL_mp_VIS_COE2     0105ae80     <common>
 0004:00983e88       _ELFE_GLBL_mp_H_BCC1       0105ae88     <common>
 0004:00983e90       _ELFE_GLBL_mp_VELMIN_BTRACK 0105ae90     <common>
 0004:00983ea0       _ELFE_GLBL_mp_WTIMER       0105aea0     <common>
 0004:00984000       _ELFE_GLBL_mp_FDB          0105b000     <common>
 0004:00984060       _ELFE_GLBL_mp_LFDB         0105b060     <common>
 0004:00984080       _ELFE_GLBL_mp_INPUTFILE    0105b080     <common>
 0004:009840b0       _ELFE_GLBL_mp_FLAG_MODEL   0105b0b0     <common>
 0004:009840b4       _ELFE_GLBL_mp_FLAG_IC      0105b0b4     <common>
 0004:009840c0       _mpiprivc                  0105b0c0     <common>
 0004:009840e0       _mpipriv2                  0105b0e0     <common>
 0004:00984100       _mpipriv1                  0105b100     <common>
 0004:00984120       _for__l_argc               0105b120     <common>
 0004:00984124       _for__a_argv               0105b124     <common>
 0004:00984128       _for__l_excpt_info         0105b128     <common>
 0004:00984140       _for__aio_lub_table        0105b140     <common>
 0004:00984340       _for__aio_global_mutex     0105b340     <common>
 0004:00984358       _message_catalog           0105b358     <common>
 0004:0098435c       __debugger_hook_dummy      0105b35c     <common>
 0004:00984360       ___setlc_active            0105b360     <common>
 0004:00984364       ___unguarded_readlc_active 0105b364     <common>
 0004:00984368       ___sbh_initialized         0105b368     <common>
 0004:0098436c       ___sbh_cntHeaderList       0105b36c     <common>
 0004:00984370       ___sbh_pHeaderList         0105b370     <common>
 0004:00984374       ___sbh_threshold           0105b374     <common>
 0004:00984378       ___sbh_pHeaderScan         0105b378     <common>
 0004:0098437c       ___sbh_sizeHeaderList      0105b37c     <common>
 0004:00984380       ___sbh_indGroupDefer       0105b380     <common>
 0004:00984384       __pDestructExceptionObject 0105b384     <common>
 0004:00984388       ___active_heap             0105b388     <common>
 0004:0098438c       __nhandle                  0105b38c     <common>
 0004:009843a0       ___pioinfo                 0105b3a0     <common>
 0004:009844a0       ___sse2_available          0105b4a0     <common>
 0004:009844a4       ___piob                    0105b4a4     <common>
 0004:009844c0       __bufin                    0105b4c0     <common>
 0004:009854c0       __nstream                  0105c4c0     <common>
 0004:009854c4       ___env_initialized         0105c4c4     <common>
 0004:009854c8       ___onexitend               0105c4c8     <common>
 0004:009854cc       ___onexitbegin             0105c4cc     <common>
 0004:009854d0       ___mbctype_initialized     0105c4d0     <common>
 0004:009854d4       ___dyn_tls_init_callback   0105c4d4     <common>
 0004:009854d8       __acmdln                   0105c4d8     <common>

 entry point at        0001:00257ee7

 Static symbols

 0001:0003a1a0       _siqst                     0043b1a0 f    CIL library: CIL module
 0001:0003a350       _iiqst                     0043b350 f    CIL library: CIL module
 0001:0003a550       _keyiqst                   0043b550 f    CIL library: CIL module
 0001:0003a760       _keyvaliqst                0043b760 f    CIL library: CIL module
 0001:00160e30       _AQUIRE_HGRID_ip_SWAP_LLRANK 00561e30 f   grid_subs.obj
 0001:00160fde       _AQUIRE_HGRID_ip_SORT_LLRANK 00561fde f   grid_subs.obj
 0001:001611dc       _AQUIRE_HGRID_ip_SORT      005621dc f   grid_subs.obj
 0001:0018c0f5       _MPIR_Op_f_proxy@20        0058d0f5 f   msmpifec:mpif.obj
 0001:0018d622       _MPIR_Comm_copy_attr_f90_proxy@28 0058e622 f   msmpifec:mpif.obj
 0001:0018d67f       _MPIR_Comm_delete_attr_f90_proxy@20 0058e67f f   msmpifec:mpif.obj
 0001:0018d8ae       _MPIR_Grequest_query_f_proxy@12 0058e8ae f   msmpifec:mpif.obj
 0001:0018d8ca       _MPIR_Grequest_free_f_proxy@8 0058e8ca f   msmpifec:mpif.obj
 0001:0018d8e2       _MPIR_Grequest_cancel_f_proxy@12 0058e8e2 f   msmpifec:mpif.obj
 0001:0018d9a1       _MPIR_Type_copy_attr_f90_proxy@28 0058e9a1 f   msmpifec:mpif.obj
 0001:0018d9fe       _MPIR_Type_delete_attr_f90_proxy@20 0058e9fe f   msmpifec:mpif.obj
 0001:0018dc98       _MPIR_Win_copy_attr_f90_proxy@28 0058ec98 f   msmpifec:mpif.obj
 0001:0018dcf5       _MPIR_Win_delete_attr_f90_proxy@20 0058ecf5 f   msmpifec:mpif.obj
 0001:0018df0b       _MPIR_Comm_errhandler_f_proxy 0058ef0b f   msmpifec:mpif.obj
 0001:0018df7b       _MPIR_File_errhandler_f_proxy 0058ef7b f   msmpifec:mpif.obj
 0001:0018e728       _MPIR_Win_errhandler_f_proxy 0058f728 f   msmpifec:mpif.obj
 0001:0018f2e7       _MPIR_Comm_copy_attr_f77_proxy@28 005902e7 f   msmpifec:mpif.obj
 0001:0018f344       _MPIR_Comm_delete_attr_f77_proxy@20 00590344 f   msmpifec:mpif.obj
 0001:001ca440       _for__lseek                005cb440 f   libifcoremt:for_wseq_fmt.obj
 0001:001ca4a0       _for__flush_file_buffer    005cb4a0 f   libifcoremt:for_wseq_fmt.obj
 0001:001d3a50       _wint_complex              005d4a50 f   libifcoremt:for_wint_lis.obj
 0001:001d4080       _array_copy_in             005d5080 f   libifcoremt:for_contig_array.obj
 0001:001d6d90       _array_copy_out            005d7d90 f   libifcoremt:for_contig_array.obj
 0001:001dd260       _SetRecType                005de260 f   libifcoremt:for_open.obj
 0001:001e30a0       _for__lseek                005e40a0 f   libifcoremt:for_wseq_lis.obj
 0001:001e3100       _for__flush_file_buffer    005e4100 f   libifcoremt:for_wseq_lis.obj
 0001:001e6180       _wseq_complex              005e7180 f   libifcoremt:for_wseq_lis.obj
 0001:001e82d0       _for__lseek                005e92d0 f   libifcoremt:for_rseq_lis.obj
 0001:001e8330       _for__flush_file_buffer    005e9330 f   libifcoremt:for_rseq_lis.obj
 0001:001e9180       _rs_cvt_2step              005ea180 f   libifcoremt:for_rseq_lis.obj
 0001:001e9560       _rs_find_field             005ea560 f   libifcoremt:for_rseq_lis.obj
 0001:001e9ad0       _for__ignore_space         005eaad0 f   libifcoremt:for_rseq_lis.obj
 0001:001e9dc0       _rs_get_field              005eadc0 f   libifcoremt:for_rseq_lis.obj
 0001:001ed740       _bump_up_an_indecie        005ee740 f   libifcoremt:for_rseq_nml.obj
 0001:001ed840       _for__nml_lex              005ee840 f   libifcoremt:for_rseq_nml.obj
 0001:001eee20       _skip_nml_buffer           005efe20 f   libifcoremt:for_rseq_nml.obj
 0001:001eee50       _process_nondelim_char     005efe50 f   libifcoremt:for_rseq_nml.obj
 0001:001ef040       _process_numeric           005f0040 f   libifcoremt:for_rseq_nml.obj
 0001:001ef990       _process_logical           005f0990 f   libifcoremt:for_rseq_nml.obj
 0001:001efbd0       _process_complex           005f0bd0 f   libifcoremt:for_rseq_nml.obj
 0001:001f0250       _process_substring         005f1250 f   libifcoremt:for_rseq_nml.obj
 0001:001f0520       _process_index             005f1520 f   libifcoremt:for_rseq_nml.obj
 0001:001f08c0       _do_nml_copy               005f18c0 f   libifcoremt:for_rseq_nml.obj
 0001:001f0bb0       _for__proc_nlist_struct    005f1bb0 f   libifcoremt:for_rseq_nml.obj
 0001:001f1f00       _for__get_next_state       005f2f00 f   libifcoremt:for_rseq_nml.obj
 0001:001f1ff0       _for__assign_nlist_struct  005f2ff0 f   libifcoremt:for_rseq_nml.obj
 0001:001f3200       _for__assign_nlist_element 005f4200 f   libifcoremt:for_rseq_nml.obj
 0001:001f37d0       _for__free_nml_buffer      005f47d0 f   libifcoremt:for_rseq_nml.obj
 0001:001f3800       _for__lseek                005f4800 f   libifcoremt:for_rseq_nml.obj
 0001:001f3860       _for__flush_file_buffer    005f4860 f   libifcoremt:for_rseq_nml.obj
 0001:001f39b0       _for__init_nml_buffer      005f49b0 f   libifcoremt:for_rseq_nml.obj
 0001:001f5840       _for__lseek                005f6840 f   libifcoremt:for_rseq_fmt.obj
 0001:001f58a0       _for__flush_file_buffer    005f68a0 f   libifcoremt:for_rseq_fmt.obj
 0001:001f9430       _ri_find_field             005fa430 f   libifcoremt:for_rint_lis.obj
 0001:001f98f0       _ri_get_field              005fa8f0 f   libifcoremt:for_rint_lis.obj
 0001:001f9e70       _kill_resource             005fae70 f   libifcoremt:for_reentrancy.obj
 0001:001f9e90       _kill_resource_recurschk   005fae90 f   libifcoremt:for_reentrancy.obj
 0001:001f9ed0       _reentrancy_cleanup        005faed0 f   libifcoremt:for_reentrancy.obj
 0001:001fa1e0       _create_threadstor_key     005fb1e0 f   libifcoremt:for_reentrancy.obj
 0001:001faac0       _reentrancy_init           005fbac0 f   libifcoremt:for_reentrancy.obj
 0001:001fab50       _init_resource_recurschk   005fbb50 f   libifcoremt:for_reentrancy.obj
 0001:001fab70       _init_resource             005fbb70 f   libifcoremt:for_reentrancy.obj
 0001:001fdbb0       _for__read_ufseq           005febb0 f   libifcoremt:for_rseq.obj
 0001:001fde50       _for__lseek                005fee50 f   libifcoremt:for_rseq.obj
 0001:001fdeb0       _for__flush_file_buffer    005feeb0 f   libifcoremt:for_rseq.obj
 0001:001ff670       _for__flush_file_buffer    00600670 f   libifcoremt:for_rdir.obj
 0001:00201fd0       _for__flush_file_buffer    00602fd0 f   libifcoremt:for_wseq.obj
 0001:002050e0       _write_UFSEQD_record_to_file 006060e0 f   libifcoremt:for_wseq.obj
 0001:00205300       _for__finish_direct_write  00606300 f   libifcoremt:for_wseq.obj
 0001:00205b20       _for__tell                 00606b20 f   libifcoremt:for_wseq.obj
 0001:00205b80       _for__set_record_count     00606b80 f   libifcoremt:for_wseq.obj
 0001:00205cc0       _for__lseek                00606cc0 f   libifcoremt:for_wseq.obj
 0001:00205d20       _for__write_from_user_buffer 00606d20 f   libifcoremt:for_wseq.obj
 0001:00207820       _for__flush_file_buffer    00608820 f   libifcoremt:for_wdir.obj
 0001:00209260       _for__writed_from_user_buffer 0060a260 f   libifcoremt:for_wdir.obj
 0001:002095e0       _release_lun               0060a5e0 f   libifcoremt:for_lub_mgt.obj
 0001:0020b170       _process_existing_lub      0060c170 f   libifcoremt:for_lub_mgt.obj
 0001:0020d5b0       _get_message               0060e5b0 f   libifcoremt:for_diags_intel.obj
 0001:0020ecc0       _for__perror               0060fcc0 f   libifcoremt:for_diags_intel.obj
 0001:0020f8d0       _for_gerror_i              006108d0 f   libifcoremt:for_diags_intel.obj
 0001:002110c0       _aio__routine@4            006120c0 f   libifcoremt:for_aio.obj
 0001:00215950       _emit_comp_fmt             00616950 f   libifcoremt:for_fmt_comp.obj
 0001:0021a840       _to_uint8                  0061b840 f   libifcoremt:for_fmt_val.obj
 0001:0021a870       _to_uint16                 0061b870 f   libifcoremt:for_fmt_val.obj
 0001:0021a8a0       _to_int8                   0061b8a0 f   libifcoremt:for_fmt_val.obj
 0001:0021a8d0       _to_int16                  0061b8d0 f   libifcoremt:for_fmt_val.obj
 0001:0021ce10       _for__prompt_user          0061de10 f   libifcoremt:for_nt_open_proc.obj
 0001:00220f90       _for__lseek                00621f90 f   libifcoremt:for_nt_open_proc.obj
 0001:00220ff0       _for__tell                 00621ff0 f   libifcoremt:for_nt_open_proc.obj
 0001:002214f0       _perform_disposition       006224f0 f   libifcoremt:for_close_proc.obj
 0001:00225620       _for__proc_nlist_element   00626620 f   libifcoremt:for_wseq_nml.obj
 0001:00227b90       _for__reset_buf            00628b90 f   libifcoremt:for_wseq_nml.obj
 0001:00227f00       _nml_condense              00628f00 f   libifcoremt:for_wseq_nml.obj
 0001:00228160       _for__itoa                 00629160 f   libifcoremt:for_wseq_nml.obj
 0001:00228250       _for__free_prefix_buffer   00629250 f   libifcoremt:for_wseq_nml.obj
 0001:00228280       _for__lseek                00629280 f   libifcoremt:for_wseq_nml.obj
 0001:002282e0       _for__flush_file_buffer    006292e0 f   libifcoremt:for_wseq_nml.obj
 0001:00228430       _for__init_prefix_buffer   00629430 f   libifcoremt:for_wseq_nml.obj
 0001:00229080       _for__console_control_handler 0062a080 f   libifcoremt:for_init.obj
 0001:0022ac50       _tbk__dump_context         0062bc50 f   libifcoremt:tbk_traceback.obj
 0001:0024a9b0       @__atan@4                  0064b9b0 f   libmmt:atan_gen.obj
 0001:00250160       _write_message             00651160 f   libmmt:libm_error.obj
 0001:00257d25       _fast_error_exit           00658d25 f   LIBCMT:crt0.obj
 0001:00257d4e       _check_managed_app         00658d4e f   LIBCMT:crt0.obj
 0001:00257d95       ___tmainCRTStartup         00658d95 f   LIBCMT:crt0.obj
 0001:002583c1       __initterm                 006593c1 f   LIBCMT:crt0dat.obj
 0001:002584ff       _doexit                    006594ff f   LIBCMT:crt0dat.obj
 0001:00258b10       _swap                      00659b10 f   LIBCMT:qsort.obj
 0001:00258b40       _shortsort                 00659b40 f   LIBCMT:qsort.obj
 0001:00259215       _flsall                    0065a215 f   LIBCMT:fflush.obj
 0001:0025a24f       __getenv_s_helper          0065b24f f   LIBCMT:getenv.obj
 0001:0025a2e4       __dupenv_s_helper          0065b2e4 f   LIBCMT:getenv.obj
 0001:0025b5aa       ?_store_str@@YAXPADPAPADPAI@Z 0065c5aa f   LIBCMT:strftime.obj
 0001:0025b5ca       ?_store_number@@YAXHPAPADPAI@Z 0065c5ca f   LIBCMT:strftime.obj
 0001:0025b600       ?_store_num@@YAXHHPAPADPAII@Z 0065c600 f   LIBCMT:strftime.obj
 0001:0025b67b       ?_expandtime@@YAHPAUlocaleinfo_struct@@DPBUtm@@PAPADPAIPAU__lc_time_data@@I@Z 0065c67b f   LIBCMT:strftime.obj
 0001:0025ba63       ?_store_winword@@YAHPAUlocaleinfo_struct@@HPBUtm@@PAPADPAIPAU__lc_time_data@@@Z 0065ca63 f   LIBCMT:strftime.obj
 0001:0025c19b       _ctrlevent_capture@4       0065d19b f   LIBCMT:winsig.obj
 0001:0025c236       _siglookup                 0065d236 f   LIBCMT:winsig.obj
 0001:0025c679       __onexit_nolock            0065d679 f   LIBCMT:onexit.obj
 0001:0025c800       __callthreadstart          0065d800 f   LIBCMT:thread.obj
 0001:0025c841       __threadstart@4            0065d841 f   LIBCMT:thread.obj
 0001:0025d5f1       _vscan_fn                  0065e5f1 f   LIBCMT:sscanf.obj
 0001:0025ddcb       __abstract_cw              0065edcb f   LIBCMT:_ieee87_.obj
 0001:0025de6a       __hw_cw                    0065ee6a f   LIBCMT:_ieee87_.obj
 0001:0025def8       __abstract_sw              0065eef8 f   LIBCMT:_ieee87_.obj
 0001:0025df3b       ___abstract_cw_sse2        0065ef3b f   LIBCMT:_ieee87_.obj
 0001:0025dfdb       ___hw_cw_sse2              0065efdb f   LIBCMT:_ieee87_.obj
 0001:0025e07b       ___abstract_sw_sse2        0065f07b f   LIBCMT:_ieee87_.obj
 0001:0025e0be       ___fpreset_sse2            0065f0be f   LIBCMT:_ieee87_.obj
 0001:0025e194       ___statusfp_sse2           0065f194 f   LIBCMT:_ieee87_.obj
 0001:0025e1cf       ___clearfp_sse2            0065f1cf f   LIBCMT:_ieee87_.obj
 0001:0025e21f       ___control87_sse2          0065f21f f   LIBCMT:_ieee87_.obj
 0001:0025f0ae       __shift                    006600ae f   LIBCMT:cvt.obj
 0001:0025f0f3       __cftoe2_l                 006600f3 f   LIBCMT:cvt.obj
 0001:0025f6e5       __cftof2_l                 006606e5 f   LIBCMT:cvt.obj
 0001:0025fb2c       _fastcopy_I                00660b2c f   LIBCMT:p4_memcpy.obj
 0001:0025fc96       _has_osfxsr_set            00660c96 f   LIBCMT:cpu_disp.obj
 0001:0025ffb0       _xcptlookup                00660fb0 f   LIBCMT:winxfltr.obj
 0001:00260252       _parse_cmdline             00661252 f   LIBCMT:stdargv.obj
 0001:00261050       _ValidateLocalCookies      00662050 f   LIBCMT:chandler4.obj
 0001:0026265e       _write_char                0066365e f   LIBCMT:output.obj
 0001:00262691       _write_multi_char          00663691 f   LIBCMT:output.obj
 0001:002626b7       _write_string              006636b7 f   LIBCMT:output.obj
 0001:00264197       _write_char                00665197 f   LIBCMT:outputp.obj
 0001:002641ca       _write_multi_char          006651ca f   LIBCMT:outputp.obj
 0001:002641f0       _write_string              006651f0 f   LIBCMT:outputp.obj
 0001:00265830       _write_char                00666830 f   LIBCMT:outputs.obj
 0001:00265863       _write_multi_char          00666863 f   LIBCMT:outputs.obj
 0001:00265889       _write_string              00666889 f   LIBCMT:outputs.obj
 0001:00266938       __unwind_handler4          00667938 f   LIBCMT:exsup4.obj
 0001:00266b95       ?CPtoLCID@@YAHH@Z          00667b95 f   LIBCMT:mbctype.obj
 0001:00266bc4       ?setSBCS@@YAXPAUthreadmbcinfostruct@@@Z 00667bc4 f   LIBCMT:mbctype.obj
 0001:00266c28       ?setSBUpLow@@YAXPAUthreadmbcinfostruct@@@Z 00667c28 f   LIBCMT:mbctype.obj
 0001:00266e5f       ?getSystemCP@@YAHH@Z       00667e5f f   LIBCMT:mbctype.obj
 0001:00267533       __copytlocinfo_nolock      00668533 f   LIBCMT:setlocal.obj
 0001:00267559       __updatetlocinfoEx_nolock  00668559 f   LIBCMT:setlocal.obj
 0001:00267677       _sync_legacy_variables_lk  00668677 f   LIBCMT:setlocal.obj
 0001:00267a24       __setlocale_get_all        00668a24 f   LIBCMT:setlocal.obj
 0001:00267dd2       __setlocale_set_cat        00668dd2 f   LIBCMT:setlocal.obj
 0001:002680d4       __setlocale_nolock         006690d4 f   LIBCMT:setlocal.obj
 0001:0026855f       ?strncnt@@YAHPBDH@Z        0066955f f   LIBCMT:a_map.obj
 0001:0026857d       ?__crtLCMapStringA_stat@@YAHPAUlocaleinfo_struct@@KKPBDHPADHHH@Z 0066957d f   LIBCMT:a_map.obj
 0001:00268ddf       __is_LFH_enabled           00669ddf f   LIBCMT:expand.obj
 0001:00269297       ?strtoxl@@YAKPAUlocaleinfo_struct@@PBDPAPBDHH@Z 0066a297 f   LIBCMT:strtol.obj
 0001:00269557       ?strtoxq@@YA_KPAUlocaleinfo_struct@@PBDPAPBDHH@Z 0066a557 f   LIBCMT:strtoq.obj
 0001:00269c6f       __tzset_nolock             0066ac6f f   LIBCMT:tzset.obj
 0001:00269fb5       _cvtdate                   0066afb5 f   LIBCMT:tzset.obj
 0001:0026a1ac       __isindst_nolock           0066b1ac f   LIBCMT:tzset.obj
 0001:0026ad8f       ___check_float_string      0066bd8f f   LIBCMT:input.obj
 0001:0026adf8       __hextodec                 0066bdf8 f   LIBCMT:input.obj
 0001:0026ae18       __inc                      0066be18 f   LIBCMT:input.obj
 0001:0026ae2e       __un_inc                   0066be2e f   LIBCMT:input.obj
 0001:0026ae41       __whiteout                 0066be41 f   LIBCMT:input.obj
 0001:0026be28       ___check_float_string      0066ce28 f   LIBCMT:inputs.obj
 0001:0026be7f       __hextodec                 0066ce7f f   LIBCMT:inputs.obj
 0001:0026be9f       __inc                      0066ce9f f   LIBCMT:inputs.obj
 0001:0026beb5       __un_inc                   0066ceb5 f   LIBCMT:inputs.obj
 0001:0026bec8       __whiteout                 0066cec8 f   LIBCMT:inputs.obj
 0001:0026db25       ?x_ismbbtype_l@@YAHPAUlocaleinfo_struct@@IHH@Z 0066eb25 f   LIBCMT:ismbbyte.obj
 0001:0026e095       ?__crtGetLocaleInfoW_stat@@YAHPAUlocaleinfo_struct@@KKPA_WHH@Z 0066f095 f   LIBCMT:w_loc.obj
 0001:0026e0e2       ?__crtGetLocaleInfoA_stat@@YAHPAUlocaleinfo_struct@@KKPADHH@Z 0066f0e2 f   LIBCMT:a_loc.obj
 0001:0026e25e       _fastzero_I                0066f25e f   LIBCMT:p4_memset.obj
 0001:0026e526       __tsopen_nolock            0066f526 f   LIBCMT:open.obj
 0001:0026f204       __unwind_handler           00670204 f   LIBCMT:exsup.obj
 0001:0026f31b       ?__crtGetStringTypeA_stat@@YAHPAUlocaleinfo_struct@@KPBDHPAGHHH@Z 0067031b f   LIBCMT:a_str.obj
 0001:0026f546       __get_lc_time              00670546 f   LIBCMT:inittime.obj
 0001:0026fb6f       _fix_grouping              00670b6f f   LIBCMT:initnum.obj
 0001:0026fdb1       _fix_grouping              00670db1 f   LIBCMT:initmon.obj
 0001:00270648       _TranslateName             00671648 f   LIBCMT:getqloc.obj
 0001:002706aa       _GetLcidFromDefault        006716aa f   LIBCMT:getqloc.obj
 0001:002706be       _ProcessCodePage           006716be f   LIBCMT:getqloc.obj
 0001:00270762       _TestDefaultCountry        00671762 f   LIBCMT:getqloc.obj
 0001:00270786       _LcidFromHexString         00671786 f   LIBCMT:getqloc.obj
 0001:002707ba       _GetPrimaryLen             006717ba f   LIBCMT:getqloc.obj
 0001:002707d5       _CountryEnumProc@4         006717d5 f   LIBCMT:getqloc.obj
 0001:0027086d       _TestDefaultLanguage       0067186d f   LIBCMT:getqloc.obj
 0001:002708e1       _LangCountryEnumProc@4     006718e1 f   LIBCMT:getqloc.obj
 0001:00270ab3       _LanguageEnumProc@4        00671ab3 f   LIBCMT:getqloc.obj
 0001:00270b74       _GetLcidFromCountry        00671b74 f   LIBCMT:getqloc.obj
 0001:00270ba0       _GetLcidFromLangCountry    00671ba0 f   LIBCMT:getqloc.obj
 0001:00270c07       _GetLcidFromLanguage       00671c07 f   LIBCMT:getqloc.obj
 0001:00270e34       _cmpResult                 00671e34 f   LIBCMT:memcmp.obj
 0001:00270e46       _cmpBYTE                   00671e46 f   LIBCMT:memcmp.obj
 0001:00270e5e       _cmpWORD                   00671e5e f   LIBCMT:memcmp.obj
 0001:00270e9e       _cmpDWORD                  00671e9e f   LIBCMT:memcmp.obj
 0001:00270f16       _unaligned_memcmp          00671f16 f   LIBCMT:memcmp.obj
 0001:00273d78       ?strncnt@@YAHPBDH@Z        00674d78 f   LIBCMT:a_cmp.obj
 0001:00273d96       ?__crtCompareStringA_stat@@YAHPAUlocaleinfo_struct@@KKPBDH1HH@Z 00674d96 f   LIBCMT:a_cmp.obj
 0001:0027426b       _findenv                   0067526b f   LIBCMT:setenv.obj
 0001:002742bd       _copy_environ              006752bd f   LIBCMT:setenv.obj
 0001:002780c6       _xtoa_s@20                 006790c6 f   LIBCMT:xtoas.obj
 0001:0027820e       @x64toa_s@24               0067920e f   LIBCMT:xtoas.obj
 0001:0027835a       ?__crtGetStringTypeW_stat@@YAHPAUlocaleinfo_struct@@KPB_WHPAGHH@Z 0067935a f   LIBCMT:w_str.obj
 0001:00279b60       _stackwalk_cb              0067ab60 f   libirc:tbk_display.obj
 0001:0027bf70       ___intel_proc_init_ftzdazule 0067cf70 f   libirc:proc_init.obj
 0001:0027dd90       _tbk__fetch_pc             0067ed90 f   libirc:tbk_backtrace.obj
 0001:00280230       _mul_2q                    00681230 f   libirc:ia32_mulq.obj
 0001:00284a20       _testFPIEEE_RECORD         00685a20 f   libifcoremt:for_main.obj
 0001:00284b50       _testFPIEEE_RECORD__nt_handler_jacket 00685b50 f   libifcoremt:for_main.obj
 0001:00284e75       __splitpath_helper         00685e75 f   LIBCMT:splitpat.obj
 0001:00285df0       _ValidateScopeTableHandlers 00686df0 f   LIBCMT:eh3valid.obj
 0001:002867f2       _ax0                       006877f2 f   LIBCMT:_filter_simd_.obj
 0001:00286809       _ax8                       00687809 f   LIBCMT:_filter_simd_.obj
 0001:00286827       _ax32                      00687827 f   LIBCMT:_filter_simd_.obj
 0001:00286844       _cx0                       00687844 f   LIBCMT:_filter_simd_.obj
 0001:0028685b       _cx8                       0068785b f   LIBCMT:_filter_simd_.obj
 0001:00286879       _cx32                      00687879 f   LIBCMT:_filter_simd_.obj
 0001:00286896       _dx0                       00687896 f   LIBCMT:_filter_simd_.obj
 0001:002868ad       _dx8                       006878ad f   LIBCMT:_filter_simd_.obj
 0001:002868cb       _dx32                      006878cb f   LIBCMT:_filter_simd_.obj
 0001:002868e8       _bx0                       006878e8 f   LIBCMT:_filter_simd_.obj
 0001:002868ff       _bx8                       006878ff f   LIBCMT:_filter_simd_.obj
 0001:0028691d       _bx32                      0068791d f   LIBCMT:_filter_simd_.obj
 0001:0028693a       _sib0                      0068793a f   LIBCMT:_filter_simd_.obj
 0001:00286a86       _sib8                      00687a86 f   LIBCMT:_filter_simd_.obj
 0001:00286bca       _sib32                     00687bca f   LIBCMT:_filter_simd_.obj
 0001:00286d06       _d32                       00687d06 f   LIBCMT:_filter_simd_.obj
 0001:00286d1a       _bp8                       00687d1a f   LIBCMT:_filter_simd_.obj
 0001:00286d38       _bp32                      00687d38 f   LIBCMT:_filter_simd_.obj
 0001:00286d55       _si0                       00687d55 f   LIBCMT:_filter_simd_.obj
 0001:00286d6c       _si8                       00687d6c f   LIBCMT:_filter_simd_.obj
 0001:00286d8a       _si32                      00687d8a f   LIBCMT:_filter_simd_.obj
 0001:00286da7       _di0                       00687da7 f   LIBCMT:_filter_simd_.obj
 0001:00286dbe       _di8                       00687dbe f   LIBCMT:_filter_simd_.obj
 0001:00286ddc       _di32                      00687ddc f   LIBCMT:_filter_simd_.obj
 0001:00286df9       _reg                       00687df9 f   LIBCMT:_filter_simd_.obj
 0001:00288294       _iszerod                   00689294 f   LIBCMT:_xmmi2_fp_emul_.obj
 0001:002882b1       _isinfd                    006892b1 f   LIBCMT:_xmmi2_fp_emul_.obj
 0001:002882d1       _issnand                   006892d1 f   LIBCMT:_xmmi2_fp_emul_.obj
 0001:002882fd       _isnand                    006892fd f   LIBCMT:_xmmi2_fp_emul_.obj
 0001:00288328       _quietd                    00689328 f   LIBCMT:_xmmi2_fp_emul_.obj
 0001:00288356       _isdenormald               00689356 f   LIBCMT:_xmmi2_fp_emul_.obj
 0001:0028837c       _isdenormalf               0068937c f   LIBCMT:_xmmi2_fp_emul_.obj
 0001:0028839c       _Fill_FPIEEE_RECORD        0068939c f   LIBCMT:_xmmi2_fp_emul_.obj
 0001:00289e03       _issnanf                   0068ae03 f   LIBCMT:_xmmi_fp_emul_.obj
 0001:00289e29       _isnanf                    0068ae29 f   LIBCMT:_xmmi_fp_emul_.obj
 0001:00289e4e       _quietf                    0068ae4e f   LIBCMT:_xmmi_fp_emul_.obj
 0001:00289e54       _isdenormalf               0068ae54 f   LIBCMT:_xmmi_fp_emul_.obj
 0001:00289e74       _Fill_FPIEEE_RECORD        0068ae74 f   LIBCMT:_xmmi_fp_emul_.obj
